
Dongle Module.elf:     file format elf32-littlearm

Sections:
Idx Name          Size      VMA       LMA       File off  Algn
  0 .text         00008d28  00000000  00000000  00008000  2**2
                  CONTENTS, ALLOC, LOAD, READONLY, CODE
  1 .relocate     000000dc  20000000  00008d28  00018000  2**2
                  CONTENTS, ALLOC, LOAD, DATA
  2 .bss          000004a0  200000dc  00008e04  000180dc  2**2
                  ALLOC
  3 .stack        00002004  2000057c  000092a4  000180dc  2**0
                  ALLOC
  4 .ARM.attributes 00000028  00000000  00000000  000180dc  2**0
                  CONTENTS, READONLY
  5 .comment      0000005b  00000000  00000000  00018104  2**0
                  CONTENTS, READONLY
  6 .debug_info   00028754  00000000  00000000  0001815f  2**0
                  CONTENTS, READONLY, DEBUGGING
  7 .debug_abbrev 0000361b  00000000  00000000  000408b3  2**0
                  CONTENTS, READONLY, DEBUGGING
  8 .debug_loc    00004d6c  00000000  00000000  00043ece  2**0
                  CONTENTS, READONLY, DEBUGGING
  9 .debug_aranges 00000dc0  00000000  00000000  00048c3a  2**0
                  CONTENTS, READONLY, DEBUGGING
 10 .debug_ranges 00000c58  00000000  00000000  000499fa  2**0
                  CONTENTS, READONLY, DEBUGGING
 11 .debug_macro  0001e442  00000000  00000000  0004a652  2**0
                  CONTENTS, READONLY, DEBUGGING
 12 .debug_line   00010f36  00000000  00000000  00068a94  2**0
                  CONTENTS, READONLY, DEBUGGING
 13 .debug_str    00094480  00000000  00000000  000799ca  2**0
                  CONTENTS, READONLY, DEBUGGING
 14 .debug_frame  00002f38  00000000  00000000  0010de4c  2**2
                  CONTENTS, READONLY, DEBUGGING

Disassembly of section .text:

00000000 <_sfixed>:
       0:	20002580 	.word	0x20002580
       4:	000084b5 	.word	0x000084b5
       8:	000085ad 	.word	0x000085ad
       c:	000085ad 	.word	0x000085ad
	...
      2c:	000085ad 	.word	0x000085ad
	...
      38:	000085ad 	.word	0x000085ad
      3c:	000085ad 	.word	0x000085ad
      40:	000085ad 	.word	0x000085ad
      44:	000085ad 	.word	0x000085ad
      48:	000085ad 	.word	0x000085ad
      4c:	000085ad 	.word	0x000085ad
      50:	00003cf5 	.word	0x00003cf5
      54:	000085ad 	.word	0x000085ad
      58:	000085ad 	.word	0x000085ad
      5c:	00008105 	.word	0x00008105
      60:	000085ad 	.word	0x000085ad
      64:	000085ad 	.word	0x000085ad
      68:	000085ad 	.word	0x000085ad
      6c:	000085ad 	.word	0x000085ad
      70:	000085ad 	.word	0x000085ad
      74:	000085ad 	.word	0x000085ad
      78:	000085ad 	.word	0x000085ad
      7c:	000085ad 	.word	0x000085ad
      80:	000085ad 	.word	0x000085ad
      84:	000085ad 	.word	0x000085ad
      88:	000085ad 	.word	0x000085ad
      8c:	000085ad 	.word	0x000085ad
      90:	000085ad 	.word	0x000085ad
	...
      9c:	000085ad 	.word	0x000085ad
      a0:	000085ad 	.word	0x000085ad
      a4:	000085ad 	.word	0x000085ad
      a8:	000085ad 	.word	0x000085ad
      ac:	000085ad 	.word	0x000085ad
      b0:	00000000 	.word	0x00000000

000000b4 <__do_global_dtors_aux>:
      b4:	b510      	push	{r4, lr}
      b6:	4c06      	ldr	r4, [pc, #24]	; (d0 <__do_global_dtors_aux+0x1c>)
      b8:	7823      	ldrb	r3, [r4, #0]
      ba:	2b00      	cmp	r3, #0
      bc:	d107      	bne.n	ce <__do_global_dtors_aux+0x1a>
      be:	4b05      	ldr	r3, [pc, #20]	; (d4 <__do_global_dtors_aux+0x20>)
      c0:	2b00      	cmp	r3, #0
      c2:	d002      	beq.n	ca <__do_global_dtors_aux+0x16>
      c4:	4804      	ldr	r0, [pc, #16]	; (d8 <__do_global_dtors_aux+0x24>)
      c6:	e000      	b.n	ca <__do_global_dtors_aux+0x16>
      c8:	bf00      	nop
      ca:	2301      	movs	r3, #1
      cc:	7023      	strb	r3, [r4, #0]
      ce:	bd10      	pop	{r4, pc}
      d0:	200000dc 	.word	0x200000dc
      d4:	00000000 	.word	0x00000000
      d8:	00008d28 	.word	0x00008d28

000000dc <frame_dummy>:
      dc:	b508      	push	{r3, lr}
      de:	4b08      	ldr	r3, [pc, #32]	; (100 <frame_dummy+0x24>)
      e0:	2b00      	cmp	r3, #0
      e2:	d003      	beq.n	ec <frame_dummy+0x10>
      e4:	4807      	ldr	r0, [pc, #28]	; (104 <frame_dummy+0x28>)
      e6:	4908      	ldr	r1, [pc, #32]	; (108 <frame_dummy+0x2c>)
      e8:	e000      	b.n	ec <frame_dummy+0x10>
      ea:	bf00      	nop
      ec:	4807      	ldr	r0, [pc, #28]	; (10c <frame_dummy+0x30>)
      ee:	6803      	ldr	r3, [r0, #0]
      f0:	2b00      	cmp	r3, #0
      f2:	d100      	bne.n	f6 <frame_dummy+0x1a>
      f4:	bd08      	pop	{r3, pc}
      f6:	4b06      	ldr	r3, [pc, #24]	; (110 <frame_dummy+0x34>)
      f8:	2b00      	cmp	r3, #0
      fa:	d0fb      	beq.n	f4 <frame_dummy+0x18>
      fc:	4798      	blx	r3
      fe:	e7f9      	b.n	f4 <frame_dummy+0x18>
     100:	00000000 	.word	0x00000000
     104:	00008d28 	.word	0x00008d28
     108:	200000e0 	.word	0x200000e0
     10c:	00008d28 	.word	0x00008d28
     110:	00000000 	.word	0x00000000

00000114 <system_gclk_chan_get_config_defaults>:
 *
 * \param[out] config  Configuration structure to initialize to default values
 */
static inline void system_gclk_chan_get_config_defaults(
		struct system_gclk_chan_config *const config)
{
     114:	b580      	push	{r7, lr}
     116:	b082      	sub	sp, #8
     118:	af00      	add	r7, sp, #0
     11a:	6078      	str	r0, [r7, #4]
	/* Sanity check arguments */
	Assert(config);

	/* Default configuration values */
	config->source_generator = GCLK_GENERATOR_0;
     11c:	687b      	ldr	r3, [r7, #4]
     11e:	2200      	movs	r2, #0
     120:	701a      	strb	r2, [r3, #0]
}
     122:	46bd      	mov	sp, r7
     124:	b002      	add	sp, #8
     126:	bd80      	pop	{r7, pc}

00000128 <system_apb_clock_set_mask>:
 * \retval STATUS_OK               The clock mask was set successfully
 */
static inline enum status_code system_apb_clock_set_mask(
		const enum system_clock_apb_bus bus,
		const uint32_t mask)
{
     128:	b580      	push	{r7, lr}
     12a:	b082      	sub	sp, #8
     12c:	af00      	add	r7, sp, #0
     12e:	1c02      	adds	r2, r0, #0
     130:	6039      	str	r1, [r7, #0]
     132:	1dfb      	adds	r3, r7, #7
     134:	701a      	strb	r2, [r3, #0]
	switch (bus) {
     136:	1dfb      	adds	r3, r7, #7
     138:	781b      	ldrb	r3, [r3, #0]
     13a:	2b01      	cmp	r3, #1
     13c:	d00a      	beq.n	154 <system_apb_clock_set_mask+0x2c>
     13e:	2b02      	cmp	r3, #2
     140:	d00f      	beq.n	162 <system_apb_clock_set_mask+0x3a>
     142:	2b00      	cmp	r3, #0
     144:	d114      	bne.n	170 <system_apb_clock_set_mask+0x48>
		case SYSTEM_CLOCK_APB_APBA:
			PM->APBAMASK.reg |= mask;
     146:	4b0e      	ldr	r3, [pc, #56]	; (180 <system_apb_clock_set_mask+0x58>)
     148:	4a0d      	ldr	r2, [pc, #52]	; (180 <system_apb_clock_set_mask+0x58>)
     14a:	6991      	ldr	r1, [r2, #24]
     14c:	683a      	ldr	r2, [r7, #0]
     14e:	430a      	orrs	r2, r1
     150:	619a      	str	r2, [r3, #24]
			break;
     152:	e00f      	b.n	174 <system_apb_clock_set_mask+0x4c>

		case SYSTEM_CLOCK_APB_APBB:
			PM->APBBMASK.reg |= mask;
     154:	4b0a      	ldr	r3, [pc, #40]	; (180 <system_apb_clock_set_mask+0x58>)
     156:	4a0a      	ldr	r2, [pc, #40]	; (180 <system_apb_clock_set_mask+0x58>)
     158:	69d1      	ldr	r1, [r2, #28]
     15a:	683a      	ldr	r2, [r7, #0]
     15c:	430a      	orrs	r2, r1
     15e:	61da      	str	r2, [r3, #28]
			break;
     160:	e008      	b.n	174 <system_apb_clock_set_mask+0x4c>

		case SYSTEM_CLOCK_APB_APBC:
			PM->APBCMASK.reg |= mask;
     162:	4b07      	ldr	r3, [pc, #28]	; (180 <system_apb_clock_set_mask+0x58>)
     164:	4a06      	ldr	r2, [pc, #24]	; (180 <system_apb_clock_set_mask+0x58>)
     166:	6a11      	ldr	r1, [r2, #32]
     168:	683a      	ldr	r2, [r7, #0]
     16a:	430a      	orrs	r2, r1
     16c:	621a      	str	r2, [r3, #32]
			break;
     16e:	e001      	b.n	174 <system_apb_clock_set_mask+0x4c>

		default:
			Assert(false);
			return STATUS_ERR_INVALID_ARG;
     170:	2317      	movs	r3, #23
     172:	e000      	b.n	176 <system_apb_clock_set_mask+0x4e>

	}

	return STATUS_OK;
     174:	2300      	movs	r3, #0
}
     176:	1c18      	adds	r0, r3, #0
     178:	46bd      	mov	sp, r7
     17a:	b002      	add	sp, #8
     17c:	bd80      	pop	{r7, pc}
     17e:	46c0      	nop			; (mov r8, r8)
     180:	40000400 	.word	0x40000400

00000184 <rtc_count_is_syncing>:
 *
 * \retval true  if the module synchronization is ongoing
 * \retval false if the module has completed synchronization
 */
static bool rtc_count_is_syncing(struct rtc_module *const module)
{
     184:	b580      	push	{r7, lr}
     186:	b084      	sub	sp, #16
     188:	af00      	add	r7, sp, #0
     18a:	6078      	str	r0, [r7, #4]
 	/* Sanity check arguments */
	Assert(module);
	Assert(module->hw);

	Rtc *const rtc_module = module->hw;
     18c:	687b      	ldr	r3, [r7, #4]
     18e:	681b      	ldr	r3, [r3, #0]
     190:	60fb      	str	r3, [r7, #12]

        if (rtc_module->MODE0.STATUS.reg & RTC_STATUS_SYNCBUSY) {
     192:	68fb      	ldr	r3, [r7, #12]
     194:	7a9b      	ldrb	r3, [r3, #10]
     196:	b2db      	uxtb	r3, r3
     198:	b2db      	uxtb	r3, r3
     19a:	b25b      	sxtb	r3, r3
     19c:	2b00      	cmp	r3, #0
     19e:	da01      	bge.n	1a4 <rtc_count_is_syncing+0x20>
                return true;
     1a0:	2301      	movs	r3, #1
     1a2:	e000      	b.n	1a6 <rtc_count_is_syncing+0x22>
        }

        return false;
     1a4:	2300      	movs	r3, #0
}
     1a6:	1c18      	adds	r0, r3, #0
     1a8:	46bd      	mov	sp, r7
     1aa:	b004      	add	sp, #16
     1ac:	bd80      	pop	{r7, pc}
     1ae:	46c0      	nop			; (mov r8, r8)

000001b0 <rtc_count_enable>:
 * module configuration parameters cannot be altered while the module is enabled.
 *
 * \param[in,out]  module  RTC hardware module
 */
void rtc_count_enable(struct rtc_module *const module)
{
     1b0:	b580      	push	{r7, lr}
     1b2:	b084      	sub	sp, #16
     1b4:	af00      	add	r7, sp, #0
     1b6:	6078      	str	r0, [r7, #4]
	/* Sanity check arguments */
	Assert(module);
	Assert(module->hw);

	Rtc *const rtc_module = module->hw;
     1b8:	687b      	ldr	r3, [r7, #4]
     1ba:	681b      	ldr	r3, [r3, #0]
     1bc:	60fb      	str	r3, [r7, #12]

#if RTC_COUNT_ASYNC == true
	system_interrupt_enable(SYSTEM_INTERRUPT_MODULE_RTC);
#endif

	while (rtc_count_is_syncing(module)) {
     1be:	46c0      	nop			; (mov r8, r8)
     1c0:	687b      	ldr	r3, [r7, #4]
     1c2:	1c18      	adds	r0, r3, #0
     1c4:	4b07      	ldr	r3, [pc, #28]	; (1e4 <rtc_count_enable+0x34>)
     1c6:	4798      	blx	r3
     1c8:	1e03      	subs	r3, r0, #0
     1ca:	d1f9      	bne.n	1c0 <rtc_count_enable+0x10>
		/* Wait for synchronization */
	}

	/* Enable RTC module. */
	rtc_module->MODE0.CTRL.reg |= RTC_MODE0_CTRL_ENABLE;
     1cc:	68fb      	ldr	r3, [r7, #12]
     1ce:	881b      	ldrh	r3, [r3, #0]
     1d0:	b29b      	uxth	r3, r3
     1d2:	2202      	movs	r2, #2
     1d4:	4313      	orrs	r3, r2
     1d6:	b29a      	uxth	r2, r3
     1d8:	68fb      	ldr	r3, [r7, #12]
     1da:	801a      	strh	r2, [r3, #0]
}
     1dc:	46bd      	mov	sp, r7
     1de:	b004      	add	sp, #16
     1e0:	bd80      	pop	{r7, pc}
     1e2:	46c0      	nop			; (mov r8, r8)
     1e4:	00000185 	.word	0x00000185

000001e8 <rtc_count_disable>:
 * Disables the RTC module.
 *
 * \param[in,out]  module  RTC hardware module
 */
void rtc_count_disable(struct rtc_module *const module)
{
     1e8:	b580      	push	{r7, lr}
     1ea:	b084      	sub	sp, #16
     1ec:	af00      	add	r7, sp, #0
     1ee:	6078      	str	r0, [r7, #4]
	/* Sanity check arguments */
	Assert(module);
	Assert(module->hw);

	Rtc *const rtc_module = module->hw;
     1f0:	687b      	ldr	r3, [r7, #4]
     1f2:	681b      	ldr	r3, [r3, #0]
     1f4:	60fb      	str	r3, [r7, #12]

#if RTC_COUNT_ASYNC == true
	system_interrupt_disable(SYSTEM_INTERRUPT_MODULE_RTC);
#endif

	while (rtc_count_is_syncing(module)) {
     1f6:	46c0      	nop			; (mov r8, r8)
     1f8:	687b      	ldr	r3, [r7, #4]
     1fa:	1c18      	adds	r0, r3, #0
     1fc:	4b07      	ldr	r3, [pc, #28]	; (21c <rtc_count_disable+0x34>)
     1fe:	4798      	blx	r3
     200:	1e03      	subs	r3, r0, #0
     202:	d1f9      	bne.n	1f8 <rtc_count_disable+0x10>
		/* Wait for synchronization */
	}

	/* Disable RTC module. */
	rtc_module->MODE0.CTRL.reg &= ~RTC_MODE0_CTRL_ENABLE;
     204:	68fb      	ldr	r3, [r7, #12]
     206:	881b      	ldrh	r3, [r3, #0]
     208:	b29b      	uxth	r3, r3
     20a:	2202      	movs	r2, #2
     20c:	4393      	bics	r3, r2
     20e:	b29a      	uxth	r2, r3
     210:	68fb      	ldr	r3, [r7, #12]
     212:	801a      	strh	r2, [r3, #0]
}
     214:	46bd      	mov	sp, r7
     216:	b004      	add	sp, #16
     218:	bd80      	pop	{r7, pc}
     21a:	46c0      	nop			; (mov r8, r8)
     21c:	00000185 	.word	0x00000185

00000220 <rtc_count_reset>:
 * Resets the RTC to hardware defaults.
 *
 * \param[in,out]  module  Pointer to the software instance struct
 */
void rtc_count_reset(struct rtc_module *const module)
{
     220:	b580      	push	{r7, lr}
     222:	b084      	sub	sp, #16
     224:	af00      	add	r7, sp, #0
     226:	6078      	str	r0, [r7, #4]
	/* Sanity check arguments */
	Assert(module);
	Assert(module->hw);

	Rtc *const rtc_module = module->hw;
     228:	687b      	ldr	r3, [r7, #4]
     22a:	681b      	ldr	r3, [r3, #0]
     22c:	60fb      	str	r3, [r7, #12]

	/* Disable module before reset. */
	rtc_count_disable(module);
     22e:	687b      	ldr	r3, [r7, #4]
     230:	1c18      	adds	r0, r3, #0
     232:	4b0a      	ldr	r3, [pc, #40]	; (25c <rtc_count_reset+0x3c>)
     234:	4798      	blx	r3
#if RTC_COUNT_ASYNC == true
	module->registered_callback = 0;
	module->enabled_callback    = 0;
#endif

	while (rtc_count_is_syncing(module)) {
     236:	46c0      	nop			; (mov r8, r8)
     238:	687b      	ldr	r3, [r7, #4]
     23a:	1c18      	adds	r0, r3, #0
     23c:	4b08      	ldr	r3, [pc, #32]	; (260 <rtc_count_reset+0x40>)
     23e:	4798      	blx	r3
     240:	1e03      	subs	r3, r0, #0
     242:	d1f9      	bne.n	238 <rtc_count_reset+0x18>
		/* Wait for synchronization */
	}

	/* Initiate software reset. */
	rtc_module->MODE0.CTRL.reg |= RTC_MODE0_CTRL_SWRST;
     244:	68fb      	ldr	r3, [r7, #12]
     246:	881b      	ldrh	r3, [r3, #0]
     248:	b29b      	uxth	r3, r3
     24a:	2201      	movs	r2, #1
     24c:	4313      	orrs	r3, r2
     24e:	b29a      	uxth	r2, r3
     250:	68fb      	ldr	r3, [r7, #12]
     252:	801a      	strh	r2, [r3, #0]
}
     254:	46bd      	mov	sp, r7
     256:	b004      	add	sp, #16
     258:	bd80      	pop	{r7, pc}
     25a:	46c0      	nop			; (mov r8, r8)
     25c:	000001e9 	.word	0x000001e9
     260:	00000185 	.word	0x00000185

00000264 <_rtc_count_set_config>:
 * \retval STATUS_ERR_INVALID_ARG  If invalid argument(s) were given.
 */
static enum status_code _rtc_count_set_config(
		struct rtc_module *const module,
		const struct rtc_count_config *const config)
{
     264:	b580      	push	{r7, lr}
     266:	b084      	sub	sp, #16
     268:	af00      	add	r7, sp, #0
     26a:	6078      	str	r0, [r7, #4]
     26c:	6039      	str	r1, [r7, #0]
	/* Sanity check arguments */
	Assert(module);
	Assert(module->hw);

	Rtc *const rtc_module = module->hw;
     26e:	687b      	ldr	r3, [r7, #4]
     270:	681b      	ldr	r3, [r3, #0]
     272:	60bb      	str	r3, [r7, #8]

	rtc_module->MODE0.CTRL.reg = RTC_MODE0_CTRL_MODE(0) | config->prescaler;
     274:	683b      	ldr	r3, [r7, #0]
     276:	881a      	ldrh	r2, [r3, #0]
     278:	68bb      	ldr	r3, [r7, #8]
     27a:	801a      	strh	r2, [r3, #0]

	/* Set mode and clear on match if applicable. */
	switch (config->mode) {
     27c:	683b      	ldr	r3, [r7, #0]
     27e:	789b      	ldrb	r3, [r3, #2]
     280:	2b00      	cmp	r3, #0
     282:	d03c      	beq.n	2fe <_rtc_count_set_config+0x9a>
     284:	2b01      	cmp	r3, #1
     286:	d000      	beq.n	28a <_rtc_count_set_config+0x26>
     288:	e070      	b.n	36c <_rtc_count_set_config+0x108>
		case RTC_COUNT_MODE_32BIT:
			/* Set 32bit mode and clear on match if applicable. */
			rtc_module->MODE0.CTRL.reg |= RTC_MODE0_CTRL_MODE(0);
     28a:	68bb      	ldr	r3, [r7, #8]
     28c:	881b      	ldrh	r3, [r3, #0]
     28e:	b29a      	uxth	r2, r3
     290:	68bb      	ldr	r3, [r7, #8]
     292:	801a      	strh	r2, [r3, #0]

			/* Check if clear on compare match should be set. */
			if (config->clear_on_match) {
     294:	683b      	ldr	r3, [r7, #0]
     296:	78db      	ldrb	r3, [r3, #3]
     298:	2b00      	cmp	r3, #0
     29a:	d007      	beq.n	2ac <_rtc_count_set_config+0x48>
				/* Set clear on match. */
				rtc_module->MODE0.CTRL.reg |= RTC_MODE0_CTRL_MATCHCLR;
     29c:	68bb      	ldr	r3, [r7, #8]
     29e:	881b      	ldrh	r3, [r3, #0]
     2a0:	b29b      	uxth	r3, r3
     2a2:	2280      	movs	r2, #128	; 0x80
     2a4:	4313      	orrs	r3, r2
     2a6:	b29a      	uxth	r2, r3
     2a8:	68bb      	ldr	r3, [r7, #8]
     2aa:	801a      	strh	r2, [r3, #0]
			}
			/* Set compare values. */
			for (uint8_t i = 0; i < RTC_NUM_OF_COMP32; i++) {
     2ac:	230f      	movs	r3, #15
     2ae:	18fb      	adds	r3, r7, r3
     2b0:	2200      	movs	r2, #0
     2b2:	701a      	strb	r2, [r3, #0]
     2b4:	e01d      	b.n	2f2 <_rtc_count_set_config+0x8e>
				while (rtc_count_is_syncing(module)) {
     2b6:	46c0      	nop			; (mov r8, r8)
     2b8:	687b      	ldr	r3, [r7, #4]
     2ba:	1c18      	adds	r0, r3, #0
     2bc:	4b35      	ldr	r3, [pc, #212]	; (394 <_rtc_count_set_config+0x130>)
     2be:	4798      	blx	r3
     2c0:	1e03      	subs	r3, r0, #0
     2c2:	d1f9      	bne.n	2b8 <_rtc_count_set_config+0x54>
					/* Wait for synchronization */
				}

				rtc_count_set_compare(module, config->compare_values[i],
     2c4:	230f      	movs	r3, #15
     2c6:	18fb      	adds	r3, r7, r3
     2c8:	781a      	ldrb	r2, [r3, #0]
     2ca:	683b      	ldr	r3, [r7, #0]
     2cc:	3202      	adds	r2, #2
     2ce:	0092      	lsls	r2, r2, #2
     2d0:	58d2      	ldr	r2, [r2, r3]
     2d2:	6879      	ldr	r1, [r7, #4]
     2d4:	230f      	movs	r3, #15
     2d6:	18fb      	adds	r3, r7, r3
     2d8:	781b      	ldrb	r3, [r3, #0]
     2da:	1c08      	adds	r0, r1, #0
     2dc:	1c11      	adds	r1, r2, #0
     2de:	1c1a      	adds	r2, r3, #0
     2e0:	4b2d      	ldr	r3, [pc, #180]	; (398 <_rtc_count_set_config+0x134>)
     2e2:	4798      	blx	r3
			if (config->clear_on_match) {
				/* Set clear on match. */
				rtc_module->MODE0.CTRL.reg |= RTC_MODE0_CTRL_MATCHCLR;
			}
			/* Set compare values. */
			for (uint8_t i = 0; i < RTC_NUM_OF_COMP32; i++) {
     2e4:	230f      	movs	r3, #15
     2e6:	18fb      	adds	r3, r7, r3
     2e8:	781a      	ldrb	r2, [r3, #0]
     2ea:	230f      	movs	r3, #15
     2ec:	18fb      	adds	r3, r7, r3
     2ee:	3201      	adds	r2, #1
     2f0:	701a      	strb	r2, [r3, #0]
     2f2:	230f      	movs	r3, #15
     2f4:	18fb      	adds	r3, r7, r3
     2f6:	781b      	ldrb	r3, [r3, #0]
     2f8:	2b00      	cmp	r3, #0
     2fa:	d0dc      	beq.n	2b6 <_rtc_count_set_config+0x52>
				}

				rtc_count_set_compare(module, config->compare_values[i],
						(enum rtc_count_compare)i);
			}
			break;
     2fc:	e038      	b.n	370 <_rtc_count_set_config+0x10c>

		case RTC_COUNT_MODE_16BIT:
			/* Set 16bit mode. */
			rtc_module->MODE1.CTRL.reg |= RTC_MODE1_CTRL_MODE(1);
     2fe:	68bb      	ldr	r3, [r7, #8]
     300:	881b      	ldrh	r3, [r3, #0]
     302:	b29b      	uxth	r3, r3
     304:	2204      	movs	r2, #4
     306:	4313      	orrs	r3, r2
     308:	b29a      	uxth	r2, r3
     30a:	68bb      	ldr	r3, [r7, #8]
     30c:	801a      	strh	r2, [r3, #0]

			/* Check if match on clear is set, and return invalid
			 * argument if set. */
			if (config->clear_on_match) {
     30e:	683b      	ldr	r3, [r7, #0]
     310:	78db      	ldrb	r3, [r3, #3]
     312:	2b00      	cmp	r3, #0
     314:	d001      	beq.n	31a <_rtc_count_set_config+0xb6>
				Assert(false);
				return STATUS_ERR_INVALID_ARG;
     316:	2317      	movs	r3, #23
     318:	e038      	b.n	38c <_rtc_count_set_config+0x128>
			}
			/* Set compare values. */
			for (uint8_t i = 0; i < RTC_NUM_OF_COMP16; i++) {
     31a:	230e      	movs	r3, #14
     31c:	18fb      	adds	r3, r7, r3
     31e:	2200      	movs	r2, #0
     320:	701a      	strb	r2, [r3, #0]
     322:	e01d      	b.n	360 <_rtc_count_set_config+0xfc>
				while (rtc_count_is_syncing(module)) {
     324:	46c0      	nop			; (mov r8, r8)
     326:	687b      	ldr	r3, [r7, #4]
     328:	1c18      	adds	r0, r3, #0
     32a:	4b1a      	ldr	r3, [pc, #104]	; (394 <_rtc_count_set_config+0x130>)
     32c:	4798      	blx	r3
     32e:	1e03      	subs	r3, r0, #0
     330:	d1f9      	bne.n	326 <_rtc_count_set_config+0xc2>
					/* Wait for synchronization */
				}

				rtc_count_set_compare(module, config->compare_values[i],
     332:	230e      	movs	r3, #14
     334:	18fb      	adds	r3, r7, r3
     336:	781a      	ldrb	r2, [r3, #0]
     338:	683b      	ldr	r3, [r7, #0]
     33a:	3202      	adds	r2, #2
     33c:	0092      	lsls	r2, r2, #2
     33e:	58d2      	ldr	r2, [r2, r3]
     340:	6879      	ldr	r1, [r7, #4]
     342:	230e      	movs	r3, #14
     344:	18fb      	adds	r3, r7, r3
     346:	781b      	ldrb	r3, [r3, #0]
     348:	1c08      	adds	r0, r1, #0
     34a:	1c11      	adds	r1, r2, #0
     34c:	1c1a      	adds	r2, r3, #0
     34e:	4b12      	ldr	r3, [pc, #72]	; (398 <_rtc_count_set_config+0x134>)
     350:	4798      	blx	r3
			if (config->clear_on_match) {
				Assert(false);
				return STATUS_ERR_INVALID_ARG;
			}
			/* Set compare values. */
			for (uint8_t i = 0; i < RTC_NUM_OF_COMP16; i++) {
     352:	230e      	movs	r3, #14
     354:	18fb      	adds	r3, r7, r3
     356:	781a      	ldrb	r2, [r3, #0]
     358:	230e      	movs	r3, #14
     35a:	18fb      	adds	r3, r7, r3
     35c:	3201      	adds	r2, #1
     35e:	701a      	strb	r2, [r3, #0]
     360:	230e      	movs	r3, #14
     362:	18fb      	adds	r3, r7, r3
     364:	781b      	ldrb	r3, [r3, #0]
     366:	2b01      	cmp	r3, #1
     368:	d9dc      	bls.n	324 <_rtc_count_set_config+0xc0>
				}

				rtc_count_set_compare(module, config->compare_values[i],
						(enum rtc_count_compare)i);
			}
			break;
     36a:	e001      	b.n	370 <_rtc_count_set_config+0x10c>
		default:
			Assert(false);
			return STATUS_ERR_INVALID_ARG;
     36c:	2317      	movs	r3, #23
     36e:	e00d      	b.n	38c <_rtc_count_set_config+0x128>
	}

	/* Check to set continuously clock read update mode. */
	if (config->continuously_update) {
     370:	683b      	ldr	r3, [r7, #0]
     372:	791b      	ldrb	r3, [r3, #4]
     374:	2b00      	cmp	r3, #0
     376:	d008      	beq.n	38a <_rtc_count_set_config+0x126>
		/* Set continuously mode. */
		rtc_module->MODE0.READREQ.reg |= RTC_READREQ_RCONT;
     378:	68bb      	ldr	r3, [r7, #8]
     37a:	885b      	ldrh	r3, [r3, #2]
     37c:	b29b      	uxth	r3, r3
     37e:	2280      	movs	r2, #128	; 0x80
     380:	01d2      	lsls	r2, r2, #7
     382:	4313      	orrs	r3, r2
     384:	b29a      	uxth	r2, r3
     386:	68bb      	ldr	r3, [r7, #8]
     388:	805a      	strh	r2, [r3, #2]
	}

	/* Return status OK if everything was configured. */
	return STATUS_OK;
     38a:	2300      	movs	r3, #0
}
     38c:	1c18      	adds	r0, r3, #0
     38e:	46bd      	mov	sp, r7
     390:	b004      	add	sp, #16
     392:	bd80      	pop	{r7, pc}
     394:	00000185 	.word	0x00000185
     398:	000004f5 	.word	0x000004f5

0000039c <rtc_count_init>:
 */
enum status_code rtc_count_init(
		struct rtc_module *const module,
		Rtc *const hw,
		const struct rtc_count_config *const config)
{
     39c:	b580      	push	{r7, lr}
     39e:	b086      	sub	sp, #24
     3a0:	af00      	add	r7, sp, #0
     3a2:	60f8      	str	r0, [r7, #12]
     3a4:	60b9      	str	r1, [r7, #8]
     3a6:	607a      	str	r2, [r7, #4]
	Assert(module);
	Assert(hw);
	Assert(config);

	/* Initialize device instance */
	module->hw = hw;
     3a8:	68fb      	ldr	r3, [r7, #12]
     3aa:	68ba      	ldr	r2, [r7, #8]
     3ac:	601a      	str	r2, [r3, #0]

	/* Turn on the digital interface clock */
	system_apb_clock_set_mask(SYSTEM_CLOCK_APB_APBA, PM_APBAMASK_RTC);
     3ae:	2000      	movs	r0, #0
     3b0:	2120      	movs	r1, #32
     3b2:	4b17      	ldr	r3, [pc, #92]	; (410 <rtc_count_init+0x74>)
     3b4:	4798      	blx	r3

	/* Set up GCLK */
	struct system_gclk_chan_config gclk_chan_conf;
	system_gclk_chan_get_config_defaults(&gclk_chan_conf);
     3b6:	2314      	movs	r3, #20
     3b8:	18fb      	adds	r3, r7, r3
     3ba:	1c18      	adds	r0, r3, #0
     3bc:	4b15      	ldr	r3, [pc, #84]	; (414 <rtc_count_init+0x78>)
     3be:	4798      	blx	r3
	gclk_chan_conf.source_generator = GCLK_GENERATOR_2;
     3c0:	2314      	movs	r3, #20
     3c2:	18fb      	adds	r3, r7, r3
     3c4:	2202      	movs	r2, #2
     3c6:	701a      	strb	r2, [r3, #0]
	system_gclk_chan_set_config(RTC_GCLK_ID, &gclk_chan_conf);
     3c8:	2314      	movs	r3, #20
     3ca:	18fb      	adds	r3, r7, r3
     3cc:	2004      	movs	r0, #4
     3ce:	1c19      	adds	r1, r3, #0
     3d0:	4b11      	ldr	r3, [pc, #68]	; (418 <rtc_count_init+0x7c>)
     3d2:	4798      	blx	r3
	system_gclk_chan_enable(RTC_GCLK_ID);
     3d4:	2004      	movs	r0, #4
     3d6:	4b11      	ldr	r3, [pc, #68]	; (41c <rtc_count_init+0x80>)
     3d8:	4798      	blx	r3

	/* Reset module to hardware defaults. */
	rtc_count_reset(module);
     3da:	68fb      	ldr	r3, [r7, #12]
     3dc:	1c18      	adds	r0, r3, #0
     3de:	4b10      	ldr	r3, [pc, #64]	; (420 <rtc_count_init+0x84>)
     3e0:	4798      	blx	r3

	/* Save conf_struct internally for continued use. */
	module->mode                = config->mode;
     3e2:	687b      	ldr	r3, [r7, #4]
     3e4:	789a      	ldrb	r2, [r3, #2]
     3e6:	68fb      	ldr	r3, [r7, #12]
     3e8:	711a      	strb	r2, [r3, #4]
	module->continuously_update = config->continuously_update;
     3ea:	687b      	ldr	r3, [r7, #4]
     3ec:	791a      	ldrb	r2, [r3, #4]
     3ee:	68fb      	ldr	r3, [r7, #12]
     3f0:	715a      	strb	r2, [r3, #5]

#  if (RTC_INST_NUM == 1)
	_rtc_instance[0] = module;
     3f2:	4b0c      	ldr	r3, [pc, #48]	; (424 <rtc_count_init+0x88>)
     3f4:	68fa      	ldr	r2, [r7, #12]
     3f6:	601a      	str	r2, [r3, #0]
	/* Register this instance for callbacks*/
	_rtc_instance[_rtc_get_inst_index(hw)] = module;
#  endif

	/* Set config and return status. */
	return _rtc_count_set_config(module, config);
     3f8:	68fa      	ldr	r2, [r7, #12]
     3fa:	687b      	ldr	r3, [r7, #4]
     3fc:	1c10      	adds	r0, r2, #0
     3fe:	1c19      	adds	r1, r3, #0
     400:	4b09      	ldr	r3, [pc, #36]	; (428 <rtc_count_init+0x8c>)
     402:	4798      	blx	r3
     404:	1c03      	adds	r3, r0, #0
}
     406:	1c18      	adds	r0, r3, #0
     408:	46bd      	mov	sp, r7
     40a:	b006      	add	sp, #24
     40c:	bd80      	pop	{r7, pc}
     40e:	46c0      	nop			; (mov r8, r8)
     410:	00000129 	.word	0x00000129
     414:	00000115 	.word	0x00000115
     418:	00004c01 	.word	0x00004c01
     41c:	00004c45 	.word	0x00004c45
     420:	00000221 	.word	0x00000221
     424:	200001b4 	.word	0x200001b4
     428:	00000265 	.word	0x00000265

0000042c <rtc_count_set_count>:
 * \retval STATUS_ERR_INVALID_ARG  If invalid argument(s) were provided
 */
enum status_code rtc_count_set_count(
		struct rtc_module *const module,
		const uint32_t count_value)
{
     42c:	b580      	push	{r7, lr}
     42e:	b084      	sub	sp, #16
     430:	af00      	add	r7, sp, #0
     432:	6078      	str	r0, [r7, #4]
     434:	6039      	str	r1, [r7, #0]
	/* Sanity check arguments */
	Assert(module);
	Assert(module->hw);

	Rtc *const rtc_module = module->hw;
     436:	687b      	ldr	r3, [r7, #4]
     438:	681b      	ldr	r3, [r3, #0]
     43a:	60fb      	str	r3, [r7, #12]

	while (rtc_count_is_syncing(module)) {
     43c:	46c0      	nop			; (mov r8, r8)
     43e:	687b      	ldr	r3, [r7, #4]
     440:	1c18      	adds	r0, r3, #0
     442:	4b10      	ldr	r3, [pc, #64]	; (484 <rtc_count_set_count+0x58>)
     444:	4798      	blx	r3
     446:	1e03      	subs	r3, r0, #0
     448:	d1f9      	bne.n	43e <rtc_count_set_count+0x12>
		/* Wait for synchronization */
	}

	/* Set count according to mode */
	switch(module->mode){
     44a:	687b      	ldr	r3, [r7, #4]
     44c:	791b      	ldrb	r3, [r3, #4]
     44e:	2b00      	cmp	r3, #0
     450:	d005      	beq.n	45e <rtc_count_set_count+0x32>
     452:	2b01      	cmp	r3, #1
     454:	d10e      	bne.n	474 <rtc_count_set_count+0x48>
		case RTC_COUNT_MODE_32BIT:
			/* Write value to register. */
			rtc_module->MODE0.COUNT.reg = count_value;
     456:	68fb      	ldr	r3, [r7, #12]
     458:	683a      	ldr	r2, [r7, #0]
     45a:	611a      	str	r2, [r3, #16]

			break;
     45c:	e00c      	b.n	478 <rtc_count_set_count+0x4c>

		case RTC_COUNT_MODE_16BIT:
			/* Check if 16-bit value is provided. */
			if(count_value > 0xffff){
     45e:	683b      	ldr	r3, [r7, #0]
     460:	4a09      	ldr	r2, [pc, #36]	; (488 <rtc_count_set_count+0x5c>)
     462:	4293      	cmp	r3, r2
     464:	d901      	bls.n	46a <rtc_count_set_count+0x3e>
				return STATUS_ERR_INVALID_ARG;
     466:	2317      	movs	r3, #23
     468:	e007      	b.n	47a <rtc_count_set_count+0x4e>
			}

			/* Write value to register. */
			rtc_module->MODE1.COUNT.reg = (uint32_t)count_value;
     46a:	683b      	ldr	r3, [r7, #0]
     46c:	b29a      	uxth	r2, r3
     46e:	68fb      	ldr	r3, [r7, #12]
     470:	821a      	strh	r2, [r3, #16]

			break;
     472:	e001      	b.n	478 <rtc_count_set_count+0x4c>

		default:
			Assert(false);
			return STATUS_ERR_INVALID_ARG;
     474:	2317      	movs	r3, #23
     476:	e000      	b.n	47a <rtc_count_set_count+0x4e>
	}
	return STATUS_OK;
     478:	2300      	movs	r3, #0
}
     47a:	1c18      	adds	r0, r3, #0
     47c:	46bd      	mov	sp, r7
     47e:	b004      	add	sp, #16
     480:	bd80      	pop	{r7, pc}
     482:	46c0      	nop			; (mov r8, r8)
     484:	00000185 	.word	0x00000185
     488:	0000ffff 	.word	0x0000ffff

0000048c <rtc_count_get_count>:
 * Returns the current count value.
 *
 * \return The current counter value as a 32-bit unsigned integer.
 */
uint32_t rtc_count_get_count(struct rtc_module *const module)
{
     48c:	b580      	push	{r7, lr}
     48e:	b084      	sub	sp, #16
     490:	af00      	add	r7, sp, #0
     492:	6078      	str	r0, [r7, #4]
	/* Sanity check arguments */
	Assert(module);
	Assert(module->hw);

	Rtc *const rtc_module = module->hw;
     494:	687b      	ldr	r3, [r7, #4]
     496:	681b      	ldr	r3, [r3, #0]
     498:	60bb      	str	r3, [r7, #8]
	/* Initialize return value. */
	uint32_t ret_val;

	/* Change of read method based on value of continuously_update value in
	 * the configuration structure. */
	if(!(module->continuously_update)) {
     49a:	687b      	ldr	r3, [r7, #4]
     49c:	795b      	ldrb	r3, [r3, #5]
     49e:	2201      	movs	r2, #1
     4a0:	4053      	eors	r3, r2
     4a2:	b2db      	uxtb	r3, r3
     4a4:	2b00      	cmp	r3, #0
     4a6:	d009      	beq.n	4bc <rtc_count_get_count+0x30>
		/* Request read on count register. */
		rtc_module->MODE0.READREQ.reg = RTC_READREQ_RREQ;
     4a8:	68bb      	ldr	r3, [r7, #8]
     4aa:	4a10      	ldr	r2, [pc, #64]	; (4ec <rtc_count_get_count+0x60>)
     4ac:	805a      	strh	r2, [r3, #2]

		while (rtc_count_is_syncing(module)) {
     4ae:	46c0      	nop			; (mov r8, r8)
     4b0:	687b      	ldr	r3, [r7, #4]
     4b2:	1c18      	adds	r0, r3, #0
     4b4:	4b0e      	ldr	r3, [pc, #56]	; (4f0 <rtc_count_get_count+0x64>)
     4b6:	4798      	blx	r3
     4b8:	1e03      	subs	r3, r0, #0
     4ba:	d1f9      	bne.n	4b0 <rtc_count_get_count+0x24>
			/* Wait for synchronization */
		}
	}

	/* Read value based on mode. */
	switch (module->mode) {
     4bc:	687b      	ldr	r3, [r7, #4]
     4be:	791b      	ldrb	r3, [r3, #4]
     4c0:	2b00      	cmp	r3, #0
     4c2:	d005      	beq.n	4d0 <rtc_count_get_count+0x44>
     4c4:	2b01      	cmp	r3, #1
     4c6:	d108      	bne.n	4da <rtc_count_get_count+0x4e>
		case RTC_COUNT_MODE_32BIT:
			/* Return count value in 32-bit mode. */
			ret_val = rtc_module->MODE0.COUNT.reg;
     4c8:	68bb      	ldr	r3, [r7, #8]
     4ca:	691b      	ldr	r3, [r3, #16]
     4cc:	60fb      	str	r3, [r7, #12]

			break;
     4ce:	e007      	b.n	4e0 <rtc_count_get_count+0x54>

		case RTC_COUNT_MODE_16BIT:
			/* Return count value in 16-bit mode. */
			ret_val = (uint32_t)rtc_module->MODE1.COUNT.reg;
     4d0:	68bb      	ldr	r3, [r7, #8]
     4d2:	8a1b      	ldrh	r3, [r3, #16]
     4d4:	b29b      	uxth	r3, r3
     4d6:	60fb      	str	r3, [r7, #12]

			break;
     4d8:	e002      	b.n	4e0 <rtc_count_get_count+0x54>

		default:
			Assert(false);
			/* Counter not initialized. Assume counter value 0.*/
			ret_val = 0;
     4da:	2300      	movs	r3, #0
     4dc:	60fb      	str	r3, [r7, #12]
			break;
     4de:	46c0      	nop			; (mov r8, r8)
	}

	return ret_val;
     4e0:	68fb      	ldr	r3, [r7, #12]
}
     4e2:	1c18      	adds	r0, r3, #0
     4e4:	46bd      	mov	sp, r7
     4e6:	b004      	add	sp, #16
     4e8:	bd80      	pop	{r7, pc}
     4ea:	46c0      	nop			; (mov r8, r8)
     4ec:	ffff8000 	.word	0xffff8000
     4f0:	00000185 	.word	0x00000185

000004f4 <rtc_count_set_compare>:
 */
enum status_code rtc_count_set_compare(
		struct rtc_module *const module,
		const uint32_t comp_value,
		const enum rtc_count_compare comp_index)
{
     4f4:	b580      	push	{r7, lr}
     4f6:	b086      	sub	sp, #24
     4f8:	af00      	add	r7, sp, #0
     4fa:	60f8      	str	r0, [r7, #12]
     4fc:	60b9      	str	r1, [r7, #8]
     4fe:	1dfb      	adds	r3, r7, #7
     500:	701a      	strb	r2, [r3, #0]
	/* Sanity check arguments */
	Assert(module);
	Assert(module->hw);

	Rtc *const rtc_module = module->hw;
     502:	68fb      	ldr	r3, [r7, #12]
     504:	681b      	ldr	r3, [r3, #0]
     506:	617b      	str	r3, [r7, #20]

	while (rtc_count_is_syncing(module)) {
     508:	46c0      	nop			; (mov r8, r8)
     50a:	68fb      	ldr	r3, [r7, #12]
     50c:	1c18      	adds	r0, r3, #0
     50e:	4b1a      	ldr	r3, [pc, #104]	; (578 <rtc_count_set_compare+0x84>)
     510:	4798      	blx	r3
     512:	1e03      	subs	r3, r0, #0
     514:	d1f9      	bne.n	50a <rtc_count_set_compare+0x16>
		/* Wait for synchronization */
	}

	/* Set compare values based on operation mode. */
	switch (module->mode) {
     516:	68fb      	ldr	r3, [r7, #12]
     518:	791b      	ldrb	r3, [r3, #4]
     51a:	2b00      	cmp	r3, #0
     51c:	d00f      	beq.n	53e <rtc_count_set_compare+0x4a>
     51e:	2b01      	cmp	r3, #1
     520:	d122      	bne.n	568 <rtc_count_set_compare+0x74>
		case RTC_COUNT_MODE_32BIT:
			/* Check sanity of comp_index. */
			if ((uint32_t)comp_index > RTC_NUM_OF_COMP32) {
     522:	1dfb      	adds	r3, r7, #7
     524:	781b      	ldrb	r3, [r3, #0]
     526:	2b01      	cmp	r3, #1
     528:	d901      	bls.n	52e <rtc_count_set_compare+0x3a>
				return STATUS_ERR_INVALID_ARG;
     52a:	2317      	movs	r3, #23
     52c:	e01f      	b.n	56e <rtc_count_set_compare+0x7a>
			}

			/* Set compare value for COMP. */
			rtc_module->MODE0.COMP[comp_index].reg = comp_value;
     52e:	1dfb      	adds	r3, r7, #7
     530:	781a      	ldrb	r2, [r3, #0]
     532:	697b      	ldr	r3, [r7, #20]
     534:	3206      	adds	r2, #6
     536:	0092      	lsls	r2, r2, #2
     538:	68b9      	ldr	r1, [r7, #8]
     53a:	50d1      	str	r1, [r2, r3]

			break;
     53c:	e016      	b.n	56c <rtc_count_set_compare+0x78>

		case RTC_COUNT_MODE_16BIT:
			/* Check sanity of comp_index. */
			if ((uint32_t)comp_index > RTC_NUM_OF_COMP16) {
     53e:	1dfb      	adds	r3, r7, #7
     540:	781b      	ldrb	r3, [r3, #0]
     542:	2b02      	cmp	r3, #2
     544:	d901      	bls.n	54a <rtc_count_set_compare+0x56>
				return STATUS_ERR_INVALID_ARG;
     546:	2317      	movs	r3, #23
     548:	e011      	b.n	56e <rtc_count_set_compare+0x7a>
			}

			/* Check that 16-bit value is provided. */
			if (comp_value > 0xffff) {
     54a:	68bb      	ldr	r3, [r7, #8]
     54c:	4a0b      	ldr	r2, [pc, #44]	; (57c <rtc_count_set_compare+0x88>)
     54e:	4293      	cmp	r3, r2
     550:	d901      	bls.n	556 <rtc_count_set_compare+0x62>
				Assert(false);
				return STATUS_ERR_INVALID_ARG;
     552:	2317      	movs	r3, #23
     554:	e00b      	b.n	56e <rtc_count_set_compare+0x7a>
			}

			/* Set compare value for COMP. */
			rtc_module->MODE1.COMP[comp_index].reg = comp_value & 0xffff;
     556:	1dfb      	adds	r3, r7, #7
     558:	781a      	ldrb	r2, [r3, #0]
     55a:	68bb      	ldr	r3, [r7, #8]
     55c:	b299      	uxth	r1, r3
     55e:	697b      	ldr	r3, [r7, #20]
     560:	320c      	adds	r2, #12
     562:	0052      	lsls	r2, r2, #1
     564:	52d1      	strh	r1, [r2, r3]

			break;
     566:	e001      	b.n	56c <rtc_count_set_compare+0x78>

		default:
			Assert(false);
			return STATUS_ERR_BAD_FORMAT;
     568:	231a      	movs	r3, #26
     56a:	e000      	b.n	56e <rtc_count_set_compare+0x7a>
	}

	/* Return status if everything is OK. */
	return STATUS_OK;
     56c:	2300      	movs	r3, #0
}
     56e:	1c18      	adds	r0, r3, #0
     570:	46bd      	mov	sp, r7
     572:	b006      	add	sp, #24
     574:	bd80      	pop	{r7, pc}
     576:	46c0      	nop			; (mov r8, r8)
     578:	00000185 	.word	0x00000185
     57c:	0000ffff 	.word	0x0000ffff

00000580 <rtc_count_set_period>:
 * \retval STATUS_ERR_UNSUPPORTED_DEV  If module is not operated in 16-bit mode
 */
enum status_code rtc_count_set_period(
		struct rtc_module *const module,
		const uint16_t period_value)
{
     580:	b580      	push	{r7, lr}
     582:	b084      	sub	sp, #16
     584:	af00      	add	r7, sp, #0
     586:	6078      	str	r0, [r7, #4]
     588:	1c0a      	adds	r2, r1, #0
     58a:	1cbb      	adds	r3, r7, #2
     58c:	801a      	strh	r2, [r3, #0]
	/* Sanity check arguments */
	Assert(module);
	Assert(module->hw);

	Rtc *const rtc_module = module->hw;
     58e:	687b      	ldr	r3, [r7, #4]
     590:	681b      	ldr	r3, [r3, #0]
     592:	60fb      	str	r3, [r7, #12]

	/* Check that correct mode is set. */
	if (module->mode != RTC_COUNT_MODE_16BIT) {
     594:	687b      	ldr	r3, [r7, #4]
     596:	791b      	ldrb	r3, [r3, #4]
     598:	2b00      	cmp	r3, #0
     59a:	d001      	beq.n	5a0 <rtc_count_set_period+0x20>
		return STATUS_ERR_UNSUPPORTED_DEV;
     59c:	2315      	movs	r3, #21
     59e:	e00b      	b.n	5b8 <rtc_count_set_period+0x38>
	}

	while (rtc_count_is_syncing(module)) {
     5a0:	46c0      	nop			; (mov r8, r8)
     5a2:	687b      	ldr	r3, [r7, #4]
     5a4:	1c18      	adds	r0, r3, #0
     5a6:	4b06      	ldr	r3, [pc, #24]	; (5c0 <rtc_count_set_period+0x40>)
     5a8:	4798      	blx	r3
     5aa:	1e03      	subs	r3, r0, #0
     5ac:	d1f9      	bne.n	5a2 <rtc_count_set_period+0x22>
		/* Wait for synchronization */
	}

	/* Write value to register. */
	rtc_module->MODE1.PER.reg = period_value;
     5ae:	68fb      	ldr	r3, [r7, #12]
     5b0:	1cba      	adds	r2, r7, #2
     5b2:	8812      	ldrh	r2, [r2, #0]
     5b4:	829a      	strh	r2, [r3, #20]

	return STATUS_OK;
     5b6:	2300      	movs	r3, #0
}
     5b8:	1c18      	adds	r0, r3, #0
     5ba:	46bd      	mov	sp, r7
     5bc:	b004      	add	sp, #16
     5be:	bd80      	pop	{r7, pc}
     5c0:	00000185 	.word	0x00000185

000005c4 <system_gclk_chan_get_config_defaults>:
 *
 * \param[out] config  Configuration structure to initialize to default values
 */
static inline void system_gclk_chan_get_config_defaults(
		struct system_gclk_chan_config *const config)
{
     5c4:	b580      	push	{r7, lr}
     5c6:	b082      	sub	sp, #8
     5c8:	af00      	add	r7, sp, #0
     5ca:	6078      	str	r0, [r7, #4]
	/* Sanity check arguments */
	Assert(config);

	/* Default configuration values */
	config->source_generator = GCLK_GENERATOR_0;
     5cc:	687b      	ldr	r3, [r7, #4]
     5ce:	2200      	movs	r2, #0
     5d0:	701a      	strb	r2, [r3, #0]
}
     5d2:	46bd      	mov	sp, r7
     5d4:	b002      	add	sp, #8
     5d6:	bd80      	pop	{r7, pc}

000005d8 <_sercom_get_sync_baud_val>:
 */
enum status_code _sercom_get_sync_baud_val(
		const uint32_t baudrate,
		const uint32_t external_clock,
		uint16_t *const baudvalue)
{
     5d8:	b580      	push	{r7, lr}
     5da:	b086      	sub	sp, #24
     5dc:	af00      	add	r7, sp, #0
     5de:	60f8      	str	r0, [r7, #12]
     5e0:	60b9      	str	r1, [r7, #8]
     5e2:	607a      	str	r2, [r7, #4]
	/* Baud value variable */
	uint16_t baud_calculated = 0;
     5e4:	2316      	movs	r3, #22
     5e6:	18fb      	adds	r3, r7, r3
     5e8:	2200      	movs	r2, #0
     5ea:	801a      	strh	r2, [r3, #0]
	uint32_t clock_value = external_clock;
     5ec:	68bb      	ldr	r3, [r7, #8]
     5ee:	613b      	str	r3, [r7, #16]


	/* Check if baudrate is outside of valid range */
	if (baudrate > (external_clock / 2)) {
     5f0:	68bb      	ldr	r3, [r7, #8]
     5f2:	085a      	lsrs	r2, r3, #1
     5f4:	68fb      	ldr	r3, [r7, #12]
     5f6:	429a      	cmp	r2, r3
     5f8:	d201      	bcs.n	5fe <_sercom_get_sync_baud_val+0x26>
		/* Return with error code */
		return STATUS_ERR_BAUDRATE_UNAVAILABLE;
     5fa:	2340      	movs	r3, #64	; 0x40
     5fc:	e026      	b.n	64c <_sercom_get_sync_baud_val+0x74>
	}

	/* Calculate BAUD value from clock frequency and baudrate */
	clock_value = external_clock / 2;
     5fe:	68bb      	ldr	r3, [r7, #8]
     600:	085b      	lsrs	r3, r3, #1
     602:	613b      	str	r3, [r7, #16]
	while (clock_value >= baudrate) {
     604:	e00a      	b.n	61c <_sercom_get_sync_baud_val+0x44>
		clock_value = clock_value - baudrate;
     606:	693a      	ldr	r2, [r7, #16]
     608:	68fb      	ldr	r3, [r7, #12]
     60a:	1ad3      	subs	r3, r2, r3
     60c:	613b      	str	r3, [r7, #16]
		baud_calculated++;
     60e:	2316      	movs	r3, #22
     610:	18fb      	adds	r3, r7, r3
     612:	881a      	ldrh	r2, [r3, #0]
     614:	2316      	movs	r3, #22
     616:	18fb      	adds	r3, r7, r3
     618:	3201      	adds	r2, #1
     61a:	801a      	strh	r2, [r3, #0]
		return STATUS_ERR_BAUDRATE_UNAVAILABLE;
	}

	/* Calculate BAUD value from clock frequency and baudrate */
	clock_value = external_clock / 2;
	while (clock_value >= baudrate) {
     61c:	693a      	ldr	r2, [r7, #16]
     61e:	68fb      	ldr	r3, [r7, #12]
     620:	429a      	cmp	r2, r3
     622:	d2f0      	bcs.n	606 <_sercom_get_sync_baud_val+0x2e>
		clock_value = clock_value - baudrate;
		baud_calculated++;
	}
	baud_calculated = baud_calculated - 1;
     624:	2316      	movs	r3, #22
     626:	18fb      	adds	r3, r7, r3
     628:	2216      	movs	r2, #22
     62a:	18ba      	adds	r2, r7, r2
     62c:	8812      	ldrh	r2, [r2, #0]
     62e:	3a01      	subs	r2, #1
     630:	801a      	strh	r2, [r3, #0]

	/* Check if BAUD value is more than 255, which is maximum
	 * for synchronous mode */
	if (baud_calculated > 0xFF) {
     632:	2316      	movs	r3, #22
     634:	18fb      	adds	r3, r7, r3
     636:	881b      	ldrh	r3, [r3, #0]
     638:	2bff      	cmp	r3, #255	; 0xff
     63a:	d901      	bls.n	640 <_sercom_get_sync_baud_val+0x68>
		/* Return with an error code */
		return STATUS_ERR_BAUDRATE_UNAVAILABLE;
     63c:	2340      	movs	r3, #64	; 0x40
     63e:	e005      	b.n	64c <_sercom_get_sync_baud_val+0x74>
	} else {
		*baudvalue = baud_calculated;
     640:	687b      	ldr	r3, [r7, #4]
     642:	2216      	movs	r2, #22
     644:	18ba      	adds	r2, r7, r2
     646:	8812      	ldrh	r2, [r2, #0]
     648:	801a      	strh	r2, [r3, #0]
		return STATUS_OK;
     64a:	2300      	movs	r3, #0
	}
}
     64c:	1c18      	adds	r0, r3, #0
     64e:	46bd      	mov	sp, r7
     650:	b006      	add	sp, #24
     652:	bd80      	pop	{r7, pc}

00000654 <sercom_set_gclk_generator>:
 *                                         forced.
 */
enum status_code sercom_set_gclk_generator(
		const enum gclk_generator generator_source,
		const bool force_change)
{
     654:	b580      	push	{r7, lr}
     656:	b084      	sub	sp, #16
     658:	af00      	add	r7, sp, #0
     65a:	1c02      	adds	r2, r0, #0
     65c:	1dfb      	adds	r3, r7, #7
     65e:	701a      	strb	r2, [r3, #0]
     660:	1dbb      	adds	r3, r7, #6
     662:	1c0a      	adds	r2, r1, #0
     664:	701a      	strb	r2, [r3, #0]
	/* Check if valid option */
	if (!_sercom_config.generator_is_set || force_change) {
     666:	4b1a      	ldr	r3, [pc, #104]	; (6d0 <sercom_set_gclk_generator+0x7c>)
     668:	781b      	ldrb	r3, [r3, #0]
     66a:	2201      	movs	r2, #1
     66c:	4053      	eors	r3, r2
     66e:	b2db      	uxtb	r3, r3
     670:	2b00      	cmp	r3, #0
     672:	d103      	bne.n	67c <sercom_set_gclk_generator+0x28>
     674:	1dbb      	adds	r3, r7, #6
     676:	781b      	ldrb	r3, [r3, #0]
     678:	2b00      	cmp	r3, #0
     67a:	d01b      	beq.n	6b4 <sercom_set_gclk_generator+0x60>
		/* Create and fill a GCLK configuration structure for the new config */
		struct system_gclk_chan_config gclk_chan_conf;
		system_gclk_chan_get_config_defaults(&gclk_chan_conf);
     67c:	230c      	movs	r3, #12
     67e:	18fb      	adds	r3, r7, r3
     680:	1c18      	adds	r0, r3, #0
     682:	4b14      	ldr	r3, [pc, #80]	; (6d4 <sercom_set_gclk_generator+0x80>)
     684:	4798      	blx	r3
		gclk_chan_conf.source_generator = generator_source;
     686:	230c      	movs	r3, #12
     688:	18fb      	adds	r3, r7, r3
     68a:	1dfa      	adds	r2, r7, #7
     68c:	7812      	ldrb	r2, [r2, #0]
     68e:	701a      	strb	r2, [r3, #0]
		system_gclk_chan_set_config(SERCOM_GCLK_ID, &gclk_chan_conf);
     690:	230c      	movs	r3, #12
     692:	18fb      	adds	r3, r7, r3
     694:	2013      	movs	r0, #19
     696:	1c19      	adds	r1, r3, #0
     698:	4b0f      	ldr	r3, [pc, #60]	; (6d8 <sercom_set_gclk_generator+0x84>)
     69a:	4798      	blx	r3
		system_gclk_chan_enable(SERCOM_GCLK_ID);
     69c:	2013      	movs	r0, #19
     69e:	4b0f      	ldr	r3, [pc, #60]	; (6dc <sercom_set_gclk_generator+0x88>)
     6a0:	4798      	blx	r3

		/* Save config */
		_sercom_config.generator_source = generator_source;
     6a2:	4b0b      	ldr	r3, [pc, #44]	; (6d0 <sercom_set_gclk_generator+0x7c>)
     6a4:	1dfa      	adds	r2, r7, #7
     6a6:	7812      	ldrb	r2, [r2, #0]
     6a8:	705a      	strb	r2, [r3, #1]
		_sercom_config.generator_is_set = true;
     6aa:	4b09      	ldr	r3, [pc, #36]	; (6d0 <sercom_set_gclk_generator+0x7c>)
     6ac:	2201      	movs	r2, #1
     6ae:	701a      	strb	r2, [r3, #0]

		return STATUS_OK;
     6b0:	2300      	movs	r3, #0
     6b2:	e008      	b.n	6c6 <sercom_set_gclk_generator+0x72>
	} else if (generator_source == _sercom_config.generator_source) {
     6b4:	4b06      	ldr	r3, [pc, #24]	; (6d0 <sercom_set_gclk_generator+0x7c>)
     6b6:	785b      	ldrb	r3, [r3, #1]
     6b8:	1dfa      	adds	r2, r7, #7
     6ba:	7812      	ldrb	r2, [r2, #0]
     6bc:	429a      	cmp	r2, r3
     6be:	d101      	bne.n	6c4 <sercom_set_gclk_generator+0x70>
		/* Return status OK if same config */
		return STATUS_OK;
     6c0:	2300      	movs	r3, #0
     6c2:	e000      	b.n	6c6 <sercom_set_gclk_generator+0x72>
	}

	/* Return invalid config to already initialized GCLK */
	return STATUS_ERR_ALREADY_INITIALIZED;
     6c4:	231d      	movs	r3, #29
}
     6c6:	1c18      	adds	r0, r3, #0
     6c8:	46bd      	mov	sp, r7
     6ca:	b004      	add	sp, #16
     6cc:	bd80      	pop	{r7, pc}
     6ce:	46c0      	nop			; (mov r8, r8)
     6d0:	200000f8 	.word	0x200000f8
     6d4:	000005c5 	.word	0x000005c5
     6d8:	00004c01 	.word	0x00004c01
     6dc:	00004c45 	.word	0x00004c45

000006e0 <_sercom_get_default_pad>:
 *
 */
uint32_t _sercom_get_default_pad(
		Sercom *const sercom_module,
		const uint8_t pad)
{
     6e0:	b580      	push	{r7, lr}
     6e2:	b082      	sub	sp, #8
     6e4:	af00      	add	r7, sp, #0
     6e6:	6078      	str	r0, [r7, #4]
     6e8:	1c0a      	adds	r2, r1, #0
     6ea:	1cfb      	adds	r3, r7, #3
     6ec:	701a      	strb	r2, [r3, #0]
	switch ((uintptr_t)sercom_module) {
     6ee:	687b      	ldr	r3, [r7, #4]
     6f0:	4a4d      	ldr	r2, [pc, #308]	; (828 <_sercom_get_default_pad+0x148>)
     6f2:	4293      	cmp	r3, r2
     6f4:	d03f      	beq.n	776 <_sercom_get_default_pad+0x96>
     6f6:	4a4c      	ldr	r2, [pc, #304]	; (828 <_sercom_get_default_pad+0x148>)
     6f8:	4293      	cmp	r3, r2
     6fa:	d806      	bhi.n	70a <_sercom_get_default_pad+0x2a>
     6fc:	4a4b      	ldr	r2, [pc, #300]	; (82c <_sercom_get_default_pad+0x14c>)
     6fe:	4293      	cmp	r3, r2
     700:	d00f      	beq.n	722 <_sercom_get_default_pad+0x42>
     702:	4a4b      	ldr	r2, [pc, #300]	; (830 <_sercom_get_default_pad+0x150>)
     704:	4293      	cmp	r3, r2
     706:	d021      	beq.n	74c <_sercom_get_default_pad+0x6c>
     708:	e089      	b.n	81e <_sercom_get_default_pad+0x13e>
     70a:	4a4a      	ldr	r2, [pc, #296]	; (834 <_sercom_get_default_pad+0x154>)
     70c:	4293      	cmp	r3, r2
     70e:	d100      	bne.n	712 <_sercom_get_default_pad+0x32>
     710:	e05b      	b.n	7ca <_sercom_get_default_pad+0xea>
     712:	4a49      	ldr	r2, [pc, #292]	; (838 <_sercom_get_default_pad+0x158>)
     714:	4293      	cmp	r3, r2
     716:	d100      	bne.n	71a <_sercom_get_default_pad+0x3a>
     718:	e06c      	b.n	7f4 <_sercom_get_default_pad+0x114>
     71a:	4a48      	ldr	r2, [pc, #288]	; (83c <_sercom_get_default_pad+0x15c>)
     71c:	4293      	cmp	r3, r2
     71e:	d03f      	beq.n	7a0 <_sercom_get_default_pad+0xc0>
     720:	e07d      	b.n	81e <_sercom_get_default_pad+0x13e>
		/* Auto-generate a lookup table for the default SERCOM pad defaults */
		MREPEAT(SERCOM_INST_NUM, _SERCOM_PAD_DEFAULTS_CASE, pad)
     722:	1cfb      	adds	r3, r7, #3
     724:	781b      	ldrb	r3, [r3, #0]
     726:	2b01      	cmp	r3, #1
     728:	d00a      	beq.n	740 <_sercom_get_default_pad+0x60>
     72a:	dc02      	bgt.n	732 <_sercom_get_default_pad+0x52>
     72c:	2b00      	cmp	r3, #0
     72e:	d005      	beq.n	73c <_sercom_get_default_pad+0x5c>
     730:	e075      	b.n	81e <_sercom_get_default_pad+0x13e>
     732:	2b02      	cmp	r3, #2
     734:	d006      	beq.n	744 <_sercom_get_default_pad+0x64>
     736:	2b03      	cmp	r3, #3
     738:	d006      	beq.n	748 <_sercom_get_default_pad+0x68>
     73a:	e070      	b.n	81e <_sercom_get_default_pad+0x13e>
     73c:	4b40      	ldr	r3, [pc, #256]	; (840 <_sercom_get_default_pad+0x160>)
     73e:	e06f      	b.n	820 <_sercom_get_default_pad+0x140>
     740:	4b40      	ldr	r3, [pc, #256]	; (844 <_sercom_get_default_pad+0x164>)
     742:	e06d      	b.n	820 <_sercom_get_default_pad+0x140>
     744:	4b40      	ldr	r3, [pc, #256]	; (848 <_sercom_get_default_pad+0x168>)
     746:	e06b      	b.n	820 <_sercom_get_default_pad+0x140>
     748:	4b40      	ldr	r3, [pc, #256]	; (84c <_sercom_get_default_pad+0x16c>)
     74a:	e069      	b.n	820 <_sercom_get_default_pad+0x140>
     74c:	1cfb      	adds	r3, r7, #3
     74e:	781b      	ldrb	r3, [r3, #0]
     750:	2b01      	cmp	r3, #1
     752:	d00a      	beq.n	76a <_sercom_get_default_pad+0x8a>
     754:	dc02      	bgt.n	75c <_sercom_get_default_pad+0x7c>
     756:	2b00      	cmp	r3, #0
     758:	d005      	beq.n	766 <_sercom_get_default_pad+0x86>
     75a:	e060      	b.n	81e <_sercom_get_default_pad+0x13e>
     75c:	2b02      	cmp	r3, #2
     75e:	d006      	beq.n	76e <_sercom_get_default_pad+0x8e>
     760:	2b03      	cmp	r3, #3
     762:	d006      	beq.n	772 <_sercom_get_default_pad+0x92>
     764:	e05b      	b.n	81e <_sercom_get_default_pad+0x13e>
     766:	2303      	movs	r3, #3
     768:	e05a      	b.n	820 <_sercom_get_default_pad+0x140>
     76a:	4b39      	ldr	r3, [pc, #228]	; (850 <_sercom_get_default_pad+0x170>)
     76c:	e058      	b.n	820 <_sercom_get_default_pad+0x140>
     76e:	4b39      	ldr	r3, [pc, #228]	; (854 <_sercom_get_default_pad+0x174>)
     770:	e056      	b.n	820 <_sercom_get_default_pad+0x140>
     772:	4b39      	ldr	r3, [pc, #228]	; (858 <_sercom_get_default_pad+0x178>)
     774:	e054      	b.n	820 <_sercom_get_default_pad+0x140>
     776:	1cfb      	adds	r3, r7, #3
     778:	781b      	ldrb	r3, [r3, #0]
     77a:	2b01      	cmp	r3, #1
     77c:	d00a      	beq.n	794 <_sercom_get_default_pad+0xb4>
     77e:	dc02      	bgt.n	786 <_sercom_get_default_pad+0xa6>
     780:	2b00      	cmp	r3, #0
     782:	d005      	beq.n	790 <_sercom_get_default_pad+0xb0>
     784:	e04b      	b.n	81e <_sercom_get_default_pad+0x13e>
     786:	2b02      	cmp	r3, #2
     788:	d006      	beq.n	798 <_sercom_get_default_pad+0xb8>
     78a:	2b03      	cmp	r3, #3
     78c:	d006      	beq.n	79c <_sercom_get_default_pad+0xbc>
     78e:	e046      	b.n	81e <_sercom_get_default_pad+0x13e>
     790:	4b32      	ldr	r3, [pc, #200]	; (85c <_sercom_get_default_pad+0x17c>)
     792:	e045      	b.n	820 <_sercom_get_default_pad+0x140>
     794:	4b32      	ldr	r3, [pc, #200]	; (860 <_sercom_get_default_pad+0x180>)
     796:	e043      	b.n	820 <_sercom_get_default_pad+0x140>
     798:	4b32      	ldr	r3, [pc, #200]	; (864 <_sercom_get_default_pad+0x184>)
     79a:	e041      	b.n	820 <_sercom_get_default_pad+0x140>
     79c:	4b32      	ldr	r3, [pc, #200]	; (868 <_sercom_get_default_pad+0x188>)
     79e:	e03f      	b.n	820 <_sercom_get_default_pad+0x140>
     7a0:	1cfb      	adds	r3, r7, #3
     7a2:	781b      	ldrb	r3, [r3, #0]
     7a4:	2b01      	cmp	r3, #1
     7a6:	d00a      	beq.n	7be <_sercom_get_default_pad+0xde>
     7a8:	dc02      	bgt.n	7b0 <_sercom_get_default_pad+0xd0>
     7aa:	2b00      	cmp	r3, #0
     7ac:	d005      	beq.n	7ba <_sercom_get_default_pad+0xda>
     7ae:	e036      	b.n	81e <_sercom_get_default_pad+0x13e>
     7b0:	2b02      	cmp	r3, #2
     7b2:	d006      	beq.n	7c2 <_sercom_get_default_pad+0xe2>
     7b4:	2b03      	cmp	r3, #3
     7b6:	d006      	beq.n	7c6 <_sercom_get_default_pad+0xe6>
     7b8:	e031      	b.n	81e <_sercom_get_default_pad+0x13e>
     7ba:	4b2c      	ldr	r3, [pc, #176]	; (86c <_sercom_get_default_pad+0x18c>)
     7bc:	e030      	b.n	820 <_sercom_get_default_pad+0x140>
     7be:	4b2c      	ldr	r3, [pc, #176]	; (870 <_sercom_get_default_pad+0x190>)
     7c0:	e02e      	b.n	820 <_sercom_get_default_pad+0x140>
     7c2:	4b2c      	ldr	r3, [pc, #176]	; (874 <_sercom_get_default_pad+0x194>)
     7c4:	e02c      	b.n	820 <_sercom_get_default_pad+0x140>
     7c6:	4b2c      	ldr	r3, [pc, #176]	; (878 <_sercom_get_default_pad+0x198>)
     7c8:	e02a      	b.n	820 <_sercom_get_default_pad+0x140>
     7ca:	1cfb      	adds	r3, r7, #3
     7cc:	781b      	ldrb	r3, [r3, #0]
     7ce:	2b01      	cmp	r3, #1
     7d0:	d00a      	beq.n	7e8 <_sercom_get_default_pad+0x108>
     7d2:	dc02      	bgt.n	7da <_sercom_get_default_pad+0xfa>
     7d4:	2b00      	cmp	r3, #0
     7d6:	d005      	beq.n	7e4 <_sercom_get_default_pad+0x104>
     7d8:	e021      	b.n	81e <_sercom_get_default_pad+0x13e>
     7da:	2b02      	cmp	r3, #2
     7dc:	d006      	beq.n	7ec <_sercom_get_default_pad+0x10c>
     7de:	2b03      	cmp	r3, #3
     7e0:	d006      	beq.n	7f0 <_sercom_get_default_pad+0x110>
     7e2:	e01c      	b.n	81e <_sercom_get_default_pad+0x13e>
     7e4:	4b25      	ldr	r3, [pc, #148]	; (87c <_sercom_get_default_pad+0x19c>)
     7e6:	e01b      	b.n	820 <_sercom_get_default_pad+0x140>
     7e8:	4b25      	ldr	r3, [pc, #148]	; (880 <_sercom_get_default_pad+0x1a0>)
     7ea:	e019      	b.n	820 <_sercom_get_default_pad+0x140>
     7ec:	4b25      	ldr	r3, [pc, #148]	; (884 <_sercom_get_default_pad+0x1a4>)
     7ee:	e017      	b.n	820 <_sercom_get_default_pad+0x140>
     7f0:	4b25      	ldr	r3, [pc, #148]	; (888 <_sercom_get_default_pad+0x1a8>)
     7f2:	e015      	b.n	820 <_sercom_get_default_pad+0x140>
     7f4:	1cfb      	adds	r3, r7, #3
     7f6:	781b      	ldrb	r3, [r3, #0]
     7f8:	2b01      	cmp	r3, #1
     7fa:	d00a      	beq.n	812 <_sercom_get_default_pad+0x132>
     7fc:	dc02      	bgt.n	804 <_sercom_get_default_pad+0x124>
     7fe:	2b00      	cmp	r3, #0
     800:	d005      	beq.n	80e <_sercom_get_default_pad+0x12e>
     802:	e00c      	b.n	81e <_sercom_get_default_pad+0x13e>
     804:	2b02      	cmp	r3, #2
     806:	d006      	beq.n	816 <_sercom_get_default_pad+0x136>
     808:	2b03      	cmp	r3, #3
     80a:	d006      	beq.n	81a <_sercom_get_default_pad+0x13a>
     80c:	e007      	b.n	81e <_sercom_get_default_pad+0x13e>
     80e:	4b1f      	ldr	r3, [pc, #124]	; (88c <_sercom_get_default_pad+0x1ac>)
     810:	e006      	b.n	820 <_sercom_get_default_pad+0x140>
     812:	4b1f      	ldr	r3, [pc, #124]	; (890 <_sercom_get_default_pad+0x1b0>)
     814:	e004      	b.n	820 <_sercom_get_default_pad+0x140>
     816:	4b1f      	ldr	r3, [pc, #124]	; (894 <_sercom_get_default_pad+0x1b4>)
     818:	e002      	b.n	820 <_sercom_get_default_pad+0x140>
     81a:	4b1f      	ldr	r3, [pc, #124]	; (898 <_sercom_get_default_pad+0x1b8>)
     81c:	e000      	b.n	820 <_sercom_get_default_pad+0x140>
	}

	Assert(false);
	return 0;
     81e:	2300      	movs	r3, #0
}
     820:	1c18      	adds	r0, r3, #0
     822:	46bd      	mov	sp, r7
     824:	b002      	add	sp, #8
     826:	bd80      	pop	{r7, pc}
     828:	42001000 	.word	0x42001000
     82c:	42000800 	.word	0x42000800
     830:	42000c00 	.word	0x42000c00
     834:	42001800 	.word	0x42001800
     838:	42001c00 	.word	0x42001c00
     83c:	42001400 	.word	0x42001400
     840:	00040003 	.word	0x00040003
     844:	00050003 	.word	0x00050003
     848:	00060003 	.word	0x00060003
     84c:	00070003 	.word	0x00070003
     850:	00010003 	.word	0x00010003
     854:	001e0003 	.word	0x001e0003
     858:	001f0003 	.word	0x001f0003
     85c:	00080003 	.word	0x00080003
     860:	00090003 	.word	0x00090003
     864:	000a0003 	.word	0x000a0003
     868:	000b0003 	.word	0x000b0003
     86c:	00100003 	.word	0x00100003
     870:	00110003 	.word	0x00110003
     874:	00120003 	.word	0x00120003
     878:	00130003 	.word	0x00130003
     87c:	000c0003 	.word	0x000c0003
     880:	000d0003 	.word	0x000d0003
     884:	000e0003 	.word	0x000e0003
     888:	000f0003 	.word	0x000f0003
     88c:	00160003 	.word	0x00160003
     890:	00170003 	.word	0x00170003
     894:	00180003 	.word	0x00180003
     898:	00190003 	.word	0x00190003

0000089c <_sercom_get_sercom_inst_index>:
 *
 * \return Index of given instance.
 */
uint8_t _sercom_get_sercom_inst_index(
		Sercom *const sercom_instance)
{
     89c:	b590      	push	{r4, r7, lr}
     89e:	b08b      	sub	sp, #44	; 0x2c
     8a0:	af00      	add	r7, sp, #0
     8a2:	6078      	str	r0, [r7, #4]
	/* Save all available SERCOM instances for compare */
	Sercom *sercom_instances[SERCOM_INST_NUM] = SERCOM_INSTS;
     8a4:	230c      	movs	r3, #12
     8a6:	18fb      	adds	r3, r7, r3
     8a8:	4a0e      	ldr	r2, [pc, #56]	; (8e4 <_sercom_get_sercom_inst_index+0x48>)
     8aa:	ca13      	ldmia	r2!, {r0, r1, r4}
     8ac:	c313      	stmia	r3!, {r0, r1, r4}
     8ae:	ca13      	ldmia	r2!, {r0, r1, r4}
     8b0:	c313      	stmia	r3!, {r0, r1, r4}

	/* Find index for sercom instance */
	for (uint32_t i = 0; i < SERCOM_INST_NUM; i++) {
     8b2:	2300      	movs	r3, #0
     8b4:	627b      	str	r3, [r7, #36]	; 0x24
     8b6:	e00d      	b.n	8d4 <_sercom_get_sercom_inst_index+0x38>
		if ((uintptr_t)sercom_instance == (uintptr_t)sercom_instances[i]) {
     8b8:	687b      	ldr	r3, [r7, #4]
     8ba:	220c      	movs	r2, #12
     8bc:	18ba      	adds	r2, r7, r2
     8be:	6a79      	ldr	r1, [r7, #36]	; 0x24
     8c0:	0089      	lsls	r1, r1, #2
     8c2:	588a      	ldr	r2, [r1, r2]
     8c4:	4293      	cmp	r3, r2
     8c6:	d102      	bne.n	8ce <_sercom_get_sercom_inst_index+0x32>
			return i;
     8c8:	6a7b      	ldr	r3, [r7, #36]	; 0x24
     8ca:	b2db      	uxtb	r3, r3
     8cc:	e006      	b.n	8dc <_sercom_get_sercom_inst_index+0x40>
{
	/* Save all available SERCOM instances for compare */
	Sercom *sercom_instances[SERCOM_INST_NUM] = SERCOM_INSTS;

	/* Find index for sercom instance */
	for (uint32_t i = 0; i < SERCOM_INST_NUM; i++) {
     8ce:	6a7b      	ldr	r3, [r7, #36]	; 0x24
     8d0:	3301      	adds	r3, #1
     8d2:	627b      	str	r3, [r7, #36]	; 0x24
     8d4:	6a7b      	ldr	r3, [r7, #36]	; 0x24
     8d6:	2b05      	cmp	r3, #5
     8d8:	d9ee      	bls.n	8b8 <_sercom_get_sercom_inst_index+0x1c>
		}
	}

	/* Invalid data given */
	Assert(false);
	return 0;
     8da:	2300      	movs	r3, #0
}
     8dc:	1c18      	adds	r0, r3, #0
     8de:	46bd      	mov	sp, r7
     8e0:	b00b      	add	sp, #44	; 0x2c
     8e2:	bd90      	pop	{r4, r7, pc}
     8e4:	00008c08 	.word	0x00008c08

000008e8 <system_pinmux_get_config_defaults>:
 *
 * \param[out] config  Configuration structure to initialize to default values
 */
static inline void system_pinmux_get_config_defaults(
		struct system_pinmux_config *const config)
{
     8e8:	b580      	push	{r7, lr}
     8ea:	b082      	sub	sp, #8
     8ec:	af00      	add	r7, sp, #0
     8ee:	6078      	str	r0, [r7, #4]
	/* Sanity check arguments */
	Assert(config);

	/* Default configuration values */
	config->mux_position = SYSTEM_PINMUX_GPIO;
     8f0:	687b      	ldr	r3, [r7, #4]
     8f2:	2280      	movs	r2, #128	; 0x80
     8f4:	701a      	strb	r2, [r3, #0]
	config->direction    = SYSTEM_PINMUX_PIN_DIR_INPUT;
     8f6:	687b      	ldr	r3, [r7, #4]
     8f8:	2200      	movs	r2, #0
     8fa:	705a      	strb	r2, [r3, #1]
	config->input_pull   = SYSTEM_PINMUX_PIN_PULL_UP;
     8fc:	687b      	ldr	r3, [r7, #4]
     8fe:	2201      	movs	r2, #1
     900:	709a      	strb	r2, [r3, #2]
	config->powersave    = false;
     902:	687b      	ldr	r3, [r7, #4]
     904:	2200      	movs	r2, #0
     906:	70da      	strb	r2, [r3, #3]
}
     908:	46bd      	mov	sp, r7
     90a:	b002      	add	sp, #8
     90c:	bd80      	pop	{r7, pc}
     90e:	46c0      	nop			; (mov r8, r8)

00000910 <system_pinmux_get_group_from_gpio_pin>:
 *
 * \return Base address of the associated PORT module.
 */
static inline PortGroup* system_pinmux_get_group_from_gpio_pin(
		const uint8_t gpio_pin)
{
     910:	b580      	push	{r7, lr}
     912:	b084      	sub	sp, #16
     914:	af00      	add	r7, sp, #0
     916:	1c02      	adds	r2, r0, #0
     918:	1dfb      	adds	r3, r7, #7
     91a:	701a      	strb	r2, [r3, #0]
	uint8_t port_index  = (gpio_pin / 128);
     91c:	230f      	movs	r3, #15
     91e:	18fb      	adds	r3, r7, r3
     920:	1dfa      	adds	r2, r7, #7
     922:	7812      	ldrb	r2, [r2, #0]
     924:	09d2      	lsrs	r2, r2, #7
     926:	701a      	strb	r2, [r3, #0]
	uint8_t group_index = (gpio_pin / 32);
     928:	230e      	movs	r3, #14
     92a:	18fb      	adds	r3, r7, r3
     92c:	1dfa      	adds	r2, r7, #7
     92e:	7812      	ldrb	r2, [r2, #0]
     930:	0952      	lsrs	r2, r2, #5
     932:	701a      	strb	r2, [r3, #0]

	/* Array of available ports */
	Port *const ports[PORT_INST_NUM] = PORT_INSTS;
     934:	4b0d      	ldr	r3, [pc, #52]	; (96c <system_pinmux_get_group_from_gpio_pin+0x5c>)
     936:	60bb      	str	r3, [r7, #8]

	if (port_index < PORT_INST_NUM) {
     938:	230f      	movs	r3, #15
     93a:	18fb      	adds	r3, r7, r3
     93c:	781b      	ldrb	r3, [r3, #0]
     93e:	2b00      	cmp	r3, #0
     940:	d10f      	bne.n	962 <system_pinmux_get_group_from_gpio_pin+0x52>
		return &(ports[port_index]->Group[group_index]);
     942:	230f      	movs	r3, #15
     944:	18fb      	adds	r3, r7, r3
     946:	781b      	ldrb	r3, [r3, #0]
     948:	009b      	lsls	r3, r3, #2
     94a:	2210      	movs	r2, #16
     94c:	4694      	mov	ip, r2
     94e:	44bc      	add	ip, r7
     950:	4463      	add	r3, ip
     952:	3b08      	subs	r3, #8
     954:	681a      	ldr	r2, [r3, #0]
     956:	230e      	movs	r3, #14
     958:	18fb      	adds	r3, r7, r3
     95a:	781b      	ldrb	r3, [r3, #0]
     95c:	01db      	lsls	r3, r3, #7
     95e:	18d3      	adds	r3, r2, r3
     960:	e000      	b.n	964 <system_pinmux_get_group_from_gpio_pin+0x54>
	} else {
		Assert(false);
		return NULL;
     962:	2300      	movs	r3, #0
	}
}
     964:	1c18      	adds	r0, r3, #0
     966:	46bd      	mov	sp, r7
     968:	b004      	add	sp, #16
     96a:	bd80      	pop	{r7, pc}
     96c:	41004400 	.word	0x41004400

00000970 <system_pinmux_pin_get_mux_position>:
 *
 * \return Currently selected peripheral index on the specified pin.
 */
static inline uint8_t system_pinmux_pin_get_mux_position(
		const uint8_t gpio_pin)
{
     970:	b580      	push	{r7, lr}
     972:	b086      	sub	sp, #24
     974:	af00      	add	r7, sp, #0
     976:	1c02      	adds	r2, r0, #0
     978:	1dfb      	adds	r3, r7, #7
     97a:	701a      	strb	r2, [r3, #0]
	PortGroup *const port = system_pinmux_get_group_from_gpio_pin(gpio_pin);
     97c:	1dfb      	adds	r3, r7, #7
     97e:	781b      	ldrb	r3, [r3, #0]
     980:	1c18      	adds	r0, r3, #0
     982:	4b19      	ldr	r3, [pc, #100]	; (9e8 <system_pinmux_pin_get_mux_position+0x78>)
     984:	4798      	blx	r3
     986:	1c03      	adds	r3, r0, #0
     988:	617b      	str	r3, [r7, #20]
	uint32_t pin_index = (gpio_pin % 32);
     98a:	1dfb      	adds	r3, r7, #7
     98c:	781b      	ldrb	r3, [r3, #0]
     98e:	221f      	movs	r2, #31
     990:	4013      	ands	r3, r2
     992:	613b      	str	r3, [r7, #16]

	if (!(port->PINCFG[pin_index].reg & PORT_PINCFG_PMUXEN)) {
     994:	697a      	ldr	r2, [r7, #20]
     996:	2140      	movs	r1, #64	; 0x40
     998:	693b      	ldr	r3, [r7, #16]
     99a:	18d3      	adds	r3, r2, r3
     99c:	185b      	adds	r3, r3, r1
     99e:	781b      	ldrb	r3, [r3, #0]
     9a0:	b2db      	uxtb	r3, r3
     9a2:	1c1a      	adds	r2, r3, #0
     9a4:	2301      	movs	r3, #1
     9a6:	4013      	ands	r3, r2
     9a8:	d101      	bne.n	9ae <system_pinmux_pin_get_mux_position+0x3e>
		return SYSTEM_PINMUX_GPIO;
     9aa:	2380      	movs	r3, #128	; 0x80
     9ac:	e017      	b.n	9de <system_pinmux_pin_get_mux_position+0x6e>
	}

	uint32_t pmux_reg = port->PMUX[pin_index / 2].reg;
     9ae:	693b      	ldr	r3, [r7, #16]
     9b0:	085b      	lsrs	r3, r3, #1
     9b2:	697a      	ldr	r2, [r7, #20]
     9b4:	2130      	movs	r1, #48	; 0x30
     9b6:	18d3      	adds	r3, r2, r3
     9b8:	185b      	adds	r3, r3, r1
     9ba:	781b      	ldrb	r3, [r3, #0]
     9bc:	b2db      	uxtb	r3, r3
     9be:	60fb      	str	r3, [r7, #12]

	if (pin_index & 1) {
     9c0:	693b      	ldr	r3, [r7, #16]
     9c2:	2201      	movs	r2, #1
     9c4:	4013      	ands	r3, r2
     9c6:	d005      	beq.n	9d4 <system_pinmux_pin_get_mux_position+0x64>
		return (pmux_reg & PORT_PMUX_PMUXO_Msk) >> PORT_PMUX_PMUXO_Pos;
     9c8:	68fb      	ldr	r3, [r7, #12]
     9ca:	22f0      	movs	r2, #240	; 0xf0
     9cc:	4013      	ands	r3, r2
     9ce:	091b      	lsrs	r3, r3, #4
     9d0:	b2db      	uxtb	r3, r3
     9d2:	e004      	b.n	9de <system_pinmux_pin_get_mux_position+0x6e>
	}
	else {
		return (pmux_reg & PORT_PMUX_PMUXE_Msk) >> PORT_PMUX_PMUXE_Pos;
     9d4:	68fb      	ldr	r3, [r7, #12]
     9d6:	b2db      	uxtb	r3, r3
     9d8:	220f      	movs	r2, #15
     9da:	4013      	ands	r3, r2
     9dc:	b2db      	uxtb	r3, r3
	}
}
     9de:	1c18      	adds	r0, r3, #0
     9e0:	46bd      	mov	sp, r7
     9e2:	b006      	add	sp, #24
     9e4:	bd80      	pop	{r7, pc}
     9e6:	46c0      	nop			; (mov r8, r8)
     9e8:	00000911 	.word	0x00000911

000009ec <port_get_group_from_gpio_pin>:
 *
 *  \return Base address of the associated PORT module.
 */
static inline PortGroup* port_get_group_from_gpio_pin(
		const uint8_t gpio_pin)
{
     9ec:	b580      	push	{r7, lr}
     9ee:	b082      	sub	sp, #8
     9f0:	af00      	add	r7, sp, #0
     9f2:	1c02      	adds	r2, r0, #0
     9f4:	1dfb      	adds	r3, r7, #7
     9f6:	701a      	strb	r2, [r3, #0]
	return system_pinmux_get_group_from_gpio_pin(gpio_pin);
     9f8:	1dfb      	adds	r3, r7, #7
     9fa:	781b      	ldrb	r3, [r3, #0]
     9fc:	1c18      	adds	r0, r3, #0
     9fe:	4b03      	ldr	r3, [pc, #12]	; (a0c <port_get_group_from_gpio_pin+0x20>)
     a00:	4798      	blx	r3
     a02:	1c03      	adds	r3, r0, #0
}
     a04:	1c18      	adds	r0, r3, #0
     a06:	46bd      	mov	sp, r7
     a08:	b002      	add	sp, #8
     a0a:	bd80      	pop	{r7, pc}
     a0c:	00000911 	.word	0x00000911

00000a10 <port_pin_set_output_level>:
 *  \param[in] level     Logical level to set the given pin to
 */
static inline void port_pin_set_output_level(
		const uint8_t gpio_pin,
		const bool level)
{
     a10:	b580      	push	{r7, lr}
     a12:	b084      	sub	sp, #16
     a14:	af00      	add	r7, sp, #0
     a16:	1c02      	adds	r2, r0, #0
     a18:	1dfb      	adds	r3, r7, #7
     a1a:	701a      	strb	r2, [r3, #0]
     a1c:	1dbb      	adds	r3, r7, #6
     a1e:	1c0a      	adds	r2, r1, #0
     a20:	701a      	strb	r2, [r3, #0]
	PortGroup *const port_base = port_get_group_from_gpio_pin(gpio_pin);
     a22:	1dfb      	adds	r3, r7, #7
     a24:	781b      	ldrb	r3, [r3, #0]
     a26:	1c18      	adds	r0, r3, #0
     a28:	4b0c      	ldr	r3, [pc, #48]	; (a5c <port_pin_set_output_level+0x4c>)
     a2a:	4798      	blx	r3
     a2c:	1c03      	adds	r3, r0, #0
     a2e:	60fb      	str	r3, [r7, #12]
	uint32_t pin_mask  = (1UL << (gpio_pin % 32));
     a30:	1dfb      	adds	r3, r7, #7
     a32:	781b      	ldrb	r3, [r3, #0]
     a34:	221f      	movs	r2, #31
     a36:	4013      	ands	r3, r2
     a38:	2201      	movs	r2, #1
     a3a:	409a      	lsls	r2, r3
     a3c:	1c13      	adds	r3, r2, #0
     a3e:	60bb      	str	r3, [r7, #8]

	/* Set the pin to high or low atomically based on the requested level */
	if (level) {
     a40:	1dbb      	adds	r3, r7, #6
     a42:	781b      	ldrb	r3, [r3, #0]
     a44:	2b00      	cmp	r3, #0
     a46:	d003      	beq.n	a50 <port_pin_set_output_level+0x40>
		port_base->OUTSET.reg = pin_mask;
     a48:	68fb      	ldr	r3, [r7, #12]
     a4a:	68ba      	ldr	r2, [r7, #8]
     a4c:	619a      	str	r2, [r3, #24]
     a4e:	e002      	b.n	a56 <port_pin_set_output_level+0x46>
	} else {
		port_base->OUTCLR.reg = pin_mask;
     a50:	68fb      	ldr	r3, [r7, #12]
     a52:	68ba      	ldr	r2, [r7, #8]
     a54:	615a      	str	r2, [r3, #20]
	}
}
     a56:	46bd      	mov	sp, r7
     a58:	b004      	add	sp, #16
     a5a:	bd80      	pop	{r7, pc}
     a5c:	000009ed 	.word	0x000009ed

00000a60 <system_gclk_chan_get_config_defaults>:
 *
 * \param[out] config  Configuration structure to initialize to default values
 */
static inline void system_gclk_chan_get_config_defaults(
		struct system_gclk_chan_config *const config)
{
     a60:	b580      	push	{r7, lr}
     a62:	b082      	sub	sp, #8
     a64:	af00      	add	r7, sp, #0
     a66:	6078      	str	r0, [r7, #4]
	/* Sanity check arguments */
	Assert(config);

	/* Default configuration values */
	config->source_generator = GCLK_GENERATOR_0;
     a68:	687b      	ldr	r3, [r7, #4]
     a6a:	2200      	movs	r2, #0
     a6c:	701a      	strb	r2, [r3, #0]
}
     a6e:	46bd      	mov	sp, r7
     a70:	b002      	add	sp, #8
     a72:	bd80      	pop	{r7, pc}

00000a74 <system_apb_clock_set_mask>:
 * \retval STATUS_OK               The clock mask was set successfully
 */
static inline enum status_code system_apb_clock_set_mask(
		const enum system_clock_apb_bus bus,
		const uint32_t mask)
{
     a74:	b580      	push	{r7, lr}
     a76:	b082      	sub	sp, #8
     a78:	af00      	add	r7, sp, #0
     a7a:	1c02      	adds	r2, r0, #0
     a7c:	6039      	str	r1, [r7, #0]
     a7e:	1dfb      	adds	r3, r7, #7
     a80:	701a      	strb	r2, [r3, #0]
	switch (bus) {
     a82:	1dfb      	adds	r3, r7, #7
     a84:	781b      	ldrb	r3, [r3, #0]
     a86:	2b01      	cmp	r3, #1
     a88:	d00a      	beq.n	aa0 <system_apb_clock_set_mask+0x2c>
     a8a:	2b02      	cmp	r3, #2
     a8c:	d00f      	beq.n	aae <system_apb_clock_set_mask+0x3a>
     a8e:	2b00      	cmp	r3, #0
     a90:	d114      	bne.n	abc <system_apb_clock_set_mask+0x48>
		case SYSTEM_CLOCK_APB_APBA:
			PM->APBAMASK.reg |= mask;
     a92:	4b0e      	ldr	r3, [pc, #56]	; (acc <system_apb_clock_set_mask+0x58>)
     a94:	4a0d      	ldr	r2, [pc, #52]	; (acc <system_apb_clock_set_mask+0x58>)
     a96:	6991      	ldr	r1, [r2, #24]
     a98:	683a      	ldr	r2, [r7, #0]
     a9a:	430a      	orrs	r2, r1
     a9c:	619a      	str	r2, [r3, #24]
			break;
     a9e:	e00f      	b.n	ac0 <system_apb_clock_set_mask+0x4c>

		case SYSTEM_CLOCK_APB_APBB:
			PM->APBBMASK.reg |= mask;
     aa0:	4b0a      	ldr	r3, [pc, #40]	; (acc <system_apb_clock_set_mask+0x58>)
     aa2:	4a0a      	ldr	r2, [pc, #40]	; (acc <system_apb_clock_set_mask+0x58>)
     aa4:	69d1      	ldr	r1, [r2, #28]
     aa6:	683a      	ldr	r2, [r7, #0]
     aa8:	430a      	orrs	r2, r1
     aaa:	61da      	str	r2, [r3, #28]
			break;
     aac:	e008      	b.n	ac0 <system_apb_clock_set_mask+0x4c>

		case SYSTEM_CLOCK_APB_APBC:
			PM->APBCMASK.reg |= mask;
     aae:	4b07      	ldr	r3, [pc, #28]	; (acc <system_apb_clock_set_mask+0x58>)
     ab0:	4a06      	ldr	r2, [pc, #24]	; (acc <system_apb_clock_set_mask+0x58>)
     ab2:	6a11      	ldr	r1, [r2, #32]
     ab4:	683a      	ldr	r2, [r7, #0]
     ab6:	430a      	orrs	r2, r1
     ab8:	621a      	str	r2, [r3, #32]
			break;
     aba:	e001      	b.n	ac0 <system_apb_clock_set_mask+0x4c>

		default:
			Assert(false);
			return STATUS_ERR_INVALID_ARG;
     abc:	2317      	movs	r3, #23
     abe:	e000      	b.n	ac2 <system_apb_clock_set_mask+0x4e>

	}

	return STATUS_OK;
     ac0:	2300      	movs	r3, #0
}
     ac2:	1c18      	adds	r0, r3, #0
     ac4:	46bd      	mov	sp, r7
     ac6:	b002      	add	sp, #8
     ac8:	bd80      	pop	{r7, pc}
     aca:	46c0      	nop			; (mov r8, r8)
     acc:	40000400 	.word	0x40000400

00000ad0 <system_is_debugger_present>:
 * \retval true  Debugger is connected to the system
 * \retval false Debugger is not connected to the system
 *
 */
static inline bool system_is_debugger_present(void)
{
     ad0:	b580      	push	{r7, lr}
     ad2:	af00      	add	r7, sp, #0
	return DSU->STATUSB.reg & DSU_STATUSB_DBGPRES;
     ad4:	4b05      	ldr	r3, [pc, #20]	; (aec <system_is_debugger_present+0x1c>)
     ad6:	789b      	ldrb	r3, [r3, #2]
     ad8:	b2db      	uxtb	r3, r3
     ada:	1c1a      	adds	r2, r3, #0
     adc:	2302      	movs	r3, #2
     ade:	4013      	ands	r3, r2
     ae0:	1e5a      	subs	r2, r3, #1
     ae2:	4193      	sbcs	r3, r2
     ae4:	b2db      	uxtb	r3, r3
}
     ae6:	1c18      	adds	r0, r3, #0
     ae8:	46bd      	mov	sp, r7
     aea:	bd80      	pop	{r7, pc}
     aec:	41002000 	.word	0x41002000

00000af0 <spi_is_ready_to_write>:
 * \retval true   If the SPI module is ready to write data
 * \retval false  If the SPI module is not ready to write data
 */
static inline bool spi_is_ready_to_write(
		struct spi_module *const module)
{
     af0:	b580      	push	{r7, lr}
     af2:	b084      	sub	sp, #16
     af4:	af00      	add	r7, sp, #0
     af6:	6078      	str	r0, [r7, #4]
	/* Sanity check arguments */
	Assert(module);
	Assert(module->hw);

	SercomSpi *const spi_module = &(module->hw->SPI);
     af8:	687b      	ldr	r3, [r7, #4]
     afa:	681b      	ldr	r3, [r3, #0]
     afc:	60fb      	str	r3, [r7, #12]

	/* Check interrupt flag */
	return (spi_module->INTFLAG.reg & SERCOM_SPI_INTFLAG_DRE);
     afe:	68fb      	ldr	r3, [r7, #12]
     b00:	7e1b      	ldrb	r3, [r3, #24]
     b02:	b2db      	uxtb	r3, r3
     b04:	1c1a      	adds	r2, r3, #0
     b06:	2301      	movs	r3, #1
     b08:	4013      	ands	r3, r2
     b0a:	1e5a      	subs	r2, r3, #1
     b0c:	4193      	sbcs	r3, r2
     b0e:	b2db      	uxtb	r3, r3
}
     b10:	1c18      	adds	r0, r3, #0
     b12:	46bd      	mov	sp, r7
     b14:	b004      	add	sp, #16
     b16:	bd80      	pop	{r7, pc}

00000b18 <spi_is_ready_to_read>:
 * \retval true   If the SPI module is ready to read data
 * \retval false  If the SPI module is not ready to read data
 */
static inline bool spi_is_ready_to_read(
		struct spi_module *const module)
{
     b18:	b580      	push	{r7, lr}
     b1a:	b084      	sub	sp, #16
     b1c:	af00      	add	r7, sp, #0
     b1e:	6078      	str	r0, [r7, #4]
	/* Sanity check arguments */
	Assert(module);
	Assert(module->hw);

	SercomSpi *const spi_module = &(module->hw->SPI);
     b20:	687b      	ldr	r3, [r7, #4]
     b22:	681b      	ldr	r3, [r3, #0]
     b24:	60fb      	str	r3, [r7, #12]

	/* Check interrupt flag */
	return (spi_module->INTFLAG.reg & SERCOM_SPI_INTFLAG_RXC);
     b26:	68fb      	ldr	r3, [r7, #12]
     b28:	7e1b      	ldrb	r3, [r3, #24]
     b2a:	b2db      	uxtb	r3, r3
     b2c:	1c1a      	adds	r2, r3, #0
     b2e:	2304      	movs	r3, #4
     b30:	4013      	ands	r3, r2
     b32:	1e5a      	subs	r2, r3, #1
     b34:	4193      	sbcs	r3, r2
     b36:	b2db      	uxtb	r3, r3
}
     b38:	1c18      	adds	r0, r3, #0
     b3a:	46bd      	mov	sp, r7
     b3c:	b004      	add	sp, #16
     b3e:	bd80      	pop	{r7, pc}

00000b40 <spi_write>:
 * \retval STATUS_BUSY  If the last write was not completed
 */
static inline enum status_code spi_write(
		struct spi_module *module,
		uint16_t tx_data)
{
     b40:	b580      	push	{r7, lr}
     b42:	b084      	sub	sp, #16
     b44:	af00      	add	r7, sp, #0
     b46:	6078      	str	r0, [r7, #4]
     b48:	1c0a      	adds	r2, r1, #0
     b4a:	1cbb      	adds	r3, r7, #2
     b4c:	801a      	strh	r2, [r3, #0]
	/* Sanity check arguments */
	Assert(module);
	Assert(module->hw);

	SercomSpi *const spi_module = &(module->hw->SPI);
     b4e:	687b      	ldr	r3, [r7, #4]
     b50:	681b      	ldr	r3, [r3, #0]
     b52:	60fb      	str	r3, [r7, #12]

	/* Check if the data register has been copied to the shift register */
	if (!spi_is_ready_to_write(module)) {
     b54:	687b      	ldr	r3, [r7, #4]
     b56:	1c18      	adds	r0, r3, #0
     b58:	4b0a      	ldr	r3, [pc, #40]	; (b84 <spi_write+0x44>)
     b5a:	4798      	blx	r3
     b5c:	1c03      	adds	r3, r0, #0
     b5e:	1c1a      	adds	r2, r3, #0
     b60:	2301      	movs	r3, #1
     b62:	4053      	eors	r3, r2
     b64:	b2db      	uxtb	r3, r3
     b66:	2b00      	cmp	r3, #0
     b68:	d001      	beq.n	b6e <spi_write+0x2e>
		/* Data register has not been copied to the shift register, return */
		return STATUS_BUSY;
     b6a:	2305      	movs	r3, #5
     b6c:	e006      	b.n	b7c <spi_write+0x3c>
	}

	/* Write the character to the DATA register */
	spi_module->DATA.reg = tx_data & SERCOM_SPI_DATA_MASK;
     b6e:	1cbb      	adds	r3, r7, #2
     b70:	881b      	ldrh	r3, [r3, #0]
     b72:	05db      	lsls	r3, r3, #23
     b74:	0dda      	lsrs	r2, r3, #23
     b76:	68fb      	ldr	r3, [r7, #12]
     b78:	629a      	str	r2, [r3, #40]	; 0x28

	return STATUS_OK;
     b7a:	2300      	movs	r3, #0
}
     b7c:	1c18      	adds	r0, r3, #0
     b7e:	46bd      	mov	sp, r7
     b80:	b004      	add	sp, #16
     b82:	bd80      	pop	{r7, pc}
     b84:	00000af1 	.word	0x00000af1

00000b88 <spi_read>:
 * \retval STATUS_ERR_OVERFLOW  If the data is overflown
 */
static inline enum status_code spi_read(
		struct spi_module *const module,
		uint16_t *rx_data)
{
     b88:	b580      	push	{r7, lr}
     b8a:	b084      	sub	sp, #16
     b8c:	af00      	add	r7, sp, #0
     b8e:	6078      	str	r0, [r7, #4]
     b90:	6039      	str	r1, [r7, #0]
	/* Sanity check arguments */
	Assert(module);
	Assert(module->hw);

	SercomSpi *const spi_module = &(module->hw->SPI);
     b92:	687b      	ldr	r3, [r7, #4]
     b94:	681b      	ldr	r3, [r3, #0]
     b96:	60bb      	str	r3, [r7, #8]

	/* Check if data is ready to be read */
	if (!spi_is_ready_to_read(module)) {
     b98:	687b      	ldr	r3, [r7, #4]
     b9a:	1c18      	adds	r0, r3, #0
     b9c:	4b1d      	ldr	r3, [pc, #116]	; (c14 <spi_read+0x8c>)
     b9e:	4798      	blx	r3
     ba0:	1c03      	adds	r3, r0, #0
     ba2:	1c1a      	adds	r2, r3, #0
     ba4:	2301      	movs	r3, #1
     ba6:	4053      	eors	r3, r2
     ba8:	b2db      	uxtb	r3, r3
     baa:	2b00      	cmp	r3, #0
     bac:	d001      	beq.n	bb2 <spi_read+0x2a>
		/* No data has been received, return */
		return STATUS_ERR_IO;
     bae:	2310      	movs	r3, #16
     bb0:	e02c      	b.n	c0c <spi_read+0x84>
	}

	/* Return value */
	enum status_code retval = STATUS_OK;
     bb2:	230f      	movs	r3, #15
     bb4:	18fb      	adds	r3, r7, r3
     bb6:	2200      	movs	r2, #0
     bb8:	701a      	strb	r2, [r3, #0]

	/* Check if data is overflown */
	if (spi_module->STATUS.reg & SERCOM_SPI_STATUS_BUFOVF) {
     bba:	68bb      	ldr	r3, [r7, #8]
     bbc:	8b5b      	ldrh	r3, [r3, #26]
     bbe:	b29b      	uxth	r3, r3
     bc0:	1c1a      	adds	r2, r3, #0
     bc2:	2304      	movs	r3, #4
     bc4:	4013      	ands	r3, r2
     bc6:	d00b      	beq.n	be0 <spi_read+0x58>
		retval = STATUS_ERR_OVERFLOW;
     bc8:	230f      	movs	r3, #15
     bca:	18fb      	adds	r3, r7, r3
     bcc:	221e      	movs	r2, #30
     bce:	701a      	strb	r2, [r3, #0]
		/* Clear overflow flag */
		spi_module->STATUS.reg |= SERCOM_SPI_STATUS_BUFOVF;
     bd0:	68bb      	ldr	r3, [r7, #8]
     bd2:	8b5b      	ldrh	r3, [r3, #26]
     bd4:	b29b      	uxth	r3, r3
     bd6:	2204      	movs	r2, #4
     bd8:	4313      	orrs	r3, r2
     bda:	b29a      	uxth	r2, r3
     bdc:	68bb      	ldr	r3, [r7, #8]
     bde:	835a      	strh	r2, [r3, #26]
	}

	/* Read the character from the DATA register */
	if (module->character_size == SPI_CHARACTER_SIZE_9BIT) {
     be0:	687b      	ldr	r3, [r7, #4]
     be2:	799b      	ldrb	r3, [r3, #6]
     be4:	2b01      	cmp	r3, #1
     be6:	d108      	bne.n	bfa <spi_read+0x72>
		*rx_data = (spi_module->DATA.reg & SERCOM_SPI_DATA_MASK);
     be8:	68bb      	ldr	r3, [r7, #8]
     bea:	6a9b      	ldr	r3, [r3, #40]	; 0x28
     bec:	b29b      	uxth	r3, r3
     bee:	05db      	lsls	r3, r3, #23
     bf0:	0ddb      	lsrs	r3, r3, #23
     bf2:	b29a      	uxth	r2, r3
     bf4:	683b      	ldr	r3, [r7, #0]
     bf6:	801a      	strh	r2, [r3, #0]
     bf8:	e005      	b.n	c06 <spi_read+0x7e>
	} else {
		*rx_data = (uint8_t)spi_module->DATA.reg;
     bfa:	68bb      	ldr	r3, [r7, #8]
     bfc:	6a9b      	ldr	r3, [r3, #40]	; 0x28
     bfe:	b2db      	uxtb	r3, r3
     c00:	b29a      	uxth	r2, r3
     c02:	683b      	ldr	r3, [r7, #0]
     c04:	801a      	strh	r2, [r3, #0]
	}

	return retval;
     c06:	230f      	movs	r3, #15
     c08:	18fb      	adds	r3, r7, r3
     c0a:	781b      	ldrb	r3, [r3, #0]
}
     c0c:	1c18      	adds	r0, r3, #0
     c0e:	46bd      	mov	sp, r7
     c10:	b004      	add	sp, #16
     c12:	bd80      	pop	{r7, pc}
     c14:	00000b19 	.word	0x00000b19

00000c18 <_spi_set_config>:
 * \retval STATUS_OK               If the configuration was written
 */
static enum status_code _spi_set_config(
		struct spi_module *const module,
		const struct spi_config *const config)
{
     c18:	b590      	push	{r4, r7, lr}
     c1a:	b093      	sub	sp, #76	; 0x4c
     c1c:	af00      	add	r7, sp, #0
     c1e:	6078      	str	r0, [r7, #4]
     c20:	6039      	str	r1, [r7, #0]
	/* Sanity check arguments */
	Assert(module);
	Assert(config);
	Assert(module->hw);

	SercomSpi *const spi_module = &(module->hw->SPI);
     c22:	687b      	ldr	r3, [r7, #4]
     c24:	681b      	ldr	r3, [r3, #0]
     c26:	637b      	str	r3, [r7, #52]	; 0x34
	Sercom *const hw = module->hw;
     c28:	687b      	ldr	r3, [r7, #4]
     c2a:	681b      	ldr	r3, [r3, #0]
     c2c:	633b      	str	r3, [r7, #48]	; 0x30

	struct system_pinmux_config pin_conf;
	system_pinmux_get_config_defaults(&pin_conf);
     c2e:	231c      	movs	r3, #28
     c30:	18fb      	adds	r3, r7, r3
     c32:	1c18      	adds	r0, r3, #0
     c34:	4b86      	ldr	r3, [pc, #536]	; (e50 <_spi_set_config+0x238>)
     c36:	4798      	blx	r3
	pin_conf.direction = SYSTEM_PINMUX_PIN_DIR_INPUT;
     c38:	231c      	movs	r3, #28
     c3a:	18fb      	adds	r3, r7, r3
     c3c:	2200      	movs	r2, #0
     c3e:	705a      	strb	r2, [r3, #1]
	if(config->mode == SPI_MODE_SLAVE) {
     c40:	683b      	ldr	r3, [r7, #0]
     c42:	781b      	ldrb	r3, [r3, #0]
     c44:	2b00      	cmp	r3, #0
     c46:	d103      	bne.n	c50 <_spi_set_config+0x38>
		pin_conf.input_pull = SYSTEM_PINMUX_PIN_PULL_NONE;
     c48:	231c      	movs	r3, #28
     c4a:	18fb      	adds	r3, r7, r3
     c4c:	2200      	movs	r2, #0
     c4e:	709a      	strb	r2, [r3, #2]
	}

	uint32_t pad_pinmuxes[] = {
			config->pinmux_pad0, config->pinmux_pad1,
     c50:	683b      	ldr	r3, [r7, #0]
     c52:	6a9a      	ldr	r2, [r3, #40]	; 0x28
	pin_conf.direction = SYSTEM_PINMUX_PIN_DIR_INPUT;
	if(config->mode == SPI_MODE_SLAVE) {
		pin_conf.input_pull = SYSTEM_PINMUX_PIN_PULL_NONE;
	}

	uint32_t pad_pinmuxes[] = {
     c54:	230c      	movs	r3, #12
     c56:	18fb      	adds	r3, r7, r3
     c58:	601a      	str	r2, [r3, #0]
			config->pinmux_pad0, config->pinmux_pad1,
     c5a:	683b      	ldr	r3, [r7, #0]
     c5c:	6ada      	ldr	r2, [r3, #44]	; 0x2c
	pin_conf.direction = SYSTEM_PINMUX_PIN_DIR_INPUT;
	if(config->mode == SPI_MODE_SLAVE) {
		pin_conf.input_pull = SYSTEM_PINMUX_PIN_PULL_NONE;
	}

	uint32_t pad_pinmuxes[] = {
     c5e:	230c      	movs	r3, #12
     c60:	18fb      	adds	r3, r7, r3
     c62:	605a      	str	r2, [r3, #4]
			config->pinmux_pad0, config->pinmux_pad1,
			config->pinmux_pad2, config->pinmux_pad3
     c64:	683b      	ldr	r3, [r7, #0]
     c66:	6b1a      	ldr	r2, [r3, #48]	; 0x30
	pin_conf.direction = SYSTEM_PINMUX_PIN_DIR_INPUT;
	if(config->mode == SPI_MODE_SLAVE) {
		pin_conf.input_pull = SYSTEM_PINMUX_PIN_PULL_NONE;
	}

	uint32_t pad_pinmuxes[] = {
     c68:	230c      	movs	r3, #12
     c6a:	18fb      	adds	r3, r7, r3
     c6c:	609a      	str	r2, [r3, #8]
			config->pinmux_pad0, config->pinmux_pad1,
			config->pinmux_pad2, config->pinmux_pad3
     c6e:	683b      	ldr	r3, [r7, #0]
     c70:	6b5a      	ldr	r2, [r3, #52]	; 0x34
	pin_conf.direction = SYSTEM_PINMUX_PIN_DIR_INPUT;
	if(config->mode == SPI_MODE_SLAVE) {
		pin_conf.input_pull = SYSTEM_PINMUX_PIN_PULL_NONE;
	}

	uint32_t pad_pinmuxes[] = {
     c72:	230c      	movs	r3, #12
     c74:	18fb      	adds	r3, r7, r3
     c76:	60da      	str	r2, [r3, #12]
			config->pinmux_pad0, config->pinmux_pad1,
			config->pinmux_pad2, config->pinmux_pad3
		};

	/* Configure the SERCOM pins according to the user configuration */
	for (uint8_t pad = 0; pad < 4; pad++) {
     c78:	2347      	movs	r3, #71	; 0x47
     c7a:	18fb      	adds	r3, r7, r3
     c7c:	2200      	movs	r2, #0
     c7e:	701a      	strb	r2, [r3, #0]
     c80:	e02c      	b.n	cdc <_spi_set_config+0xc4>
		uint32_t current_pinmux = pad_pinmuxes[pad];
     c82:	2347      	movs	r3, #71	; 0x47
     c84:	18fb      	adds	r3, r7, r3
     c86:	781a      	ldrb	r2, [r3, #0]
     c88:	230c      	movs	r3, #12
     c8a:	18fb      	adds	r3, r7, r3
     c8c:	0092      	lsls	r2, r2, #2
     c8e:	58d3      	ldr	r3, [r2, r3]
     c90:	643b      	str	r3, [r7, #64]	; 0x40

		if (current_pinmux == PINMUX_DEFAULT) {
     c92:	6c3b      	ldr	r3, [r7, #64]	; 0x40
     c94:	2b00      	cmp	r3, #0
     c96:	d109      	bne.n	cac <_spi_set_config+0x94>
			current_pinmux = _sercom_get_default_pad(hw, pad);
     c98:	6b3a      	ldr	r2, [r7, #48]	; 0x30
     c9a:	2347      	movs	r3, #71	; 0x47
     c9c:	18fb      	adds	r3, r7, r3
     c9e:	781b      	ldrb	r3, [r3, #0]
     ca0:	1c10      	adds	r0, r2, #0
     ca2:	1c19      	adds	r1, r3, #0
     ca4:	4b6b      	ldr	r3, [pc, #428]	; (e54 <_spi_set_config+0x23c>)
     ca6:	4798      	blx	r3
     ca8:	1c03      	adds	r3, r0, #0
     caa:	643b      	str	r3, [r7, #64]	; 0x40
		}

		if (current_pinmux != PINMUX_UNUSED) {
     cac:	6c3b      	ldr	r3, [r7, #64]	; 0x40
     cae:	3301      	adds	r3, #1
     cb0:	d00d      	beq.n	cce <_spi_set_config+0xb6>
			pin_conf.mux_position = current_pinmux & 0xFFFF;
     cb2:	6c3b      	ldr	r3, [r7, #64]	; 0x40
     cb4:	b2da      	uxtb	r2, r3
     cb6:	231c      	movs	r3, #28
     cb8:	18fb      	adds	r3, r7, r3
     cba:	701a      	strb	r2, [r3, #0]
			system_pinmux_pin_set_config(current_pinmux >> 16, &pin_conf);
     cbc:	6c3b      	ldr	r3, [r7, #64]	; 0x40
     cbe:	0c1b      	lsrs	r3, r3, #16
     cc0:	b2da      	uxtb	r2, r3
     cc2:	231c      	movs	r3, #28
     cc4:	18fb      	adds	r3, r7, r3
     cc6:	1c10      	adds	r0, r2, #0
     cc8:	1c19      	adds	r1, r3, #0
     cca:	4b63      	ldr	r3, [pc, #396]	; (e58 <_spi_set_config+0x240>)
     ccc:	4798      	blx	r3
			config->pinmux_pad0, config->pinmux_pad1,
			config->pinmux_pad2, config->pinmux_pad3
		};

	/* Configure the SERCOM pins according to the user configuration */
	for (uint8_t pad = 0; pad < 4; pad++) {
     cce:	2347      	movs	r3, #71	; 0x47
     cd0:	18fb      	adds	r3, r7, r3
     cd2:	781a      	ldrb	r2, [r3, #0]
     cd4:	2347      	movs	r3, #71	; 0x47
     cd6:	18fb      	adds	r3, r7, r3
     cd8:	3201      	adds	r2, #1
     cda:	701a      	strb	r2, [r3, #0]
     cdc:	2347      	movs	r3, #71	; 0x47
     cde:	18fb      	adds	r3, r7, r3
     ce0:	781b      	ldrb	r3, [r3, #0]
     ce2:	2b03      	cmp	r3, #3
     ce4:	d9cd      	bls.n	c82 <_spi_set_config+0x6a>
			pin_conf.mux_position = current_pinmux & 0xFFFF;
			system_pinmux_pin_set_config(current_pinmux >> 16, &pin_conf);
		}
	}

	module->mode             = config->mode;
     ce6:	683b      	ldr	r3, [r7, #0]
     ce8:	781a      	ldrb	r2, [r3, #0]
     cea:	687b      	ldr	r3, [r7, #4]
     cec:	715a      	strb	r2, [r3, #5]
	module->character_size   = config->character_size;
     cee:	683b      	ldr	r3, [r7, #0]
     cf0:	7c1a      	ldrb	r2, [r3, #16]
     cf2:	687b      	ldr	r3, [r7, #4]
     cf4:	719a      	strb	r2, [r3, #6]
	module->receiver_enabled = config->receiver_enable;
     cf6:	683b      	ldr	r3, [r7, #0]
     cf8:	7c9a      	ldrb	r2, [r3, #18]
     cfa:	687b      	ldr	r3, [r7, #4]
     cfc:	71da      	strb	r2, [r3, #7]
#  ifdef FEATURE_SPI_HARDWARE_SLAVE_SELECT
	module->master_slave_select_enable = config->master_slave_select_enable;
     cfe:	683b      	ldr	r3, [r7, #0]
     d00:	7d1a      	ldrb	r2, [r3, #20]
     d02:	687b      	ldr	r3, [r7, #4]
     d04:	721a      	strb	r2, [r3, #8]
#  endif

#  if CONF_SPI_MASTER_ENABLE == true
	/* Value to write to BAUD register */
	uint16_t baud = 0;
     d06:	230a      	movs	r3, #10
     d08:	18fb      	adds	r3, r7, r3
     d0a:	2200      	movs	r2, #0
     d0c:	801a      	strh	r2, [r3, #0]
#  endif
	/* Value to write to CTRLA register */
	uint32_t ctrla = 0;
     d0e:	2300      	movs	r3, #0
     d10:	63fb      	str	r3, [r7, #60]	; 0x3c
	/* Value to write to CTRLB register */
	uint32_t ctrlb = 0;
     d12:	2300      	movs	r3, #0
     d14:	63bb      	str	r3, [r7, #56]	; 0x38

# if CONF_SPI_MASTER_ENABLE == true
	/* Find baud value and write it */
	if (config->mode == SPI_MODE_MASTER) {
     d16:	683b      	ldr	r3, [r7, #0]
     d18:	781b      	ldrb	r3, [r3, #0]
     d1a:	2b01      	cmp	r3, #1
     d1c:	d12b      	bne.n	d76 <_spi_set_config+0x15e>
		/* Find frequency of the internal SERCOMi_GCLK_ID_CORE */
		uint32_t sercom_index = _sercom_get_sercom_inst_index(module->hw);
     d1e:	687b      	ldr	r3, [r7, #4]
     d20:	681b      	ldr	r3, [r3, #0]
     d22:	1c18      	adds	r0, r3, #0
     d24:	4b4d      	ldr	r3, [pc, #308]	; (e5c <_spi_set_config+0x244>)
     d26:	4798      	blx	r3
     d28:	1c03      	adds	r3, r0, #0
     d2a:	62fb      	str	r3, [r7, #44]	; 0x2c
		uint32_t gclk_index   = sercom_index + SERCOM0_GCLK_ID_CORE;
     d2c:	6afb      	ldr	r3, [r7, #44]	; 0x2c
     d2e:	3314      	adds	r3, #20
     d30:	62bb      	str	r3, [r7, #40]	; 0x28
		uint32_t internal_clock = system_gclk_chan_get_hz(gclk_index);
     d32:	6abb      	ldr	r3, [r7, #40]	; 0x28
     d34:	b2db      	uxtb	r3, r3
     d36:	1c18      	adds	r0, r3, #0
     d38:	4b49      	ldr	r3, [pc, #292]	; (e60 <_spi_set_config+0x248>)
     d3a:	4798      	blx	r3
     d3c:	1c03      	adds	r3, r0, #0
     d3e:	627b      	str	r3, [r7, #36]	; 0x24

		/* Get baud value, based on baudrate and the internal clock frequency */
		enum status_code error_code = _sercom_get_sync_baud_val(
     d40:	683b      	ldr	r3, [r7, #0]
     d42:	6999      	ldr	r1, [r3, #24]
     d44:	2323      	movs	r3, #35	; 0x23
     d46:	18fc      	adds	r4, r7, r3
     d48:	6a7a      	ldr	r2, [r7, #36]	; 0x24
     d4a:	230a      	movs	r3, #10
     d4c:	18fb      	adds	r3, r7, r3
     d4e:	1c08      	adds	r0, r1, #0
     d50:	1c11      	adds	r1, r2, #0
     d52:	1c1a      	adds	r2, r3, #0
     d54:	4b43      	ldr	r3, [pc, #268]	; (e64 <_spi_set_config+0x24c>)
     d56:	4798      	blx	r3
     d58:	1c03      	adds	r3, r0, #0
     d5a:	7023      	strb	r3, [r4, #0]
				config->mode_specific.master.baudrate,
				internal_clock, &baud);

		if (error_code != STATUS_OK) {
     d5c:	2323      	movs	r3, #35	; 0x23
     d5e:	18fb      	adds	r3, r7, r3
     d60:	781b      	ldrb	r3, [r3, #0]
     d62:	2b00      	cmp	r3, #0
     d64:	d001      	beq.n	d6a <_spi_set_config+0x152>
			/* Baud rate calculation error, return status code */
			return STATUS_ERR_INVALID_ARG;
     d66:	2317      	movs	r3, #23
     d68:	e06d      	b.n	e46 <_spi_set_config+0x22e>
		}

		spi_module->BAUD.reg = (uint8_t)baud;
     d6a:	230a      	movs	r3, #10
     d6c:	18fb      	adds	r3, r7, r3
     d6e:	881b      	ldrh	r3, [r3, #0]
     d70:	b2da      	uxtb	r2, r3
     d72:	6b7b      	ldr	r3, [r7, #52]	; 0x34
     d74:	731a      	strb	r2, [r3, #12]
	}
# endif
# if CONF_SPI_SLAVE_ENABLE == true
	if (config->mode == SPI_MODE_SLAVE) {
     d76:	683b      	ldr	r3, [r7, #0]
     d78:	781b      	ldrb	r3, [r3, #0]
     d7a:	2b00      	cmp	r3, #0
     d7c:	d11a      	bne.n	db4 <_spi_set_config+0x19c>
		/* Set frame format */
		ctrla = config->mode_specific.slave.frame_format;
     d7e:	683b      	ldr	r3, [r7, #0]
     d80:	699b      	ldr	r3, [r3, #24]
     d82:	63fb      	str	r3, [r7, #60]	; 0x3c

		/* Set address mode */
		ctrlb = config->mode_specific.slave.address_mode;
     d84:	683b      	ldr	r3, [r7, #0]
     d86:	8b9b      	ldrh	r3, [r3, #28]
     d88:	63bb      	str	r3, [r7, #56]	; 0x38

		/* Set address and address mask*/
		spi_module->ADDR.reg |=
     d8a:	6b7b      	ldr	r3, [r7, #52]	; 0x34
     d8c:	6a5b      	ldr	r3, [r3, #36]	; 0x24
				(config->mode_specific.slave.address      << SERCOM_SPI_ADDR_ADDR_Pos) |
     d8e:	683a      	ldr	r2, [r7, #0]
     d90:	7f92      	ldrb	r2, [r2, #30]
     d92:	1c11      	adds	r1, r2, #0
				(config->mode_specific.slave.address_mask << SERCOM_SPI_ADDR_ADDRMASK_Pos);
     d94:	683a      	ldr	r2, [r7, #0]
     d96:	7fd2      	ldrb	r2, [r2, #31]
     d98:	0412      	lsls	r2, r2, #16
		/* Set address mode */
		ctrlb = config->mode_specific.slave.address_mode;

		/* Set address and address mask*/
		spi_module->ADDR.reg |=
				(config->mode_specific.slave.address      << SERCOM_SPI_ADDR_ADDR_Pos) |
     d9a:	430a      	orrs	r2, r1

		/* Set address mode */
		ctrlb = config->mode_specific.slave.address_mode;

		/* Set address and address mask*/
		spi_module->ADDR.reg |=
     d9c:	431a      	orrs	r2, r3
     d9e:	6b7b      	ldr	r3, [r7, #52]	; 0x34
     da0:	625a      	str	r2, [r3, #36]	; 0x24
				(config->mode_specific.slave.address      << SERCOM_SPI_ADDR_ADDR_Pos) |
				(config->mode_specific.slave.address_mask << SERCOM_SPI_ADDR_ADDRMASK_Pos);

		if (config->mode_specific.slave.preload_enable) {
     da2:	683b      	ldr	r3, [r7, #0]
     da4:	2220      	movs	r2, #32
     da6:	5c9b      	ldrb	r3, [r3, r2]
     da8:	2b00      	cmp	r3, #0
     daa:	d003      	beq.n	db4 <_spi_set_config+0x19c>
			/* Enable pre-loading of shift register */
			ctrlb |= SERCOM_SPI_CTRLB_PLOADEN;
     dac:	6bbb      	ldr	r3, [r7, #56]	; 0x38
     dae:	2240      	movs	r2, #64	; 0x40
     db0:	4313      	orrs	r3, r2
     db2:	63bb      	str	r3, [r7, #56]	; 0x38
		}
	}
# endif
	/* Set data order */
	ctrla |= config->data_order;
     db4:	683b      	ldr	r3, [r7, #0]
     db6:	685b      	ldr	r3, [r3, #4]
     db8:	6bfa      	ldr	r2, [r7, #60]	; 0x3c
     dba:	4313      	orrs	r3, r2
     dbc:	63fb      	str	r3, [r7, #60]	; 0x3c

	/* Set clock polarity and clock phase */
	ctrla |= config->transfer_mode;
     dbe:	683b      	ldr	r3, [r7, #0]
     dc0:	689b      	ldr	r3, [r3, #8]
     dc2:	6bfa      	ldr	r2, [r7, #60]	; 0x3c
     dc4:	4313      	orrs	r3, r2
     dc6:	63fb      	str	r3, [r7, #60]	; 0x3c

	/* Set MUX setting */
	ctrla |= config->mux_setting;
     dc8:	683b      	ldr	r3, [r7, #0]
     dca:	68db      	ldr	r3, [r3, #12]
     dcc:	6bfa      	ldr	r2, [r7, #60]	; 0x3c
     dce:	4313      	orrs	r3, r2
     dd0:	63fb      	str	r3, [r7, #60]	; 0x3c

	/* Set SPI character size */
	ctrlb |= config->character_size;
     dd2:	683b      	ldr	r3, [r7, #0]
     dd4:	7c1b      	ldrb	r3, [r3, #16]
     dd6:	1c1a      	adds	r2, r3, #0
     dd8:	6bbb      	ldr	r3, [r7, #56]	; 0x38
     dda:	4313      	orrs	r3, r2
     ddc:	63bb      	str	r3, [r7, #56]	; 0x38

	/* Set whether module should run in standby. */
	if (config->run_in_standby || system_is_debugger_present()) {
     dde:	683b      	ldr	r3, [r7, #0]
     de0:	7c5b      	ldrb	r3, [r3, #17]
     de2:	2b00      	cmp	r3, #0
     de4:	d103      	bne.n	dee <_spi_set_config+0x1d6>
     de6:	4b20      	ldr	r3, [pc, #128]	; (e68 <_spi_set_config+0x250>)
     de8:	4798      	blx	r3
     dea:	1e03      	subs	r3, r0, #0
     dec:	d003      	beq.n	df6 <_spi_set_config+0x1de>
		ctrla |= SERCOM_SPI_CTRLA_RUNSTDBY;
     dee:	6bfb      	ldr	r3, [r7, #60]	; 0x3c
     df0:	2280      	movs	r2, #128	; 0x80
     df2:	4313      	orrs	r3, r2
     df4:	63fb      	str	r3, [r7, #60]	; 0x3c
	}

	if (config->receiver_enable) {
     df6:	683b      	ldr	r3, [r7, #0]
     df8:	7c9b      	ldrb	r3, [r3, #18]
     dfa:	2b00      	cmp	r3, #0
     dfc:	d004      	beq.n	e08 <_spi_set_config+0x1f0>
		/* Enable receiver */
		ctrlb |= SERCOM_SPI_CTRLB_RXEN;
     dfe:	6bbb      	ldr	r3, [r7, #56]	; 0x38
     e00:	2280      	movs	r2, #128	; 0x80
     e02:	0292      	lsls	r2, r2, #10
     e04:	4313      	orrs	r3, r2
     e06:	63bb      	str	r3, [r7, #56]	; 0x38
	}
#  ifdef FEATURE_SPI_SLAVE_SELECT_LOW_DETECT
	if (config->select_slave_low_detect_enable) {
     e08:	683b      	ldr	r3, [r7, #0]
     e0a:	7cdb      	ldrb	r3, [r3, #19]
     e0c:	2b00      	cmp	r3, #0
     e0e:	d004      	beq.n	e1a <_spi_set_config+0x202>
		/* Enable Slave Select Low Detect */
		ctrlb |= SERCOM_SPI_CTRLB_SSDE;
     e10:	6bbb      	ldr	r3, [r7, #56]	; 0x38
     e12:	2280      	movs	r2, #128	; 0x80
     e14:	0092      	lsls	r2, r2, #2
     e16:	4313      	orrs	r3, r2
     e18:	63bb      	str	r3, [r7, #56]	; 0x38
	}
#  endif
#  ifdef FEATURE_SPI_HARDWARE_SLAVE_SELECT
	if (config->master_slave_select_enable) {
     e1a:	683b      	ldr	r3, [r7, #0]
     e1c:	7d1b      	ldrb	r3, [r3, #20]
     e1e:	2b00      	cmp	r3, #0
     e20:	d004      	beq.n	e2c <_spi_set_config+0x214>
		/* Enable Master Slave Select */
		ctrlb |= SERCOM_SPI_CTRLB_MSSEN;
     e22:	6bbb      	ldr	r3, [r7, #56]	; 0x38
     e24:	2280      	movs	r2, #128	; 0x80
     e26:	0192      	lsls	r2, r2, #6
     e28:	4313      	orrs	r3, r2
     e2a:	63bb      	str	r3, [r7, #56]	; 0x38
	}
#  endif
	/* Write CTRLA register */
	spi_module->CTRLA.reg |= ctrla;
     e2c:	6b7b      	ldr	r3, [r7, #52]	; 0x34
     e2e:	681a      	ldr	r2, [r3, #0]
     e30:	6bfb      	ldr	r3, [r7, #60]	; 0x3c
     e32:	431a      	orrs	r2, r3
     e34:	6b7b      	ldr	r3, [r7, #52]	; 0x34
     e36:	601a      	str	r2, [r3, #0]

	/* Write CTRLB register */
	spi_module->CTRLB.reg |= ctrlb;
     e38:	6b7b      	ldr	r3, [r7, #52]	; 0x34
     e3a:	685a      	ldr	r2, [r3, #4]
     e3c:	6bbb      	ldr	r3, [r7, #56]	; 0x38
     e3e:	431a      	orrs	r2, r3
     e40:	6b7b      	ldr	r3, [r7, #52]	; 0x34
     e42:	605a      	str	r2, [r3, #4]

	return STATUS_OK;
     e44:	2300      	movs	r3, #0
}
     e46:	1c18      	adds	r0, r3, #0
     e48:	46bd      	mov	sp, r7
     e4a:	b013      	add	sp, #76	; 0x4c
     e4c:	bd90      	pop	{r4, r7, pc}
     e4e:	46c0      	nop			; (mov r8, r8)
     e50:	000008e9 	.word	0x000008e9
     e54:	000006e1 	.word	0x000006e1
     e58:	00004eed 	.word	0x00004eed
     e5c:	0000089d 	.word	0x0000089d
     e60:	00004d25 	.word	0x00004d25
     e64:	000005d9 	.word	0x000005d9
     e68:	00000ad1 	.word	0x00000ad1

00000e6c <_spi_check_config>:
 * \retval STATUS_OK               If the configuration was written
 */
static enum status_code _spi_check_config(
		struct spi_module *const module,
		const struct spi_config *const config)
{
     e6c:	b590      	push	{r4, r7, lr}
     e6e:	b091      	sub	sp, #68	; 0x44
     e70:	af00      	add	r7, sp, #0
     e72:	6078      	str	r0, [r7, #4]
     e74:	6039      	str	r1, [r7, #0]
	/* Sanity check arguments */
	Assert(module);
	Assert(config);
	Assert(module->hw);

	SercomSpi *const spi_module = &(module->hw->SPI);
     e76:	687b      	ldr	r3, [r7, #4]
     e78:	681b      	ldr	r3, [r3, #0]
     e7a:	62fb      	str	r3, [r7, #44]	; 0x2c
	Sercom *const hw = module->hw;
     e7c:	687b      	ldr	r3, [r7, #4]
     e7e:	681b      	ldr	r3, [r3, #0]
     e80:	62bb      	str	r3, [r7, #40]	; 0x28

	uint32_t pad_pinmuxes[] = {
		config->pinmux_pad0, config->pinmux_pad1,
     e82:	683b      	ldr	r3, [r7, #0]
     e84:	6a9a      	ldr	r2, [r3, #40]	; 0x28
	Assert(module->hw);

	SercomSpi *const spi_module = &(module->hw->SPI);
	Sercom *const hw = module->hw;

	uint32_t pad_pinmuxes[] = {
     e86:	230c      	movs	r3, #12
     e88:	18fb      	adds	r3, r7, r3
     e8a:	601a      	str	r2, [r3, #0]
		config->pinmux_pad0, config->pinmux_pad1,
     e8c:	683b      	ldr	r3, [r7, #0]
     e8e:	6ada      	ldr	r2, [r3, #44]	; 0x2c
	Assert(module->hw);

	SercomSpi *const spi_module = &(module->hw->SPI);
	Sercom *const hw = module->hw;

	uint32_t pad_pinmuxes[] = {
     e90:	230c      	movs	r3, #12
     e92:	18fb      	adds	r3, r7, r3
     e94:	605a      	str	r2, [r3, #4]
		config->pinmux_pad0, config->pinmux_pad1,
		config->pinmux_pad2, config->pinmux_pad3
     e96:	683b      	ldr	r3, [r7, #0]
     e98:	6b1a      	ldr	r2, [r3, #48]	; 0x30
	Assert(module->hw);

	SercomSpi *const spi_module = &(module->hw->SPI);
	Sercom *const hw = module->hw;

	uint32_t pad_pinmuxes[] = {
     e9a:	230c      	movs	r3, #12
     e9c:	18fb      	adds	r3, r7, r3
     e9e:	609a      	str	r2, [r3, #8]
		config->pinmux_pad0, config->pinmux_pad1,
		config->pinmux_pad2, config->pinmux_pad3
     ea0:	683b      	ldr	r3, [r7, #0]
     ea2:	6b5a      	ldr	r2, [r3, #52]	; 0x34
	Assert(module->hw);

	SercomSpi *const spi_module = &(module->hw->SPI);
	Sercom *const hw = module->hw;

	uint32_t pad_pinmuxes[] = {
     ea4:	230c      	movs	r3, #12
     ea6:	18fb      	adds	r3, r7, r3
     ea8:	60da      	str	r2, [r3, #12]
		config->pinmux_pad0, config->pinmux_pad1,
		config->pinmux_pad2, config->pinmux_pad3
	};

	/* Compare the current SERCOM pins against the user configuration */
	for (uint8_t pad = 0; pad < 4; pad++) {
     eaa:	233f      	movs	r3, #63	; 0x3f
     eac:	18fb      	adds	r3, r7, r3
     eae:	2200      	movs	r2, #0
     eb0:	701a      	strb	r2, [r3, #0]
     eb2:	e030      	b.n	f16 <_spi_check_config+0xaa>
		uint32_t current_pinmux = pad_pinmuxes[pad];
     eb4:	233f      	movs	r3, #63	; 0x3f
     eb6:	18fb      	adds	r3, r7, r3
     eb8:	781a      	ldrb	r2, [r3, #0]
     eba:	230c      	movs	r3, #12
     ebc:	18fb      	adds	r3, r7, r3
     ebe:	0092      	lsls	r2, r2, #2
     ec0:	58d3      	ldr	r3, [r2, r3]
     ec2:	63bb      	str	r3, [r7, #56]	; 0x38

		if (current_pinmux == PINMUX_DEFAULT) {
     ec4:	6bbb      	ldr	r3, [r7, #56]	; 0x38
     ec6:	2b00      	cmp	r3, #0
     ec8:	d109      	bne.n	ede <_spi_check_config+0x72>
			current_pinmux = _sercom_get_default_pad(hw, pad);
     eca:	6aba      	ldr	r2, [r7, #40]	; 0x28
     ecc:	233f      	movs	r3, #63	; 0x3f
     ece:	18fb      	adds	r3, r7, r3
     ed0:	781b      	ldrb	r3, [r3, #0]
     ed2:	1c10      	adds	r0, r2, #0
     ed4:	1c19      	adds	r1, r3, #0
     ed6:	4b6f      	ldr	r3, [pc, #444]	; (1094 <_spi_check_config+0x228>)
     ed8:	4798      	blx	r3
     eda:	1c03      	adds	r3, r0, #0
     edc:	63bb      	str	r3, [r7, #56]	; 0x38
		}

		if (current_pinmux == PINMUX_UNUSED) {
     ede:	6bbb      	ldr	r3, [r7, #56]	; 0x38
     ee0:	3301      	adds	r3, #1
     ee2:	d100      	bne.n	ee6 <_spi_check_config+0x7a>
			continue;
     ee4:	e010      	b.n	f08 <_spi_check_config+0x9c>
		}

		if ((current_pinmux & 0xFFFF) !=
     ee6:	6bbb      	ldr	r3, [r7, #56]	; 0x38
     ee8:	041b      	lsls	r3, r3, #16
     eea:	0c1c      	lsrs	r4, r3, #16
				system_pinmux_pin_get_mux_position(current_pinmux >> 16)) {
     eec:	6bbb      	ldr	r3, [r7, #56]	; 0x38
     eee:	0c1b      	lsrs	r3, r3, #16
     ef0:	b2db      	uxtb	r3, r3
     ef2:	1c18      	adds	r0, r3, #0
     ef4:	4b68      	ldr	r3, [pc, #416]	; (1098 <_spi_check_config+0x22c>)
     ef6:	4798      	blx	r3
     ef8:	1c03      	adds	r3, r0, #0

		if (current_pinmux == PINMUX_UNUSED) {
			continue;
		}

		if ((current_pinmux & 0xFFFF) !=
     efa:	429c      	cmp	r4, r3
     efc:	d004      	beq.n	f08 <_spi_check_config+0x9c>
				system_pinmux_pin_get_mux_position(current_pinmux >> 16)) {
			module->hw = NULL;
     efe:	687b      	ldr	r3, [r7, #4]
     f00:	2200      	movs	r2, #0
     f02:	601a      	str	r2, [r3, #0]
			return STATUS_ERR_DENIED;
     f04:	231c      	movs	r3, #28
     f06:	e0c0      	b.n	108a <_spi_check_config+0x21e>
		config->pinmux_pad0, config->pinmux_pad1,
		config->pinmux_pad2, config->pinmux_pad3
	};

	/* Compare the current SERCOM pins against the user configuration */
	for (uint8_t pad = 0; pad < 4; pad++) {
     f08:	233f      	movs	r3, #63	; 0x3f
     f0a:	18fb      	adds	r3, r7, r3
     f0c:	781a      	ldrb	r2, [r3, #0]
     f0e:	233f      	movs	r3, #63	; 0x3f
     f10:	18fb      	adds	r3, r7, r3
     f12:	3201      	adds	r2, #1
     f14:	701a      	strb	r2, [r3, #0]
     f16:	233f      	movs	r3, #63	; 0x3f
     f18:	18fb      	adds	r3, r7, r3
     f1a:	781b      	ldrb	r3, [r3, #0]
     f1c:	2b03      	cmp	r3, #3
     f1e:	d9c9      	bls.n	eb4 <_spi_check_config+0x48>
	}

#  if CONF_SPI_MASTER_ENABLE == true
	/* Value to read BAUD register */
	uint16_t baud;
	uint32_t external_clock = system_gclk_chan_get_hz(SERCOM_GCLK_ID);
     f20:	2013      	movs	r0, #19
     f22:	4b5e      	ldr	r3, [pc, #376]	; (109c <_spi_check_config+0x230>)
     f24:	4798      	blx	r3
     f26:	1c03      	adds	r3, r0, #0
     f28:	627b      	str	r3, [r7, #36]	; 0x24
#  endif
	/* Value to read CTRLA, CTRLB and ADDR register */
	uint32_t ctrla = 0;
     f2a:	2300      	movs	r3, #0
     f2c:	637b      	str	r3, [r7, #52]	; 0x34
	uint32_t ctrlb = 0;
     f2e:	2300      	movs	r3, #0
     f30:	633b      	str	r3, [r7, #48]	; 0x30
#  if CONF_SPI_SLAVE_ENABLE == true
	uint32_t addr = 0;
     f32:	2300      	movs	r3, #0
     f34:	623b      	str	r3, [r7, #32]
#  endif

#  if CONF_SPI_MASTER_ENABLE == true
	/* Find baud value and compare it */
	if (config->mode == SPI_MODE_MASTER) {
     f36:	683b      	ldr	r3, [r7, #0]
     f38:	781b      	ldrb	r3, [r3, #0]
     f3a:	2b01      	cmp	r3, #1
     f3c:	d123      	bne.n	f86 <_spi_check_config+0x11a>
		enum status_code error_code = _sercom_get_sync_baud_val(
     f3e:	683b      	ldr	r3, [r7, #0]
     f40:	6999      	ldr	r1, [r3, #24]
     f42:	231f      	movs	r3, #31
     f44:	18fc      	adds	r4, r7, r3
     f46:	6a7a      	ldr	r2, [r7, #36]	; 0x24
     f48:	230a      	movs	r3, #10
     f4a:	18fb      	adds	r3, r7, r3
     f4c:	1c08      	adds	r0, r1, #0
     f4e:	1c11      	adds	r1, r2, #0
     f50:	1c1a      	adds	r2, r3, #0
     f52:	4b53      	ldr	r3, [pc, #332]	; (10a0 <_spi_check_config+0x234>)
     f54:	4798      	blx	r3
     f56:	1c03      	adds	r3, r0, #0
     f58:	7023      	strb	r3, [r4, #0]
				config->mode_specific.master.baudrate,
				external_clock, &baud);

		if (error_code != STATUS_OK) {
     f5a:	231f      	movs	r3, #31
     f5c:	18fb      	adds	r3, r7, r3
     f5e:	781b      	ldrb	r3, [r3, #0]
     f60:	2b00      	cmp	r3, #0
     f62:	d001      	beq.n	f68 <_spi_check_config+0xfc>
			/* Baud rate calculation error, return status code */
			return STATUS_ERR_INVALID_ARG;
     f64:	2317      	movs	r3, #23
     f66:	e090      	b.n	108a <_spi_check_config+0x21e>
		}

		if (spi_module->BAUD.reg !=  (uint8_t)baud) {
     f68:	6afb      	ldr	r3, [r7, #44]	; 0x2c
     f6a:	7b1b      	ldrb	r3, [r3, #12]
     f6c:	b2da      	uxtb	r2, r3
     f6e:	230a      	movs	r3, #10
     f70:	18fb      	adds	r3, r7, r3
     f72:	881b      	ldrh	r3, [r3, #0]
     f74:	b2db      	uxtb	r3, r3
     f76:	429a      	cmp	r2, r3
     f78:	d001      	beq.n	f7e <_spi_check_config+0x112>
			return STATUS_ERR_DENIED;
     f7a:	231c      	movs	r3, #28
     f7c:	e085      	b.n	108a <_spi_check_config+0x21e>
		}

		ctrla |= SERCOM_SPI_CTRLA_MODE(0x3);
     f7e:	6b7b      	ldr	r3, [r7, #52]	; 0x34
     f80:	220c      	movs	r2, #12
     f82:	4313      	orrs	r3, r2
     f84:	637b      	str	r3, [r7, #52]	; 0x34
	}
#  endif

#  if CONF_SPI_SLAVE_ENABLE == true
	if (config->mode == SPI_MODE_SLAVE) {
     f86:	683b      	ldr	r3, [r7, #0]
     f88:	781b      	ldrb	r3, [r3, #0]
     f8a:	2b00      	cmp	r3, #0
     f8c:	d129      	bne.n	fe2 <_spi_check_config+0x176>

		/* Set frame format */
		ctrla |= config->mode_specific.slave.frame_format;
     f8e:	683b      	ldr	r3, [r7, #0]
     f90:	699b      	ldr	r3, [r3, #24]
     f92:	6b7a      	ldr	r2, [r7, #52]	; 0x34
     f94:	4313      	orrs	r3, r2
     f96:	637b      	str	r3, [r7, #52]	; 0x34

		/* Set address mode */
		ctrlb |= config->mode_specific.slave.address_mode;
     f98:	683b      	ldr	r3, [r7, #0]
     f9a:	8b9b      	ldrh	r3, [r3, #28]
     f9c:	1c1a      	adds	r2, r3, #0
     f9e:	6b3b      	ldr	r3, [r7, #48]	; 0x30
     fa0:	4313      	orrs	r3, r2
     fa2:	633b      	str	r3, [r7, #48]	; 0x30

		/* Set address and address mask*/
		addr |= (config->mode_specific.slave.address      << SERCOM_SPI_ADDR_ADDR_Pos) |
     fa4:	683b      	ldr	r3, [r7, #0]
     fa6:	7f9b      	ldrb	r3, [r3, #30]
     fa8:	1c1a      	adds	r2, r3, #0
				(config->mode_specific.slave.address_mask << SERCOM_SPI_ADDR_ADDRMASK_Pos);
     faa:	683b      	ldr	r3, [r7, #0]
     fac:	7fdb      	ldrb	r3, [r3, #31]
     fae:	041b      	lsls	r3, r3, #16

		/* Set address mode */
		ctrlb |= config->mode_specific.slave.address_mode;

		/* Set address and address mask*/
		addr |= (config->mode_specific.slave.address      << SERCOM_SPI_ADDR_ADDR_Pos) |
     fb0:	4313      	orrs	r3, r2
     fb2:	1c1a      	adds	r2, r3, #0
     fb4:	6a3b      	ldr	r3, [r7, #32]
     fb6:	4313      	orrs	r3, r2
     fb8:	623b      	str	r3, [r7, #32]
				(config->mode_specific.slave.address_mask << SERCOM_SPI_ADDR_ADDRMASK_Pos);
		if (spi_module->CTRLA.reg != addr) {
     fba:	6afb      	ldr	r3, [r7, #44]	; 0x2c
     fbc:	681a      	ldr	r2, [r3, #0]
     fbe:	6a3b      	ldr	r3, [r7, #32]
     fc0:	429a      	cmp	r2, r3
     fc2:	d001      	beq.n	fc8 <_spi_check_config+0x15c>
			return STATUS_ERR_DENIED;
     fc4:	231c      	movs	r3, #28
     fc6:	e060      	b.n	108a <_spi_check_config+0x21e>
		}

		if (config->mode_specific.slave.preload_enable) {
     fc8:	683b      	ldr	r3, [r7, #0]
     fca:	2220      	movs	r2, #32
     fcc:	5c9b      	ldrb	r3, [r3, r2]
     fce:	2b00      	cmp	r3, #0
     fd0:	d003      	beq.n	fda <_spi_check_config+0x16e>
			/* Enable pre-loading of shift register */
			ctrlb |= SERCOM_SPI_CTRLB_PLOADEN;
     fd2:	6b3b      	ldr	r3, [r7, #48]	; 0x30
     fd4:	2240      	movs	r2, #64	; 0x40
     fd6:	4313      	orrs	r3, r2
     fd8:	633b      	str	r3, [r7, #48]	; 0x30
		}
		ctrla |= SERCOM_SPI_CTRLA_MODE(0x2);
     fda:	6b7b      	ldr	r3, [r7, #52]	; 0x34
     fdc:	2208      	movs	r2, #8
     fde:	4313      	orrs	r3, r2
     fe0:	637b      	str	r3, [r7, #52]	; 0x34
	}
#  endif
	/* Set data order */
	ctrla |= config->data_order;
     fe2:	683b      	ldr	r3, [r7, #0]
     fe4:	685b      	ldr	r3, [r3, #4]
     fe6:	6b7a      	ldr	r2, [r7, #52]	; 0x34
     fe8:	4313      	orrs	r3, r2
     fea:	637b      	str	r3, [r7, #52]	; 0x34

	/* Set clock polarity and clock phase */
	ctrla |= config->transfer_mode;
     fec:	683b      	ldr	r3, [r7, #0]
     fee:	689b      	ldr	r3, [r3, #8]
     ff0:	6b7a      	ldr	r2, [r7, #52]	; 0x34
     ff2:	4313      	orrs	r3, r2
     ff4:	637b      	str	r3, [r7, #52]	; 0x34

	/* Set MUX setting */
	ctrla |= config->mux_setting;
     ff6:	683b      	ldr	r3, [r7, #0]
     ff8:	68db      	ldr	r3, [r3, #12]
     ffa:	6b7a      	ldr	r2, [r7, #52]	; 0x34
     ffc:	4313      	orrs	r3, r2
     ffe:	637b      	str	r3, [r7, #52]	; 0x34

	/* Set SPI character size */
	ctrlb |= config->character_size;
    1000:	683b      	ldr	r3, [r7, #0]
    1002:	7c1b      	ldrb	r3, [r3, #16]
    1004:	1c1a      	adds	r2, r3, #0
    1006:	6b3b      	ldr	r3, [r7, #48]	; 0x30
    1008:	4313      	orrs	r3, r2
    100a:	633b      	str	r3, [r7, #48]	; 0x30

	if (config->run_in_standby) {
    100c:	683b      	ldr	r3, [r7, #0]
    100e:	7c5b      	ldrb	r3, [r3, #17]
    1010:	2b00      	cmp	r3, #0
    1012:	d003      	beq.n	101c <_spi_check_config+0x1b0>
		/* Enable in sleep mode */
		ctrla |= SERCOM_SPI_CTRLA_RUNSTDBY;
    1014:	6b7b      	ldr	r3, [r7, #52]	; 0x34
    1016:	2280      	movs	r2, #128	; 0x80
    1018:	4313      	orrs	r3, r2
    101a:	637b      	str	r3, [r7, #52]	; 0x34
	}

	if (config->receiver_enable) {
    101c:	683b      	ldr	r3, [r7, #0]
    101e:	7c9b      	ldrb	r3, [r3, #18]
    1020:	2b00      	cmp	r3, #0
    1022:	d004      	beq.n	102e <_spi_check_config+0x1c2>
		/* Enable receiver */
		ctrlb |= SERCOM_SPI_CTRLB_RXEN;
    1024:	6b3b      	ldr	r3, [r7, #48]	; 0x30
    1026:	2280      	movs	r2, #128	; 0x80
    1028:	0292      	lsls	r2, r2, #10
    102a:	4313      	orrs	r3, r2
    102c:	633b      	str	r3, [r7, #48]	; 0x30
	}

#  ifdef FEATURE_SPI_SLAVE_SELECT_LOW_DETECT
	if (config->select_slave_low_detect_enable) {
    102e:	683b      	ldr	r3, [r7, #0]
    1030:	7cdb      	ldrb	r3, [r3, #19]
    1032:	2b00      	cmp	r3, #0
    1034:	d004      	beq.n	1040 <_spi_check_config+0x1d4>
		/* Enable Slave Select Low Detect */
		ctrlb |= SERCOM_SPI_CTRLB_SSDE;
    1036:	6b3b      	ldr	r3, [r7, #48]	; 0x30
    1038:	2280      	movs	r2, #128	; 0x80
    103a:	0092      	lsls	r2, r2, #2
    103c:	4313      	orrs	r3, r2
    103e:	633b      	str	r3, [r7, #48]	; 0x30
	}
#  endif
#  ifdef FEATURE_SPI_HARDWARE_SLAVE_SELECT
	if (config->master_slave_select_enable) {
    1040:	683b      	ldr	r3, [r7, #0]
    1042:	7d1b      	ldrb	r3, [r3, #20]
    1044:	2b00      	cmp	r3, #0
    1046:	d004      	beq.n	1052 <_spi_check_config+0x1e6>
		/* Enable Master Slave Select */
		ctrlb |= SERCOM_SPI_CTRLB_MSSEN;
    1048:	6b3b      	ldr	r3, [r7, #48]	; 0x30
    104a:	2280      	movs	r2, #128	; 0x80
    104c:	0192      	lsls	r2, r2, #6
    104e:	4313      	orrs	r3, r2
    1050:	633b      	str	r3, [r7, #48]	; 0x30
	}
#  endif

	ctrla |= SERCOM_SPI_CTRLA_ENABLE;
    1052:	6b7b      	ldr	r3, [r7, #52]	; 0x34
    1054:	2202      	movs	r2, #2
    1056:	4313      	orrs	r3, r2
    1058:	637b      	str	r3, [r7, #52]	; 0x34

	/* Check that same config is set */
	if (spi_module->CTRLA.reg == ctrla &&
    105a:	6afb      	ldr	r3, [r7, #44]	; 0x2c
    105c:	681a      	ldr	r2, [r3, #0]
    105e:	6b7b      	ldr	r3, [r7, #52]	; 0x34
    1060:	429a      	cmp	r2, r3
    1062:	d10e      	bne.n	1082 <_spi_check_config+0x216>
			spi_module->CTRLB.reg == ctrlb) {
    1064:	6afb      	ldr	r3, [r7, #44]	; 0x2c
    1066:	685a      	ldr	r2, [r3, #4]
#  endif

	ctrla |= SERCOM_SPI_CTRLA_ENABLE;

	/* Check that same config is set */
	if (spi_module->CTRLA.reg == ctrla &&
    1068:	6b3b      	ldr	r3, [r7, #48]	; 0x30
    106a:	429a      	cmp	r2, r3
    106c:	d109      	bne.n	1082 <_spi_check_config+0x216>
			spi_module->CTRLB.reg == ctrlb) {
		module->mode           = config->mode;
    106e:	683b      	ldr	r3, [r7, #0]
    1070:	781a      	ldrb	r2, [r3, #0]
    1072:	687b      	ldr	r3, [r7, #4]
    1074:	715a      	strb	r2, [r3, #5]
		module->character_size = config->character_size;
    1076:	683b      	ldr	r3, [r7, #0]
    1078:	7c1a      	ldrb	r2, [r3, #16]
    107a:	687b      	ldr	r3, [r7, #4]
    107c:	719a      	strb	r2, [r3, #6]
		return STATUS_OK;
    107e:	2300      	movs	r3, #0
    1080:	e003      	b.n	108a <_spi_check_config+0x21e>
	}

	/* Not same config, wipe module pointer and return */
	module->hw = NULL;
    1082:	687b      	ldr	r3, [r7, #4]
    1084:	2200      	movs	r2, #0
    1086:	601a      	str	r2, [r3, #0]

	return STATUS_ERR_DENIED;
    1088:	231c      	movs	r3, #28
}
    108a:	1c18      	adds	r0, r3, #0
    108c:	46bd      	mov	sp, r7
    108e:	b011      	add	sp, #68	; 0x44
    1090:	bd90      	pop	{r4, r7, pc}
    1092:	46c0      	nop			; (mov r8, r8)
    1094:	000006e1 	.word	0x000006e1
    1098:	00000971 	.word	0x00000971
    109c:	00004d25 	.word	0x00004d25
    10a0:	000005d9 	.word	0x000005d9

000010a4 <spi_init>:
 */
enum status_code spi_init(
		struct spi_module *const module,
		Sercom *const hw,
		const struct spi_config *const config)
{
    10a4:	b580      	push	{r7, lr}
    10a6:	b08a      	sub	sp, #40	; 0x28
    10a8:	af00      	add	r7, sp, #0
    10aa:	60f8      	str	r0, [r7, #12]
    10ac:	60b9      	str	r1, [r7, #8]
    10ae:	607a      	str	r2, [r7, #4]
	Assert(module);
	Assert(hw);
	Assert(config);

	/* Initialize device instance */
	module->hw = hw;
    10b0:	68fb      	ldr	r3, [r7, #12]
    10b2:	68ba      	ldr	r2, [r7, #8]
    10b4:	601a      	str	r2, [r3, #0]

	SercomSpi *const spi_module = &(module->hw->SPI);
    10b6:	68fb      	ldr	r3, [r7, #12]
    10b8:	681b      	ldr	r3, [r3, #0]
    10ba:	627b      	str	r3, [r7, #36]	; 0x24

	/* Check if module is enabled. */
	if (spi_module->CTRLA.reg & SERCOM_SPI_CTRLA_ENABLE) {
    10bc:	6a7b      	ldr	r3, [r7, #36]	; 0x24
    10be:	681b      	ldr	r3, [r3, #0]
    10c0:	2202      	movs	r2, #2
    10c2:	4013      	ands	r3, r2
    10c4:	d007      	beq.n	10d6 <spi_init+0x32>
#  if SPI_CALLBACK_MODE == false
		/* Check if config is valid */
		return _spi_check_config(module, config);
    10c6:	68fa      	ldr	r2, [r7, #12]
    10c8:	687b      	ldr	r3, [r7, #4]
    10ca:	1c10      	adds	r0, r2, #0
    10cc:	1c19      	adds	r1, r3, #0
    10ce:	4b2f      	ldr	r3, [pc, #188]	; (118c <spi_init+0xe8>)
    10d0:	4798      	blx	r3
    10d2:	1c03      	adds	r3, r0, #0
    10d4:	e055      	b.n	1182 <spi_init+0xde>
		return STATUS_ERR_DENIED;
#  endif
	}

	/* Check if reset is in progress. */
	if (spi_module->CTRLA.reg & SERCOM_SPI_CTRLA_SWRST){
    10d6:	6a7b      	ldr	r3, [r7, #36]	; 0x24
    10d8:	681b      	ldr	r3, [r3, #0]
    10da:	2201      	movs	r2, #1
    10dc:	4013      	ands	r3, r2
    10de:	d001      	beq.n	10e4 <spi_init+0x40>
		return STATUS_BUSY;
    10e0:	2305      	movs	r3, #5
    10e2:	e04e      	b.n	1182 <spi_init+0xde>
	}

	uint32_t sercom_index = _sercom_get_sercom_inst_index(module->hw);
    10e4:	68fb      	ldr	r3, [r7, #12]
    10e6:	681b      	ldr	r3, [r3, #0]
    10e8:	1c18      	adds	r0, r3, #0
    10ea:	4b29      	ldr	r3, [pc, #164]	; (1190 <spi_init+0xec>)
    10ec:	4798      	blx	r3
    10ee:	1c03      	adds	r3, r0, #0
    10f0:	623b      	str	r3, [r7, #32]
	}
#elif (SAMC20)
	pm_index     = sercom_index + MCLK_APBCMASK_SERCOM0_Pos;
	gclk_index   = sercom_index + SERCOM0_GCLK_ID_CORE;
#else
	pm_index     = sercom_index + PM_APBCMASK_SERCOM0_Pos;
    10f2:	6a3b      	ldr	r3, [r7, #32]
    10f4:	3302      	adds	r3, #2
    10f6:	61fb      	str	r3, [r7, #28]
	gclk_index   = sercom_index + SERCOM0_GCLK_ID_CORE;
    10f8:	6a3b      	ldr	r3, [r7, #32]
    10fa:	3314      	adds	r3, #20
    10fc:	61bb      	str	r3, [r7, #24]
#  endif
	} else {
		system_apb_clock_set_mask(SYSTEM_CLOCK_APB_APBC, 1 << pm_index);
	}
#else
	system_apb_clock_set_mask(SYSTEM_CLOCK_APB_APBC, 1 << pm_index);
    10fe:	69fb      	ldr	r3, [r7, #28]
    1100:	2201      	movs	r2, #1
    1102:	409a      	lsls	r2, r3
    1104:	1c13      	adds	r3, r2, #0
    1106:	2002      	movs	r0, #2
    1108:	1c19      	adds	r1, r3, #0
    110a:	4b22      	ldr	r3, [pc, #136]	; (1194 <spi_init+0xf0>)
    110c:	4798      	blx	r3
#endif

	/* Set up the GCLK for the module */
	struct system_gclk_chan_config gclk_chan_conf;
	system_gclk_chan_get_config_defaults(&gclk_chan_conf);
    110e:	2314      	movs	r3, #20
    1110:	18fb      	adds	r3, r7, r3
    1112:	1c18      	adds	r0, r3, #0
    1114:	4b20      	ldr	r3, [pc, #128]	; (1198 <spi_init+0xf4>)
    1116:	4798      	blx	r3
	gclk_chan_conf.source_generator = config->generator_source;
    1118:	687b      	ldr	r3, [r7, #4]
    111a:	2224      	movs	r2, #36	; 0x24
    111c:	5c9a      	ldrb	r2, [r3, r2]
    111e:	2314      	movs	r3, #20
    1120:	18fb      	adds	r3, r7, r3
    1122:	701a      	strb	r2, [r3, #0]
	system_gclk_chan_set_config(gclk_index, &gclk_chan_conf);
    1124:	69bb      	ldr	r3, [r7, #24]
    1126:	b2da      	uxtb	r2, r3
    1128:	2314      	movs	r3, #20
    112a:	18fb      	adds	r3, r7, r3
    112c:	1c10      	adds	r0, r2, #0
    112e:	1c19      	adds	r1, r3, #0
    1130:	4b1a      	ldr	r3, [pc, #104]	; (119c <spi_init+0xf8>)
    1132:	4798      	blx	r3
	system_gclk_chan_enable(gclk_index);
    1134:	69bb      	ldr	r3, [r7, #24]
    1136:	b2db      	uxtb	r3, r3
    1138:	1c18      	adds	r0, r3, #0
    113a:	4b19      	ldr	r3, [pc, #100]	; (11a0 <spi_init+0xfc>)
    113c:	4798      	blx	r3
	sercom_set_gclk_generator(config->generator_source, false);
    113e:	687b      	ldr	r3, [r7, #4]
    1140:	2224      	movs	r2, #36	; 0x24
    1142:	5c9b      	ldrb	r3, [r3, r2]
    1144:	1c18      	adds	r0, r3, #0
    1146:	2100      	movs	r1, #0
    1148:	4b16      	ldr	r3, [pc, #88]	; (11a4 <spi_init+0x100>)
    114a:	4798      	blx	r3

#  if CONF_SPI_MASTER_ENABLE == true
	if (config->mode == SPI_MODE_MASTER) {
    114c:	687b      	ldr	r3, [r7, #4]
    114e:	781b      	ldrb	r3, [r3, #0]
    1150:	2b01      	cmp	r3, #1
    1152:	d105      	bne.n	1160 <spi_init+0xbc>
		/* Set the SERCOM in SPI master mode */
		spi_module->CTRLA.reg |= SERCOM_SPI_CTRLA_MODE(0x3);
    1154:	6a7b      	ldr	r3, [r7, #36]	; 0x24
    1156:	681b      	ldr	r3, [r3, #0]
    1158:	220c      	movs	r2, #12
    115a:	431a      	orrs	r2, r3
    115c:	6a7b      	ldr	r3, [r7, #36]	; 0x24
    115e:	601a      	str	r2, [r3, #0]
	}
#  endif

#  if CONF_SPI_SLAVE_ENABLE == true
	if (config->mode == SPI_MODE_SLAVE) {
    1160:	687b      	ldr	r3, [r7, #4]
    1162:	781b      	ldrb	r3, [r3, #0]
    1164:	2b00      	cmp	r3, #0
    1166:	d105      	bne.n	1174 <spi_init+0xd0>
		/* Set the SERCOM in SPI slave mode */
		spi_module->CTRLA.reg |= SERCOM_SPI_CTRLA_MODE(0x2);
    1168:	6a7b      	ldr	r3, [r7, #36]	; 0x24
    116a:	681b      	ldr	r3, [r3, #0]
    116c:	2208      	movs	r2, #8
    116e:	431a      	orrs	r2, r3
    1170:	6a7b      	ldr	r3, [r7, #36]	; 0x24
    1172:	601a      	str	r2, [r3, #0]
	_sercom_set_handler(instance_index, _spi_interrupt_handler);
	_sercom_instances[instance_index] = module;
#endif

	/* Write configuration to module and return status code */
	return _spi_set_config(module, config);
    1174:	68fa      	ldr	r2, [r7, #12]
    1176:	687b      	ldr	r3, [r7, #4]
    1178:	1c10      	adds	r0, r2, #0
    117a:	1c19      	adds	r1, r3, #0
    117c:	4b0a      	ldr	r3, [pc, #40]	; (11a8 <spi_init+0x104>)
    117e:	4798      	blx	r3
    1180:	1c03      	adds	r3, r0, #0
}
    1182:	1c18      	adds	r0, r3, #0
    1184:	46bd      	mov	sp, r7
    1186:	b00a      	add	sp, #40	; 0x28
    1188:	bd80      	pop	{r7, pc}
    118a:	46c0      	nop			; (mov r8, r8)
    118c:	00000e6d 	.word	0x00000e6d
    1190:	0000089d 	.word	0x0000089d
    1194:	00000a75 	.word	0x00000a75
    1198:	00000a61 	.word	0x00000a61
    119c:	00004c01 	.word	0x00004c01
    11a0:	00004c45 	.word	0x00004c45
    11a4:	00000655 	.word	0x00000655
    11a8:	00000c19 	.word	0x00000c19

000011ac <spi_transceive_wait>:
 */
enum status_code spi_transceive_wait(
		struct spi_module *const module,
		uint16_t tx_data,
		uint16_t *rx_data)
{
    11ac:	b590      	push	{r4, r7, lr}
    11ae:	b087      	sub	sp, #28
    11b0:	af00      	add	r7, sp, #0
    11b2:	60f8      	str	r0, [r7, #12]
    11b4:	607a      	str	r2, [r7, #4]
    11b6:	230a      	movs	r3, #10
    11b8:	18fb      	adds	r3, r7, r3
    11ba:	1c0a      	adds	r2, r1, #0
    11bc:	801a      	strh	r2, [r3, #0]
	/* Sanity check arguments */
	Assert(module);

	if (!(module->receiver_enabled)) {
    11be:	68fb      	ldr	r3, [r7, #12]
    11c0:	79db      	ldrb	r3, [r3, #7]
    11c2:	2201      	movs	r2, #1
    11c4:	4053      	eors	r3, r2
    11c6:	b2db      	uxtb	r3, r3
    11c8:	2b00      	cmp	r3, #0
    11ca:	d001      	beq.n	11d0 <spi_transceive_wait+0x24>
		return STATUS_ERR_DENIED;
    11cc:	231c      	movs	r3, #28
    11ce:	e07a      	b.n	12c6 <spi_transceive_wait+0x11a>
#  endif

#  if CONF_SPI_SLAVE_ENABLE == true
	uint16_t j;
#  endif
	enum status_code retval = STATUS_OK;
    11d0:	2315      	movs	r3, #21
    11d2:	18fb      	adds	r3, r7, r3
    11d4:	2200      	movs	r2, #0
    11d6:	701a      	strb	r2, [r3, #0]

#  if CONF_SPI_SLAVE_ENABLE == true
	/* Start timeout period for slave */
	if (module->mode == SPI_MODE_SLAVE) {
    11d8:	68fb      	ldr	r3, [r7, #12]
    11da:	795b      	ldrb	r3, [r3, #5]
    11dc:	2b00      	cmp	r3, #0
    11de:	d120      	bne.n	1222 <spi_transceive_wait+0x76>
		for (j = 0; j <= SPI_TIMEOUT; j++) {
    11e0:	2316      	movs	r3, #22
    11e2:	18fb      	adds	r3, r7, r3
    11e4:	2200      	movs	r2, #0
    11e6:	801a      	strh	r2, [r3, #0]
    11e8:	e015      	b.n	1216 <spi_transceive_wait+0x6a>
			if (spi_is_ready_to_write(module)) {
    11ea:	68fb      	ldr	r3, [r7, #12]
    11ec:	1c18      	adds	r0, r3, #0
    11ee:	4b38      	ldr	r3, [pc, #224]	; (12d0 <spi_transceive_wait+0x124>)
    11f0:	4798      	blx	r3
    11f2:	1e03      	subs	r3, r0, #0
    11f4:	d000      	beq.n	11f8 <spi_transceive_wait+0x4c>
				break;
    11f6:	e014      	b.n	1222 <spi_transceive_wait+0x76>
			} else if (j == SPI_TIMEOUT) {
    11f8:	2316      	movs	r3, #22
    11fa:	18fb      	adds	r3, r7, r3
    11fc:	881b      	ldrh	r3, [r3, #0]
    11fe:	4a35      	ldr	r2, [pc, #212]	; (12d4 <spi_transceive_wait+0x128>)
    1200:	4293      	cmp	r3, r2
    1202:	d101      	bne.n	1208 <spi_transceive_wait+0x5c>
				/* Not ready to write data within timeout period */
				return STATUS_ERR_TIMEOUT;
    1204:	2312      	movs	r3, #18
    1206:	e05e      	b.n	12c6 <spi_transceive_wait+0x11a>
	enum status_code retval = STATUS_OK;

#  if CONF_SPI_SLAVE_ENABLE == true
	/* Start timeout period for slave */
	if (module->mode == SPI_MODE_SLAVE) {
		for (j = 0; j <= SPI_TIMEOUT; j++) {
    1208:	2316      	movs	r3, #22
    120a:	18fb      	adds	r3, r7, r3
    120c:	881a      	ldrh	r2, [r3, #0]
    120e:	2316      	movs	r3, #22
    1210:	18fb      	adds	r3, r7, r3
    1212:	3201      	adds	r2, #1
    1214:	801a      	strh	r2, [r3, #0]
    1216:	2316      	movs	r3, #22
    1218:	18fb      	adds	r3, r7, r3
    121a:	881b      	ldrh	r3, [r3, #0]
    121c:	4a2d      	ldr	r2, [pc, #180]	; (12d4 <spi_transceive_wait+0x128>)
    121e:	4293      	cmp	r3, r2
    1220:	d9e3      	bls.n	11ea <spi_transceive_wait+0x3e>
			}
		}
	}
#  endif
	/* Wait until the module is ready to write the character */
	while (!spi_is_ready_to_write(module)) {
    1222:	46c0      	nop			; (mov r8, r8)
    1224:	68fb      	ldr	r3, [r7, #12]
    1226:	1c18      	adds	r0, r3, #0
    1228:	4b29      	ldr	r3, [pc, #164]	; (12d0 <spi_transceive_wait+0x124>)
    122a:	4798      	blx	r3
    122c:	1c03      	adds	r3, r0, #0
    122e:	1c1a      	adds	r2, r3, #0
    1230:	2301      	movs	r3, #1
    1232:	4053      	eors	r3, r2
    1234:	b2db      	uxtb	r3, r3
    1236:	2b00      	cmp	r3, #0
    1238:	d1f4      	bne.n	1224 <spi_transceive_wait+0x78>
	}

	/* Write data */
	spi_write(module, tx_data);
    123a:	68fa      	ldr	r2, [r7, #12]
    123c:	230a      	movs	r3, #10
    123e:	18fb      	adds	r3, r7, r3
    1240:	881b      	ldrh	r3, [r3, #0]
    1242:	1c10      	adds	r0, r2, #0
    1244:	1c19      	adds	r1, r3, #0
    1246:	4b24      	ldr	r3, [pc, #144]	; (12d8 <spi_transceive_wait+0x12c>)
    1248:	4798      	blx	r3

#  if CONF_SPI_SLAVE_ENABLE == true
	/* Start timeout period for slave */
	if (module->mode == SPI_MODE_SLAVE) {
    124a:	68fb      	ldr	r3, [r7, #12]
    124c:	795b      	ldrb	r3, [r3, #5]
    124e:	2b00      	cmp	r3, #0
    1250:	d120      	bne.n	1294 <spi_transceive_wait+0xe8>
		for (j = 0; j <= SPI_TIMEOUT; j++) {
    1252:	2316      	movs	r3, #22
    1254:	18fb      	adds	r3, r7, r3
    1256:	2200      	movs	r2, #0
    1258:	801a      	strh	r2, [r3, #0]
    125a:	e015      	b.n	1288 <spi_transceive_wait+0xdc>
			if (spi_is_ready_to_read(module)) {
    125c:	68fb      	ldr	r3, [r7, #12]
    125e:	1c18      	adds	r0, r3, #0
    1260:	4b1e      	ldr	r3, [pc, #120]	; (12dc <spi_transceive_wait+0x130>)
    1262:	4798      	blx	r3
    1264:	1e03      	subs	r3, r0, #0
    1266:	d000      	beq.n	126a <spi_transceive_wait+0xbe>
				break;
    1268:	e014      	b.n	1294 <spi_transceive_wait+0xe8>
			} else if (j == SPI_TIMEOUT) {
    126a:	2316      	movs	r3, #22
    126c:	18fb      	adds	r3, r7, r3
    126e:	881b      	ldrh	r3, [r3, #0]
    1270:	4a18      	ldr	r2, [pc, #96]	; (12d4 <spi_transceive_wait+0x128>)
    1272:	4293      	cmp	r3, r2
    1274:	d101      	bne.n	127a <spi_transceive_wait+0xce>
				/* Not ready to read data within timeout period */
				return STATUS_ERR_TIMEOUT;
    1276:	2312      	movs	r3, #18
    1278:	e025      	b.n	12c6 <spi_transceive_wait+0x11a>
	spi_write(module, tx_data);

#  if CONF_SPI_SLAVE_ENABLE == true
	/* Start timeout period for slave */
	if (module->mode == SPI_MODE_SLAVE) {
		for (j = 0; j <= SPI_TIMEOUT; j++) {
    127a:	2316      	movs	r3, #22
    127c:	18fb      	adds	r3, r7, r3
    127e:	881a      	ldrh	r2, [r3, #0]
    1280:	2316      	movs	r3, #22
    1282:	18fb      	adds	r3, r7, r3
    1284:	3201      	adds	r2, #1
    1286:	801a      	strh	r2, [r3, #0]
    1288:	2316      	movs	r3, #22
    128a:	18fb      	adds	r3, r7, r3
    128c:	881b      	ldrh	r3, [r3, #0]
    128e:	4a11      	ldr	r2, [pc, #68]	; (12d4 <spi_transceive_wait+0x128>)
    1290:	4293      	cmp	r3, r2
    1292:	d9e3      	bls.n	125c <spi_transceive_wait+0xb0>
		}
	}
#  endif

	/* Wait until the module is ready to read the character */
	while (!spi_is_ready_to_read(module)) {
    1294:	46c0      	nop			; (mov r8, r8)
    1296:	68fb      	ldr	r3, [r7, #12]
    1298:	1c18      	adds	r0, r3, #0
    129a:	4b10      	ldr	r3, [pc, #64]	; (12dc <spi_transceive_wait+0x130>)
    129c:	4798      	blx	r3
    129e:	1c03      	adds	r3, r0, #0
    12a0:	1c1a      	adds	r2, r3, #0
    12a2:	2301      	movs	r3, #1
    12a4:	4053      	eors	r3, r2
    12a6:	b2db      	uxtb	r3, r3
    12a8:	2b00      	cmp	r3, #0
    12aa:	d1f4      	bne.n	1296 <spi_transceive_wait+0xea>
	}

	/* Read data */
	retval = spi_read(module, rx_data);
    12ac:	2315      	movs	r3, #21
    12ae:	18fc      	adds	r4, r7, r3
    12b0:	68fa      	ldr	r2, [r7, #12]
    12b2:	687b      	ldr	r3, [r7, #4]
    12b4:	1c10      	adds	r0, r2, #0
    12b6:	1c19      	adds	r1, r3, #0
    12b8:	4b09      	ldr	r3, [pc, #36]	; (12e0 <spi_transceive_wait+0x134>)
    12ba:	4798      	blx	r3
    12bc:	1c03      	adds	r3, r0, #0
    12be:	7023      	strb	r3, [r4, #0]

	return retval;
    12c0:	2315      	movs	r3, #21
    12c2:	18fb      	adds	r3, r7, r3
    12c4:	781b      	ldrb	r3, [r3, #0]
}
    12c6:	1c18      	adds	r0, r3, #0
    12c8:	46bd      	mov	sp, r7
    12ca:	b007      	add	sp, #28
    12cc:	bd90      	pop	{r4, r7, pc}
    12ce:	46c0      	nop			; (mov r8, r8)
    12d0:	00000af1 	.word	0x00000af1
    12d4:	00002710 	.word	0x00002710
    12d8:	00000b41 	.word	0x00000b41
    12dc:	00000b19 	.word	0x00000b19
    12e0:	00000b89 	.word	0x00000b89

000012e4 <spi_select_slave>:
 */
enum status_code spi_select_slave(
		struct spi_module *const module,
		struct spi_slave_inst *const slave,
		const bool select)
{
    12e4:	b580      	push	{r7, lr}
    12e6:	b086      	sub	sp, #24
    12e8:	af00      	add	r7, sp, #0
    12ea:	60f8      	str	r0, [r7, #12]
    12ec:	60b9      	str	r1, [r7, #8]
    12ee:	1dfb      	adds	r3, r7, #7
    12f0:	701a      	strb	r2, [r3, #0]
	Assert(module);
	Assert(module->hw);
	Assert(slave);

	/* Check that the SPI module is operating in master mode */
	if (module->mode != SPI_MODE_MASTER) {
    12f2:	68fb      	ldr	r3, [r7, #12]
    12f4:	795b      	ldrb	r3, [r3, #5]
    12f6:	2b01      	cmp	r3, #1
    12f8:	d001      	beq.n	12fe <spi_select_slave+0x1a>
		return STATUS_ERR_UNSUPPORTED_DEV;
    12fa:	2315      	movs	r3, #21
    12fc:	e05c      	b.n	13b8 <spi_select_slave+0xd4>
	}
#  ifdef FEATURE_SPI_HARDWARE_SLAVE_SELECT
	if(!(module->master_slave_select_enable))
    12fe:	68fb      	ldr	r3, [r7, #12]
    1300:	7a1b      	ldrb	r3, [r3, #8]
    1302:	2201      	movs	r2, #1
    1304:	4053      	eors	r3, r2
    1306:	b2db      	uxtb	r3, r3
    1308:	2b00      	cmp	r3, #0
    130a:	d054      	beq.n	13b6 <spi_select_slave+0xd2>
#  endif
	{
		if (select) {
    130c:	1dfb      	adds	r3, r7, #7
    130e:	781b      	ldrb	r3, [r3, #0]
    1310:	2b00      	cmp	r3, #0
    1312:	d04a      	beq.n	13aa <spi_select_slave+0xc6>
			/* Check if address recognition is enabled */
			if (slave->address_enabled) {
    1314:	68bb      	ldr	r3, [r7, #8]
    1316:	785b      	ldrb	r3, [r3, #1]
    1318:	2b00      	cmp	r3, #0
    131a:	d03f      	beq.n	139c <spi_select_slave+0xb8>
				/* Check if the module is ready to write the address */
				if (!spi_is_ready_to_write(module)) {
    131c:	68fb      	ldr	r3, [r7, #12]
    131e:	1c18      	adds	r0, r3, #0
    1320:	4b27      	ldr	r3, [pc, #156]	; (13c0 <spi_select_slave+0xdc>)
    1322:	4798      	blx	r3
    1324:	1c03      	adds	r3, r0, #0
    1326:	1c1a      	adds	r2, r3, #0
    1328:	2301      	movs	r3, #1
    132a:	4053      	eors	r3, r2
    132c:	b2db      	uxtb	r3, r3
    132e:	2b00      	cmp	r3, #0
    1330:	d007      	beq.n	1342 <spi_select_slave+0x5e>
					/* Not ready, do not select slave and return */
					port_pin_set_output_level(slave->ss_pin, true);
    1332:	68bb      	ldr	r3, [r7, #8]
    1334:	781b      	ldrb	r3, [r3, #0]
    1336:	1c18      	adds	r0, r3, #0
    1338:	2101      	movs	r1, #1
    133a:	4b22      	ldr	r3, [pc, #136]	; (13c4 <spi_select_slave+0xe0>)
    133c:	4798      	blx	r3
					return STATUS_BUSY;
    133e:	2305      	movs	r3, #5
    1340:	e03a      	b.n	13b8 <spi_select_slave+0xd4>
				}

				/* Drive Slave Select low */
				port_pin_set_output_level(slave->ss_pin, false);
    1342:	68bb      	ldr	r3, [r7, #8]
    1344:	781b      	ldrb	r3, [r3, #0]
    1346:	1c18      	adds	r0, r3, #0
    1348:	2100      	movs	r1, #0
    134a:	4b1e      	ldr	r3, [pc, #120]	; (13c4 <spi_select_slave+0xe0>)
    134c:	4798      	blx	r3

				/* Write address to slave */
				spi_write(module, slave->address);
    134e:	68bb      	ldr	r3, [r7, #8]
    1350:	789b      	ldrb	r3, [r3, #2]
    1352:	b29b      	uxth	r3, r3
    1354:	68fa      	ldr	r2, [r7, #12]
    1356:	1c10      	adds	r0, r2, #0
    1358:	1c19      	adds	r1, r3, #0
    135a:	4b1b      	ldr	r3, [pc, #108]	; (13c8 <spi_select_slave+0xe4>)
    135c:	4798      	blx	r3

				if (!(module->receiver_enabled)) {
    135e:	68fb      	ldr	r3, [r7, #12]
    1360:	79db      	ldrb	r3, [r3, #7]
    1362:	2201      	movs	r2, #1
    1364:	4053      	eors	r3, r2
    1366:	b2db      	uxtb	r3, r3
    1368:	2b00      	cmp	r3, #0
    136a:	d024      	beq.n	13b6 <spi_select_slave+0xd2>
					/* Flush contents of shift register shifted back from slave */
					while (!spi_is_ready_to_read(module)) {
    136c:	46c0      	nop			; (mov r8, r8)
    136e:	68fb      	ldr	r3, [r7, #12]
    1370:	1c18      	adds	r0, r3, #0
    1372:	4b16      	ldr	r3, [pc, #88]	; (13cc <spi_select_slave+0xe8>)
    1374:	4798      	blx	r3
    1376:	1c03      	adds	r3, r0, #0
    1378:	1c1a      	adds	r2, r3, #0
    137a:	2301      	movs	r3, #1
    137c:	4053      	eors	r3, r2
    137e:	b2db      	uxtb	r3, r3
    1380:	2b00      	cmp	r3, #0
    1382:	d1f4      	bne.n	136e <spi_select_slave+0x8a>
					}
					uint16_t flush = 0;
    1384:	2316      	movs	r3, #22
    1386:	18fb      	adds	r3, r7, r3
    1388:	2200      	movs	r2, #0
    138a:	801a      	strh	r2, [r3, #0]
					spi_read(module, &flush);
    138c:	68fa      	ldr	r2, [r7, #12]
    138e:	2316      	movs	r3, #22
    1390:	18fb      	adds	r3, r7, r3
    1392:	1c10      	adds	r0, r2, #0
    1394:	1c19      	adds	r1, r3, #0
    1396:	4b0e      	ldr	r3, [pc, #56]	; (13d0 <spi_select_slave+0xec>)
    1398:	4798      	blx	r3
    139a:	e00c      	b.n	13b6 <spi_select_slave+0xd2>
				}
			} else {
				/* Drive Slave Select low */
				port_pin_set_output_level(slave->ss_pin, false);
    139c:	68bb      	ldr	r3, [r7, #8]
    139e:	781b      	ldrb	r3, [r3, #0]
    13a0:	1c18      	adds	r0, r3, #0
    13a2:	2100      	movs	r1, #0
    13a4:	4b07      	ldr	r3, [pc, #28]	; (13c4 <spi_select_slave+0xe0>)
    13a6:	4798      	blx	r3
    13a8:	e005      	b.n	13b6 <spi_select_slave+0xd2>
			}
		} else {
			/* Drive Slave Select high */
			port_pin_set_output_level(slave->ss_pin, true);
    13aa:	68bb      	ldr	r3, [r7, #8]
    13ac:	781b      	ldrb	r3, [r3, #0]
    13ae:	1c18      	adds	r0, r3, #0
    13b0:	2101      	movs	r1, #1
    13b2:	4b04      	ldr	r3, [pc, #16]	; (13c4 <spi_select_slave+0xe0>)
    13b4:	4798      	blx	r3
		}
	}
	return STATUS_OK;
    13b6:	2300      	movs	r3, #0
}
    13b8:	1c18      	adds	r0, r3, #0
    13ba:	46bd      	mov	sp, r7
    13bc:	b006      	add	sp, #24
    13be:	bd80      	pop	{r7, pc}
    13c0:	00000af1 	.word	0x00000af1
    13c4:	00000a11 	.word	0x00000a11
    13c8:	00000b41 	.word	0x00000b41
    13cc:	00000b19 	.word	0x00000b19
    13d0:	00000b89 	.word	0x00000b89

000013d4 <system_pinmux_get_group_from_gpio_pin>:
 *
 * \return Base address of the associated PORT module.
 */
static inline PortGroup* system_pinmux_get_group_from_gpio_pin(
		const uint8_t gpio_pin)
{
    13d4:	b580      	push	{r7, lr}
    13d6:	b084      	sub	sp, #16
    13d8:	af00      	add	r7, sp, #0
    13da:	1c02      	adds	r2, r0, #0
    13dc:	1dfb      	adds	r3, r7, #7
    13de:	701a      	strb	r2, [r3, #0]
	uint8_t port_index  = (gpio_pin / 128);
    13e0:	230f      	movs	r3, #15
    13e2:	18fb      	adds	r3, r7, r3
    13e4:	1dfa      	adds	r2, r7, #7
    13e6:	7812      	ldrb	r2, [r2, #0]
    13e8:	09d2      	lsrs	r2, r2, #7
    13ea:	701a      	strb	r2, [r3, #0]
	uint8_t group_index = (gpio_pin / 32);
    13ec:	230e      	movs	r3, #14
    13ee:	18fb      	adds	r3, r7, r3
    13f0:	1dfa      	adds	r2, r7, #7
    13f2:	7812      	ldrb	r2, [r2, #0]
    13f4:	0952      	lsrs	r2, r2, #5
    13f6:	701a      	strb	r2, [r3, #0]

	/* Array of available ports */
	Port *const ports[PORT_INST_NUM] = PORT_INSTS;
    13f8:	4b0d      	ldr	r3, [pc, #52]	; (1430 <system_pinmux_get_group_from_gpio_pin+0x5c>)
    13fa:	60bb      	str	r3, [r7, #8]

	if (port_index < PORT_INST_NUM) {
    13fc:	230f      	movs	r3, #15
    13fe:	18fb      	adds	r3, r7, r3
    1400:	781b      	ldrb	r3, [r3, #0]
    1402:	2b00      	cmp	r3, #0
    1404:	d10f      	bne.n	1426 <system_pinmux_get_group_from_gpio_pin+0x52>
		return &(ports[port_index]->Group[group_index]);
    1406:	230f      	movs	r3, #15
    1408:	18fb      	adds	r3, r7, r3
    140a:	781b      	ldrb	r3, [r3, #0]
    140c:	009b      	lsls	r3, r3, #2
    140e:	2210      	movs	r2, #16
    1410:	4694      	mov	ip, r2
    1412:	44bc      	add	ip, r7
    1414:	4463      	add	r3, ip
    1416:	3b08      	subs	r3, #8
    1418:	681a      	ldr	r2, [r3, #0]
    141a:	230e      	movs	r3, #14
    141c:	18fb      	adds	r3, r7, r3
    141e:	781b      	ldrb	r3, [r3, #0]
    1420:	01db      	lsls	r3, r3, #7
    1422:	18d3      	adds	r3, r2, r3
    1424:	e000      	b.n	1428 <system_pinmux_get_group_from_gpio_pin+0x54>
	} else {
		Assert(false);
		return NULL;
    1426:	2300      	movs	r3, #0
	}
}
    1428:	1c18      	adds	r0, r3, #0
    142a:	46bd      	mov	sp, r7
    142c:	b004      	add	sp, #16
    142e:	bd80      	pop	{r7, pc}
    1430:	41004400 	.word	0x41004400

00001434 <port_get_group_from_gpio_pin>:
 *
 *  \return Base address of the associated PORT module.
 */
static inline PortGroup* port_get_group_from_gpio_pin(
		const uint8_t gpio_pin)
{
    1434:	b580      	push	{r7, lr}
    1436:	b082      	sub	sp, #8
    1438:	af00      	add	r7, sp, #0
    143a:	1c02      	adds	r2, r0, #0
    143c:	1dfb      	adds	r3, r7, #7
    143e:	701a      	strb	r2, [r3, #0]
	return system_pinmux_get_group_from_gpio_pin(gpio_pin);
    1440:	1dfb      	adds	r3, r7, #7
    1442:	781b      	ldrb	r3, [r3, #0]
    1444:	1c18      	adds	r0, r3, #0
    1446:	4b03      	ldr	r3, [pc, #12]	; (1454 <port_get_group_from_gpio_pin+0x20>)
    1448:	4798      	blx	r3
    144a:	1c03      	adds	r3, r0, #0
}
    144c:	1c18      	adds	r0, r3, #0
    144e:	46bd      	mov	sp, r7
    1450:	b002      	add	sp, #8
    1452:	bd80      	pop	{r7, pc}
    1454:	000013d5 	.word	0x000013d5

00001458 <port_get_config_defaults>:
 *
 *  \param[out] config  Configuration structure to initialize to default values
 */
static inline void port_get_config_defaults(
		struct port_config *const config)
{
    1458:	b580      	push	{r7, lr}
    145a:	b082      	sub	sp, #8
    145c:	af00      	add	r7, sp, #0
    145e:	6078      	str	r0, [r7, #4]
	/* Sanity check arguments */
	Assert(config);

	/* Default configuration values */
	config->direction  = PORT_PIN_DIR_INPUT;
    1460:	687b      	ldr	r3, [r7, #4]
    1462:	2200      	movs	r2, #0
    1464:	701a      	strb	r2, [r3, #0]
	config->input_pull = PORT_PIN_PULL_UP;
    1466:	687b      	ldr	r3, [r7, #4]
    1468:	2201      	movs	r2, #1
    146a:	705a      	strb	r2, [r3, #1]
	config->powersave  = false;
    146c:	687b      	ldr	r3, [r7, #4]
    146e:	2200      	movs	r2, #0
    1470:	709a      	strb	r2, [r3, #2]
}
    1472:	46bd      	mov	sp, r7
    1474:	b002      	add	sp, #8
    1476:	bd80      	pop	{r7, pc}

00001478 <port_pin_set_output_level>:
 *  \param[in] level     Logical level to set the given pin to
 */
static inline void port_pin_set_output_level(
		const uint8_t gpio_pin,
		const bool level)
{
    1478:	b580      	push	{r7, lr}
    147a:	b084      	sub	sp, #16
    147c:	af00      	add	r7, sp, #0
    147e:	1c02      	adds	r2, r0, #0
    1480:	1dfb      	adds	r3, r7, #7
    1482:	701a      	strb	r2, [r3, #0]
    1484:	1dbb      	adds	r3, r7, #6
    1486:	1c0a      	adds	r2, r1, #0
    1488:	701a      	strb	r2, [r3, #0]
	PortGroup *const port_base = port_get_group_from_gpio_pin(gpio_pin);
    148a:	1dfb      	adds	r3, r7, #7
    148c:	781b      	ldrb	r3, [r3, #0]
    148e:	1c18      	adds	r0, r3, #0
    1490:	4b0c      	ldr	r3, [pc, #48]	; (14c4 <port_pin_set_output_level+0x4c>)
    1492:	4798      	blx	r3
    1494:	1c03      	adds	r3, r0, #0
    1496:	60fb      	str	r3, [r7, #12]
	uint32_t pin_mask  = (1UL << (gpio_pin % 32));
    1498:	1dfb      	adds	r3, r7, #7
    149a:	781b      	ldrb	r3, [r3, #0]
    149c:	221f      	movs	r2, #31
    149e:	4013      	ands	r3, r2
    14a0:	2201      	movs	r2, #1
    14a2:	409a      	lsls	r2, r3
    14a4:	1c13      	adds	r3, r2, #0
    14a6:	60bb      	str	r3, [r7, #8]

	/* Set the pin to high or low atomically based on the requested level */
	if (level) {
    14a8:	1dbb      	adds	r3, r7, #6
    14aa:	781b      	ldrb	r3, [r3, #0]
    14ac:	2b00      	cmp	r3, #0
    14ae:	d003      	beq.n	14b8 <port_pin_set_output_level+0x40>
		port_base->OUTSET.reg = pin_mask;
    14b0:	68fb      	ldr	r3, [r7, #12]
    14b2:	68ba      	ldr	r2, [r7, #8]
    14b4:	619a      	str	r2, [r3, #24]
    14b6:	e002      	b.n	14be <port_pin_set_output_level+0x46>
	} else {
		port_base->OUTCLR.reg = pin_mask;
    14b8:	68fb      	ldr	r3, [r7, #12]
    14ba:	68ba      	ldr	r2, [r7, #8]
    14bc:	615a      	str	r2, [r3, #20]
	}
}
    14be:	46bd      	mov	sp, r7
    14c0:	b004      	add	sp, #16
    14c2:	bd80      	pop	{r7, pc}
    14c4:	00001435 	.word	0x00001435

000014c8 <rtc_count_get_config_defaults>:
 *  \param[out] config  Configuration structure to be initialized to default
 *                      values
 */
static inline void rtc_count_get_config_defaults(
		struct rtc_count_config *const config)
{
    14c8:	b580      	push	{r7, lr}
    14ca:	b084      	sub	sp, #16
    14cc:	af00      	add	r7, sp, #0
    14ce:	6078      	str	r0, [r7, #4]
	/* Sanity check argument */
	Assert(config);

	/* Set default into configuration structure */
	config->prescaler           = RTC_COUNT_PRESCALER_DIV_1024;
    14d0:	687b      	ldr	r3, [r7, #4]
    14d2:	22a0      	movs	r2, #160	; 0xa0
    14d4:	0112      	lsls	r2, r2, #4
    14d6:	801a      	strh	r2, [r3, #0]
	config->mode                = RTC_COUNT_MODE_32BIT;
    14d8:	687b      	ldr	r3, [r7, #4]
    14da:	2201      	movs	r2, #1
    14dc:	709a      	strb	r2, [r3, #2]
	config->clear_on_match      = false;
    14de:	687b      	ldr	r3, [r7, #4]
    14e0:	2200      	movs	r2, #0
    14e2:	70da      	strb	r2, [r3, #3]

#ifdef FEATURE_RTC_CONTINUOUSLY_UPDATED
	config->continuously_update = false;
    14e4:	687b      	ldr	r3, [r7, #4]
    14e6:	2200      	movs	r2, #0
    14e8:	711a      	strb	r2, [r3, #4]
#endif
#if (SAML22)
	config->enable_read_sync    = true;
#endif

	for (uint8_t i = 0; i < RTC_NUM_OF_COMP16; i++) {
    14ea:	230f      	movs	r3, #15
    14ec:	18fb      	adds	r3, r7, r3
    14ee:	2200      	movs	r2, #0
    14f0:	701a      	strb	r2, [r3, #0]
    14f2:	e00e      	b.n	1512 <rtc_count_get_config_defaults+0x4a>
		config->compare_values[i] = 0;
    14f4:	230f      	movs	r3, #15
    14f6:	18fb      	adds	r3, r7, r3
    14f8:	781a      	ldrb	r2, [r3, #0]
    14fa:	687b      	ldr	r3, [r7, #4]
    14fc:	3202      	adds	r2, #2
    14fe:	0092      	lsls	r2, r2, #2
    1500:	2100      	movs	r1, #0
    1502:	50d1      	str	r1, [r2, r3]
#endif
#if (SAML22)
	config->enable_read_sync    = true;
#endif

	for (uint8_t i = 0; i < RTC_NUM_OF_COMP16; i++) {
    1504:	230f      	movs	r3, #15
    1506:	18fb      	adds	r3, r7, r3
    1508:	781a      	ldrb	r2, [r3, #0]
    150a:	230f      	movs	r3, #15
    150c:	18fb      	adds	r3, r7, r3
    150e:	3201      	adds	r2, #1
    1510:	701a      	strb	r2, [r3, #0]
    1512:	230f      	movs	r3, #15
    1514:	18fb      	adds	r3, r7, r3
    1516:	781b      	ldrb	r3, [r3, #0]
    1518:	2b01      	cmp	r3, #1
    151a:	d9eb      	bls.n	14f4 <rtc_count_get_config_defaults+0x2c>
		config->compare_values[i] = 0;
	}
}
    151c:	46bd      	mov	sp, r7
    151e:	b004      	add	sp, #16
    1520:	bd80      	pop	{r7, pc}
    1522:	46c0      	nop			; (mov r8, r8)

00001524 <spi_is_syncing>:
 * \retval false  Module synchronization is not ongoing
 *
 */
static inline bool spi_is_syncing(
		struct spi_module *const module)
{
    1524:	b580      	push	{r7, lr}
    1526:	b084      	sub	sp, #16
    1528:	af00      	add	r7, sp, #0
    152a:	6078      	str	r0, [r7, #4]
	/* Sanity check arguments */
	Assert(module);
	Assert(module->hw);

	SercomSpi *const spi_module = &(module->hw->SPI);
    152c:	687b      	ldr	r3, [r7, #4]
    152e:	681b      	ldr	r3, [r3, #0]
    1530:	60fb      	str	r3, [r7, #12]

#  ifdef FEATURE_SPI_SYNC_SCHEME_VERSION_2
	/* Return synchronization status */
	return (spi_module->SYNCBUSY.reg);
    1532:	68fb      	ldr	r3, [r7, #12]
    1534:	69db      	ldr	r3, [r3, #28]
    1536:	1e5a      	subs	r2, r3, #1
    1538:	4193      	sbcs	r3, r2
    153a:	b2db      	uxtb	r3, r3
#  else
	/* Return synchronization status */
	return (spi_module->STATUS.reg & SERCOM_SPI_STATUS_SYNCBUSY);
#  endif
}
    153c:	1c18      	adds	r0, r3, #0
    153e:	46bd      	mov	sp, r7
    1540:	b004      	add	sp, #16
    1542:	bd80      	pop	{r7, pc}

00001544 <spi_get_config_defaults>:
 *
 * \param[out] config  Configuration structure to initialize to default values
 */
static inline void spi_get_config_defaults(
		struct spi_config *const config)
{
    1544:	b580      	push	{r7, lr}
    1546:	b082      	sub	sp, #8
    1548:	af00      	add	r7, sp, #0
    154a:	6078      	str	r0, [r7, #4]
	/* Sanity check arguments */
	Assert(config);

	/* Default configuration values */
	config->mode             = SPI_MODE_MASTER;
    154c:	687b      	ldr	r3, [r7, #4]
    154e:	2201      	movs	r2, #1
    1550:	701a      	strb	r2, [r3, #0]
	config->data_order       = SPI_DATA_ORDER_MSB;
    1552:	687b      	ldr	r3, [r7, #4]
    1554:	2200      	movs	r2, #0
    1556:	605a      	str	r2, [r3, #4]
	config->transfer_mode    = SPI_TRANSFER_MODE_0;
    1558:	687b      	ldr	r3, [r7, #4]
    155a:	2200      	movs	r2, #0
    155c:	609a      	str	r2, [r3, #8]
	config->mux_setting      = SPI_SIGNAL_MUX_SETTING_D;
    155e:	687b      	ldr	r3, [r7, #4]
    1560:	22c0      	movs	r2, #192	; 0xc0
    1562:	0392      	lsls	r2, r2, #14
    1564:	60da      	str	r2, [r3, #12]
	config->character_size   = SPI_CHARACTER_SIZE_8BIT;
    1566:	687b      	ldr	r3, [r7, #4]
    1568:	2200      	movs	r2, #0
    156a:	741a      	strb	r2, [r3, #16]
	config->run_in_standby   = false;
    156c:	687b      	ldr	r3, [r7, #4]
    156e:	2200      	movs	r2, #0
    1570:	745a      	strb	r2, [r3, #17]
	config->receiver_enable  = true;
    1572:	687b      	ldr	r3, [r7, #4]
    1574:	2201      	movs	r2, #1
    1576:	749a      	strb	r2, [r3, #18]
#  ifdef FEATURE_SPI_SLAVE_SELECT_LOW_DETECT
	config->select_slave_low_detect_enable= true;
    1578:	687b      	ldr	r3, [r7, #4]
    157a:	2201      	movs	r2, #1
    157c:	74da      	strb	r2, [r3, #19]
#  endif
#  ifdef FEATURE_SPI_HARDWARE_SLAVE_SELECT
	config->master_slave_select_enable= false;
    157e:	687b      	ldr	r3, [r7, #4]
    1580:	2200      	movs	r2, #0
    1582:	751a      	strb	r2, [r3, #20]
#  endif
	config->generator_source = GCLK_GENERATOR_0;
    1584:	687b      	ldr	r3, [r7, #4]
    1586:	2224      	movs	r2, #36	; 0x24
    1588:	2100      	movs	r1, #0
    158a:	5499      	strb	r1, [r3, r2]

	/* Clear mode specific config */
	memset(&(config->mode_specific), 0, sizeof(config->mode_specific));
    158c:	687b      	ldr	r3, [r7, #4]
    158e:	3318      	adds	r3, #24
    1590:	1c18      	adds	r0, r3, #0
    1592:	2100      	movs	r1, #0
    1594:	220c      	movs	r2, #12
    1596:	4b0a      	ldr	r3, [pc, #40]	; (15c0 <spi_get_config_defaults+0x7c>)
    1598:	4798      	blx	r3

	/* Master config defaults */
	config->mode_specific.master.baudrate = 100000;
    159a:	687b      	ldr	r3, [r7, #4]
    159c:	4a09      	ldr	r2, [pc, #36]	; (15c4 <spi_get_config_defaults+0x80>)
    159e:	619a      	str	r2, [r3, #24]

	/* pinmux config defaults */
	config->pinmux_pad0 = PINMUX_DEFAULT;
    15a0:	687b      	ldr	r3, [r7, #4]
    15a2:	2200      	movs	r2, #0
    15a4:	629a      	str	r2, [r3, #40]	; 0x28
	config->pinmux_pad1 = PINMUX_DEFAULT;
    15a6:	687b      	ldr	r3, [r7, #4]
    15a8:	2200      	movs	r2, #0
    15aa:	62da      	str	r2, [r3, #44]	; 0x2c
	config->pinmux_pad2 = PINMUX_DEFAULT;
    15ac:	687b      	ldr	r3, [r7, #4]
    15ae:	2200      	movs	r2, #0
    15b0:	631a      	str	r2, [r3, #48]	; 0x30
	config->pinmux_pad3 = PINMUX_DEFAULT;
    15b2:	687b      	ldr	r3, [r7, #4]
    15b4:	2200      	movs	r2, #0
    15b6:	635a      	str	r2, [r3, #52]	; 0x34

};
    15b8:	46bd      	mov	sp, r7
    15ba:	b002      	add	sp, #8
    15bc:	bd80      	pop	{r7, pc}
    15be:	46c0      	nop			; (mov r8, r8)
    15c0:	00008bf7 	.word	0x00008bf7
    15c4:	000186a0 	.word	0x000186a0

000015c8 <spi_slave_inst_get_config_defaults>:
 *
 * \param[out] config  Configuration structure to initialize to default values
 */
static inline void spi_slave_inst_get_config_defaults(
		struct spi_slave_inst_config *const config)
{
    15c8:	b580      	push	{r7, lr}
    15ca:	b082      	sub	sp, #8
    15cc:	af00      	add	r7, sp, #0
    15ce:	6078      	str	r0, [r7, #4]
	Assert(config);

	config->ss_pin          = 10;
    15d0:	687b      	ldr	r3, [r7, #4]
    15d2:	220a      	movs	r2, #10
    15d4:	701a      	strb	r2, [r3, #0]
	config->address_enabled = false;
    15d6:	687b      	ldr	r3, [r7, #4]
    15d8:	2200      	movs	r2, #0
    15da:	705a      	strb	r2, [r3, #1]
	config->address         = 0;
    15dc:	687b      	ldr	r3, [r7, #4]
    15de:	2200      	movs	r2, #0
    15e0:	709a      	strb	r2, [r3, #2]
}
    15e2:	46bd      	mov	sp, r7
    15e4:	b002      	add	sp, #8
    15e6:	bd80      	pop	{r7, pc}

000015e8 <spi_attach_slave>:
 *
 */
static inline void spi_attach_slave(
		struct spi_slave_inst *const slave,
		const struct spi_slave_inst_config *const config)
{
    15e8:	b580      	push	{r7, lr}
    15ea:	b084      	sub	sp, #16
    15ec:	af00      	add	r7, sp, #0
    15ee:	6078      	str	r0, [r7, #4]
    15f0:	6039      	str	r1, [r7, #0]
	Assert(slave);
	Assert(config);

	slave->ss_pin          = config->ss_pin;
    15f2:	683b      	ldr	r3, [r7, #0]
    15f4:	781a      	ldrb	r2, [r3, #0]
    15f6:	687b      	ldr	r3, [r7, #4]
    15f8:	701a      	strb	r2, [r3, #0]
	slave->address_enabled = config->address_enabled;
    15fa:	683b      	ldr	r3, [r7, #0]
    15fc:	785a      	ldrb	r2, [r3, #1]
    15fe:	687b      	ldr	r3, [r7, #4]
    1600:	705a      	strb	r2, [r3, #1]
	slave->address         = config->address;
    1602:	683b      	ldr	r3, [r7, #0]
    1604:	789a      	ldrb	r2, [r3, #2]
    1606:	687b      	ldr	r3, [r7, #4]
    1608:	709a      	strb	r2, [r3, #2]

	/* Get default config for pin */
	struct port_config pin_conf;
	port_get_config_defaults(&pin_conf);
    160a:	230c      	movs	r3, #12
    160c:	18fb      	adds	r3, r7, r3
    160e:	1c18      	adds	r0, r3, #0
    1610:	4b0b      	ldr	r3, [pc, #44]	; (1640 <spi_attach_slave+0x58>)
    1612:	4798      	blx	r3

	/* Edit config to set the pin as output */
	pin_conf.direction = PORT_PIN_DIR_OUTPUT;
    1614:	230c      	movs	r3, #12
    1616:	18fb      	adds	r3, r7, r3
    1618:	2201      	movs	r2, #1
    161a:	701a      	strb	r2, [r3, #0]

	/* Set config on Slave Select pin */
	port_pin_set_config(slave->ss_pin, &pin_conf);
    161c:	687b      	ldr	r3, [r7, #4]
    161e:	781a      	ldrb	r2, [r3, #0]
    1620:	230c      	movs	r3, #12
    1622:	18fb      	adds	r3, r7, r3
    1624:	1c10      	adds	r0, r2, #0
    1626:	1c19      	adds	r1, r3, #0
    1628:	4b06      	ldr	r3, [pc, #24]	; (1644 <spi_attach_slave+0x5c>)
    162a:	4798      	blx	r3
	port_pin_set_output_level(slave->ss_pin, true);
    162c:	687b      	ldr	r3, [r7, #4]
    162e:	781b      	ldrb	r3, [r3, #0]
    1630:	1c18      	adds	r0, r3, #0
    1632:	2101      	movs	r1, #1
    1634:	4b04      	ldr	r3, [pc, #16]	; (1648 <spi_attach_slave+0x60>)
    1636:	4798      	blx	r3
}
    1638:	46bd      	mov	sp, r7
    163a:	b004      	add	sp, #16
    163c:	bd80      	pop	{r7, pc}
    163e:	46c0      	nop			; (mov r8, r8)
    1640:	00001459 	.word	0x00001459
    1644:	00004151 	.word	0x00004151
    1648:	00001479 	.word	0x00001479

0000164c <spi_enable>:
 *
 * \param[in,out] module  Pointer to the software instance struct
 */
static inline void spi_enable(
		struct spi_module *const module)
{
    164c:	b580      	push	{r7, lr}
    164e:	b084      	sub	sp, #16
    1650:	af00      	add	r7, sp, #0
    1652:	6078      	str	r0, [r7, #4]
	/* Sanity check arguments */
	Assert(module);
	Assert(module->hw);

	SercomSpi *const spi_module = &(module->hw->SPI);
    1654:	687b      	ldr	r3, [r7, #4]
    1656:	681b      	ldr	r3, [r3, #0]
    1658:	60fb      	str	r3, [r7, #12]

#  if SPI_CALLBACK_MODE == true
	system_interrupt_enable(_sercom_get_interrupt_vector(module->hw));
#  endif

	while (spi_is_syncing(module)) {
    165a:	46c0      	nop			; (mov r8, r8)
    165c:	687b      	ldr	r3, [r7, #4]
    165e:	1c18      	adds	r0, r3, #0
    1660:	4b06      	ldr	r3, [pc, #24]	; (167c <spi_enable+0x30>)
    1662:	4798      	blx	r3
    1664:	1e03      	subs	r3, r0, #0
    1666:	d1f9      	bne.n	165c <spi_enable+0x10>
		/* Wait until the synchronization is complete */
	}

	/* Enable SPI */
	spi_module->CTRLA.reg |= SERCOM_SPI_CTRLA_ENABLE;
    1668:	68fb      	ldr	r3, [r7, #12]
    166a:	681b      	ldr	r3, [r3, #0]
    166c:	2202      	movs	r2, #2
    166e:	431a      	orrs	r2, r3
    1670:	68fb      	ldr	r3, [r7, #12]
    1672:	601a      	str	r2, [r3, #0]
}
    1674:	46bd      	mov	sp, r7
    1676:	b004      	add	sp, #16
    1678:	bd80      	pop	{r7, pc}
    167a:	46c0      	nop			; (mov r8, r8)
    167c:	00001525 	.word	0x00001525

00001680 <configure_port_pins>:
#include "RFM69registers.h"


// Configure the LED selection port as output
void configure_port_pins(void)
{
    1680:	b580      	push	{r7, lr}
    1682:	b082      	sub	sp, #8
    1684:	af00      	add	r7, sp, #0
	struct port_config config_port_pin;
	port_get_config_defaults(&config_port_pin);
    1686:	1d3b      	adds	r3, r7, #4
    1688:	1c18      	adds	r0, r3, #0
    168a:	4b06      	ldr	r3, [pc, #24]	; (16a4 <configure_port_pins+0x24>)
    168c:	4798      	blx	r3
	config_port_pin.direction = PORT_PIN_DIR_INPUT;
    168e:	1d3b      	adds	r3, r7, #4
    1690:	2200      	movs	r2, #0
    1692:	701a      	strb	r2, [r3, #0]
	port_pin_set_config(PIN_PA03, &config_port_pin);
    1694:	1d3b      	adds	r3, r7, #4
    1696:	2003      	movs	r0, #3
    1698:	1c19      	adds	r1, r3, #0
    169a:	4b03      	ldr	r3, [pc, #12]	; (16a8 <configure_port_pins+0x28>)
    169c:	4798      	blx	r3
}
    169e:	46bd      	mov	sp, r7
    16a0:	b002      	add	sp, #8
    16a2:	bd80      	pop	{r7, pc}
    16a4:	00001459 	.word	0x00001459
    16a8:	00004151 	.word	0x00004151

000016ac <configure_extint_channel>:

///////////////////////// EXT INT ////////////////
void configure_extint_channel(void)
{
    16ac:	b580      	push	{r7, lr}
    16ae:	b084      	sub	sp, #16
    16b0:	af00      	add	r7, sp, #0
	struct extint_chan_conf config_extint_chan;
	extint_chan_get_config_defaults(&config_extint_chan);
    16b2:	1d3b      	adds	r3, r7, #4
    16b4:	1c18      	adds	r0, r3, #0
    16b6:	4b0b      	ldr	r3, [pc, #44]	; (16e4 <configure_extint_channel+0x38>)
    16b8:	4798      	blx	r3
	config_extint_chan.gpio_pin           = PIN_PA03A_EIC_EXTINT3;
    16ba:	1d3b      	adds	r3, r7, #4
    16bc:	2203      	movs	r2, #3
    16be:	601a      	str	r2, [r3, #0]
	config_extint_chan.gpio_pin_mux       = MUX_PA03A_EIC_EXTINT3;
    16c0:	1d3b      	adds	r3, r7, #4
    16c2:	2200      	movs	r2, #0
    16c4:	605a      	str	r2, [r3, #4]
	config_extint_chan.gpio_pin_pull      = EXTINT_PULL_UP;
    16c6:	1d3b      	adds	r3, r7, #4
    16c8:	2201      	movs	r2, #1
    16ca:	721a      	strb	r2, [r3, #8]
	config_extint_chan.detection_criteria = EXTINT_DETECT_RISING;
    16cc:	1d3b      	adds	r3, r7, #4
    16ce:	2201      	movs	r2, #1
    16d0:	72da      	strb	r2, [r3, #11]
	extint_chan_set_config(3, &config_extint_chan);
    16d2:	1d3b      	adds	r3, r7, #4
    16d4:	2003      	movs	r0, #3
    16d6:	1c19      	adds	r1, r3, #0
    16d8:	4b03      	ldr	r3, [pc, #12]	; (16e8 <configure_extint_channel+0x3c>)
    16da:	4798      	blx	r3
}
    16dc:	46bd      	mov	sp, r7
    16de:	b004      	add	sp, #16
    16e0:	bd80      	pop	{r7, pc}
    16e2:	46c0      	nop			; (mov r8, r8)
    16e4:	00003ff9 	.word	0x00003ff9
    16e8:	0000402d 	.word	0x0000402d

000016ec <configure_extint_callbacks>:
void configure_extint_callbacks(void)
{
    16ec:	b580      	push	{r7, lr}
    16ee:	af00      	add	r7, sp, #0
	extint_register_callback(isr0, 3, EXTINT_CALLBACK_TYPE_DETECT);
    16f0:	4b05      	ldr	r3, [pc, #20]	; (1708 <configure_extint_callbacks+0x1c>)
    16f2:	1c18      	adds	r0, r3, #0
    16f4:	2103      	movs	r1, #3
    16f6:	2200      	movs	r2, #0
    16f8:	4b04      	ldr	r3, [pc, #16]	; (170c <configure_extint_callbacks+0x20>)
    16fa:	4798      	blx	r3
	extint_chan_enable_callback(3, EXTINT_CALLBACK_TYPE_DETECT);
    16fc:	2003      	movs	r0, #3
    16fe:	2100      	movs	r1, #0
    1700:	4b03      	ldr	r3, [pc, #12]	; (1710 <configure_extint_callbacks+0x24>)
    1702:	4798      	blx	r3
}
    1704:	46bd      	mov	sp, r7
    1706:	bd80      	pop	{r7, pc}
    1708:	00001fcd 	.word	0x00001fcd
    170c:	00003c01 	.word	0x00003c01
    1710:	00003c65 	.word	0x00003c65

00001714 <configure_RFM69_spi>:
struct spi_slave_inst slave;
void configure_RFM69_spi(void);
volatile uint16_t read_buf = 0;

void configure_RFM69_spi(void)
{
    1714:	b580      	push	{r7, lr}
    1716:	b090      	sub	sp, #64	; 0x40
    1718:	af00      	add	r7, sp, #0
	struct spi_config config_spi_master;
	struct spi_slave_inst_config slave_dev_config;
	/* Configure and initialize software device instance of peripheral slave */
	spi_slave_inst_get_config_defaults(&slave_dev_config);
    171a:	1d3b      	adds	r3, r7, #4
    171c:	1c18      	adds	r0, r3, #0
    171e:	4b22      	ldr	r3, [pc, #136]	; (17a8 <configure_RFM69_spi+0x94>)
    1720:	4798      	blx	r3
	slave_dev_config.ss_pin = SLAVE_SELECT_PIN;
    1722:	1d3b      	adds	r3, r7, #4
    1724:	2212      	movs	r2, #18
    1726:	701a      	strb	r2, [r3, #0]
	spi_attach_slave(&slave, &slave_dev_config);
    1728:	4a20      	ldr	r2, [pc, #128]	; (17ac <configure_RFM69_spi+0x98>)
    172a:	1d3b      	adds	r3, r7, #4
    172c:	1c10      	adds	r0, r2, #0
    172e:	1c19      	adds	r1, r3, #0
    1730:	4b1f      	ldr	r3, [pc, #124]	; (17b0 <configure_RFM69_spi+0x9c>)
    1732:	4798      	blx	r3
	/* Configure, initialize and enable SERCOM SPI module */
	spi_get_config_defaults(&config_spi_master);
    1734:	2308      	movs	r3, #8
    1736:	18fb      	adds	r3, r7, r3
    1738:	1c18      	adds	r0, r3, #0
    173a:	4b1e      	ldr	r3, [pc, #120]	; (17b4 <configure_RFM69_spi+0xa0>)
    173c:	4798      	blx	r3
	/* Configure pad 0 for MOSI */
	/* Configure pad 1 for SCK */
	/* Configure pad 2 for SS (Unused) */
	/* Configure pad 3 for MISO */
	config_spi_master.mux_setting = SPI_SIGNAL_MUX_SETTING_D;
    173e:	2308      	movs	r3, #8
    1740:	18fb      	adds	r3, r7, r3
    1742:	22c0      	movs	r2, #192	; 0xc0
    1744:	0392      	lsls	r2, r2, #14
    1746:	60da      	str	r2, [r3, #12]
	/* Configure pins used for SPI */
	config_spi_master.pinmux_pad0 = PINMUX_PA16C_SERCOM1_PAD0;
    1748:	2308      	movs	r3, #8
    174a:	18fb      	adds	r3, r7, r3
    174c:	4a1a      	ldr	r2, [pc, #104]	; (17b8 <configure_RFM69_spi+0xa4>)
    174e:	629a      	str	r2, [r3, #40]	; 0x28
	config_spi_master.pinmux_pad1 = PINMUX_PA17C_SERCOM1_PAD1;
    1750:	2308      	movs	r3, #8
    1752:	18fb      	adds	r3, r7, r3
    1754:	4a19      	ldr	r2, [pc, #100]	; (17bc <configure_RFM69_spi+0xa8>)
    1756:	62da      	str	r2, [r3, #44]	; 0x2c
	config_spi_master.pinmux_pad2 = PINMUX_UNUSED;
    1758:	2308      	movs	r3, #8
    175a:	18fb      	adds	r3, r7, r3
    175c:	2201      	movs	r2, #1
    175e:	4252      	negs	r2, r2
    1760:	631a      	str	r2, [r3, #48]	; 0x30
	config_spi_master.pinmux_pad3 = PINMUX_PA19C_SERCOM1_PAD3;
    1762:	2308      	movs	r3, #8
    1764:	18fb      	adds	r3, r7, r3
    1766:	4a16      	ldr	r2, [pc, #88]	; (17c0 <configure_RFM69_spi+0xac>)
    1768:	635a      	str	r2, [r3, #52]	; 0x34
	config_spi_master.data_order = SPI_DATA_ORDER_MSB;
    176a:	2308      	movs	r3, #8
    176c:	18fb      	adds	r3, r7, r3
    176e:	2200      	movs	r2, #0
    1770:	605a      	str	r2, [r3, #4]
	config_spi_master.transfer_mode = SPI_TRANSFER_MODE_0;
    1772:	2308      	movs	r3, #8
    1774:	18fb      	adds	r3, r7, r3
    1776:	2200      	movs	r2, #0
    1778:	609a      	str	r2, [r3, #8]
	//config_spi_master.generator_source = GCLK_CLKCTRL_GEN_GCLK1;
	spi_init(&spi_master_instance, SERCOM1, &config_spi_master);
    177a:	4a12      	ldr	r2, [pc, #72]	; (17c4 <configure_RFM69_spi+0xb0>)
    177c:	4912      	ldr	r1, [pc, #72]	; (17c8 <configure_RFM69_spi+0xb4>)
    177e:	2308      	movs	r3, #8
    1780:	18fb      	adds	r3, r7, r3
    1782:	1c10      	adds	r0, r2, #0
    1784:	1c1a      	adds	r2, r3, #0
    1786:	4b11      	ldr	r3, [pc, #68]	; (17cc <configure_RFM69_spi+0xb8>)
    1788:	4798      	blx	r3
	spi_enable(&spi_master_instance);
    178a:	4b0e      	ldr	r3, [pc, #56]	; (17c4 <configure_RFM69_spi+0xb0>)
    178c:	1c18      	adds	r0, r3, #0
    178e:	4b10      	ldr	r3, [pc, #64]	; (17d0 <configure_RFM69_spi+0xbc>)
    1790:	4798      	blx	r3

	spi_select_slave(&spi_master_instance, &slave, false);
    1792:	4a0c      	ldr	r2, [pc, #48]	; (17c4 <configure_RFM69_spi+0xb0>)
    1794:	4b05      	ldr	r3, [pc, #20]	; (17ac <configure_RFM69_spi+0x98>)
    1796:	1c10      	adds	r0, r2, #0
    1798:	1c19      	adds	r1, r3, #0
    179a:	2200      	movs	r2, #0
    179c:	4b0d      	ldr	r3, [pc, #52]	; (17d4 <configure_RFM69_spi+0xc0>)
    179e:	4798      	blx	r3
}
    17a0:	46bd      	mov	sp, r7
    17a2:	b010      	add	sp, #64	; 0x40
    17a4:	bd80      	pop	{r7, pc}
    17a6:	46c0      	nop			; (mov r8, r8)
    17a8:	000015c9 	.word	0x000015c9
    17ac:	20000268 	.word	0x20000268
    17b0:	000015e9 	.word	0x000015e9
    17b4:	00001545 	.word	0x00001545
    17b8:	00100002 	.word	0x00100002
    17bc:	00110002 	.word	0x00110002
    17c0:	00130002 	.word	0x00130002
    17c4:	20000258 	.word	0x20000258
    17c8:	42000c00 	.word	0x42000c00
    17cc:	000010a5 	.word	0x000010a5
    17d0:	0000164d 	.word	0x0000164d
    17d4:	000012e5 	.word	0x000012e5

000017d8 <configure_rtc_count>:
///////////////////////////////////////////////////////////////////////////////
struct rtc_module rtc_instance;

////////////////////// RTC for millis() ///////////////////////////////////////
void configure_rtc_count(void)
{
    17d8:	b580      	push	{r7, lr}
    17da:	b084      	sub	sp, #16
    17dc:	af00      	add	r7, sp, #0
	struct rtc_count_config config_rtc_count;
	rtc_count_get_config_defaults(&config_rtc_count);
    17de:	1c3b      	adds	r3, r7, #0
    17e0:	1c18      	adds	r0, r3, #0
    17e2:	4b0f      	ldr	r3, [pc, #60]	; (1820 <configure_rtc_count+0x48>)
    17e4:	4798      	blx	r3
	config_rtc_count.prescaler           = RTC_COUNT_PRESCALER_DIV_1;
    17e6:	1c3b      	adds	r3, r7, #0
    17e8:	2200      	movs	r2, #0
    17ea:	801a      	strh	r2, [r3, #0]
	config_rtc_count.mode                = RTC_COUNT_MODE_16BIT;
    17ec:	1c3b      	adds	r3, r7, #0
    17ee:	2200      	movs	r2, #0
    17f0:	709a      	strb	r2, [r3, #2]
	config_rtc_count.continuously_update = true;
    17f2:	1c3b      	adds	r3, r7, #0
    17f4:	2201      	movs	r2, #1
    17f6:	711a      	strb	r2, [r3, #4]
	//config_rtc_count.compare_values[0] = 1000;
	rtc_count_init(&rtc_instance, RTC, &config_rtc_count);
    17f8:	4a0a      	ldr	r2, [pc, #40]	; (1824 <configure_rtc_count+0x4c>)
    17fa:	490b      	ldr	r1, [pc, #44]	; (1828 <configure_rtc_count+0x50>)
    17fc:	1c3b      	adds	r3, r7, #0
    17fe:	1c10      	adds	r0, r2, #0
    1800:	1c1a      	adds	r2, r3, #0
    1802:	4b0a      	ldr	r3, [pc, #40]	; (182c <configure_rtc_count+0x54>)
    1804:	4798      	blx	r3
	rtc_count_enable(&rtc_instance);
    1806:	4b07      	ldr	r3, [pc, #28]	; (1824 <configure_rtc_count+0x4c>)
    1808:	1c18      	adds	r0, r3, #0
    180a:	4b09      	ldr	r3, [pc, #36]	; (1830 <configure_rtc_count+0x58>)
    180c:	4798      	blx	r3

	rtc_count_set_period(&rtc_instance, 10000);
    180e:	4b05      	ldr	r3, [pc, #20]	; (1824 <configure_rtc_count+0x4c>)
    1810:	4a08      	ldr	r2, [pc, #32]	; (1834 <configure_rtc_count+0x5c>)
    1812:	1c18      	adds	r0, r3, #0
    1814:	1c11      	adds	r1, r2, #0
    1816:	4b08      	ldr	r3, [pc, #32]	; (1838 <configure_rtc_count+0x60>)
    1818:	4798      	blx	r3
}
    181a:	46bd      	mov	sp, r7
    181c:	b004      	add	sp, #16
    181e:	bd80      	pop	{r7, pc}
    1820:	000014c9 	.word	0x000014c9
    1824:	200001bc 	.word	0x200001bc
    1828:	40001400 	.word	0x40001400
    182c:	0000039d 	.word	0x0000039d
    1830:	000001b1 	.word	0x000001b1
    1834:	00002710 	.word	0x00002710
    1838:	00000581 	.word	0x00000581

0000183c <reset_millis>:

void reset_millis(void)
{
    183c:	b580      	push	{r7, lr}
    183e:	af00      	add	r7, sp, #0
	rtc_count_set_count(&rtc_instance, 0);
    1840:	4b05      	ldr	r3, [pc, #20]	; (1858 <reset_millis+0x1c>)
    1842:	1c18      	adds	r0, r3, #0
    1844:	2100      	movs	r1, #0
    1846:	4b05      	ldr	r3, [pc, #20]	; (185c <reset_millis+0x20>)
    1848:	4798      	blx	r3
	rtc_count_enable(&rtc_instance);
    184a:	4b03      	ldr	r3, [pc, #12]	; (1858 <reset_millis+0x1c>)
    184c:	1c18      	adds	r0, r3, #0
    184e:	4b04      	ldr	r3, [pc, #16]	; (1860 <reset_millis+0x24>)
    1850:	4798      	blx	r3
}
    1852:	46bd      	mov	sp, r7
    1854:	bd80      	pop	{r7, pc}
    1856:	46c0      	nop			; (mov r8, r8)
    1858:	200001bc 	.word	0x200001bc
    185c:	0000042d 	.word	0x0000042d
    1860:	000001b1 	.word	0x000001b1

00001864 <millis>:

uint32_t millis(void)
{
    1864:	b580      	push	{r7, lr}
    1866:	b082      	sub	sp, #8
    1868:	af00      	add	r7, sp, #0
    //rtc_count_set_count(&rtc_instance, 20);
	volatile uint32_t milli = 0;
    186a:	2300      	movs	r3, #0
    186c:	607b      	str	r3, [r7, #4]
	milli = rtc_count_get_count(&rtc_instance);
    186e:	4b05      	ldr	r3, [pc, #20]	; (1884 <millis+0x20>)
    1870:	1c18      	adds	r0, r3, #0
    1872:	4b05      	ldr	r3, [pc, #20]	; (1888 <millis+0x24>)
    1874:	4798      	blx	r3
    1876:	1c03      	adds	r3, r0, #0
    1878:	607b      	str	r3, [r7, #4]
	return milli;
    187a:	687b      	ldr	r3, [r7, #4]
}
    187c:	1c18      	adds	r0, r3, #0
    187e:	46bd      	mov	sp, r7
    1880:	b002      	add	sp, #8
    1882:	bd80      	pop	{r7, pc}
    1884:	200001bc 	.word	0x200001bc
    1888:	0000048d 	.word	0x0000048d

0000188c <RFM_setHighPower>:
	while (port_pin_get_input_level(PIN_PA03) == 0 && millis() < RF69_TX_LIMIT_MS); // wait for DIO0 to turn HIGH signalling transmission finish // CHANGE //
	setMode(RF69_MODE_STANDBY);
}

// for RFM69HW only: you must call RFM_setHighPower(true) after RFM_initialize() or else transmission won't work
void RFM_setHighPower(bool onOff) {
    188c:	b580      	push	{r7, lr}
    188e:	b082      	sub	sp, #8
    1890:	af00      	add	r7, sp, #0
    1892:	1c02      	adds	r2, r0, #0
    1894:	1dfb      	adds	r3, r7, #7
    1896:	701a      	strb	r2, [r3, #0]
	_isRFM69HW = onOff;
    1898:	4b1a      	ldr	r3, [pc, #104]	; (1904 <RFM_setHighPower+0x78>)
    189a:	1dfa      	adds	r2, r7, #7
    189c:	7812      	ldrb	r2, [r2, #0]
    189e:	701a      	strb	r2, [r3, #0]
	writeReg(REG_OCP, _isRFM69HW ? RF_OCP_OFF : RF_OCP_ON);
    18a0:	4b18      	ldr	r3, [pc, #96]	; (1904 <RFM_setHighPower+0x78>)
    18a2:	781b      	ldrb	r3, [r3, #0]
    18a4:	b2db      	uxtb	r3, r3
    18a6:	2b00      	cmp	r3, #0
    18a8:	d001      	beq.n	18ae <RFM_setHighPower+0x22>
    18aa:	230f      	movs	r3, #15
    18ac:	e000      	b.n	18b0 <RFM_setHighPower+0x24>
    18ae:	231a      	movs	r3, #26
    18b0:	2013      	movs	r0, #19
    18b2:	1c19      	adds	r1, r3, #0
    18b4:	4b14      	ldr	r3, [pc, #80]	; (1908 <RFM_setHighPower+0x7c>)
    18b6:	4798      	blx	r3
	if (_isRFM69HW) // turning ON
    18b8:	4b12      	ldr	r3, [pc, #72]	; (1904 <RFM_setHighPower+0x78>)
    18ba:	781b      	ldrb	r3, [r3, #0]
    18bc:	b2db      	uxtb	r3, r3
    18be:	2b00      	cmp	r3, #0
    18c0:	d012      	beq.n	18e8 <RFM_setHighPower+0x5c>
	writeReg(REG_PALEVEL, (readReg(REG_PALEVEL) & 0x1F) | RF_PALEVEL_PA1_ON | RF_PALEVEL_PA2_ON); // enable P1 & P2 amplifier stages
    18c2:	2011      	movs	r0, #17
    18c4:	4b11      	ldr	r3, [pc, #68]	; (190c <RFM_setHighPower+0x80>)
    18c6:	4798      	blx	r3
    18c8:	1c03      	adds	r3, r0, #0
    18ca:	b2db      	uxtb	r3, r3
    18cc:	1c1a      	adds	r2, r3, #0
    18ce:	231f      	movs	r3, #31
    18d0:	4013      	ands	r3, r2
    18d2:	b2db      	uxtb	r3, r3
    18d4:	1c1a      	adds	r2, r3, #0
    18d6:	2360      	movs	r3, #96	; 0x60
    18d8:	4313      	orrs	r3, r2
    18da:	b2db      	uxtb	r3, r3
    18dc:	b2db      	uxtb	r3, r3
    18de:	2011      	movs	r0, #17
    18e0:	1c19      	adds	r1, r3, #0
    18e2:	4b09      	ldr	r3, [pc, #36]	; (1908 <RFM_setHighPower+0x7c>)
    18e4:	4798      	blx	r3
    18e6:	e009      	b.n	18fc <RFM_setHighPower+0x70>
	else
	writeReg(REG_PALEVEL, RF_PALEVEL_PA0_ON | RF_PALEVEL_PA1_OFF | RF_PALEVEL_PA2_OFF | _powerLevel); // enable P0 only
    18e8:	4b09      	ldr	r3, [pc, #36]	; (1910 <RFM_setHighPower+0x84>)
    18ea:	781b      	ldrb	r3, [r3, #0]
    18ec:	2280      	movs	r2, #128	; 0x80
    18ee:	4252      	negs	r2, r2
    18f0:	4313      	orrs	r3, r2
    18f2:	b2db      	uxtb	r3, r3
    18f4:	2011      	movs	r0, #17
    18f6:	1c19      	adds	r1, r3, #0
    18f8:	4b03      	ldr	r3, [pc, #12]	; (1908 <RFM_setHighPower+0x7c>)
    18fa:	4798      	blx	r3
}
    18fc:	46bd      	mov	sp, r7
    18fe:	b002      	add	sp, #8
    1900:	bd80      	pop	{r7, pc}
    1902:	46c0      	nop			; (mov r8, r8)
    1904:	20000254 	.word	0x20000254
    1908:	00002235 	.word	0x00002235
    190c:	000021c9 	.word	0x000021c9
    1910:	200001c4 	.word	0x200001c4

00001914 <RFM69>:

void RFM69()
{
    1914:	b580      	push	{r7, lr}
    1916:	af00      	add	r7, sp, #0
	_mode = RF69_MODE_STANDBY;
    1918:	4b06      	ldr	r3, [pc, #24]	; (1934 <RFM69+0x20>)
    191a:	2201      	movs	r2, #1
    191c:	801a      	strh	r2, [r3, #0]
	_promiscuousMode = false;
    191e:	4b06      	ldr	r3, [pc, #24]	; (1938 <RFM69+0x24>)
    1920:	2200      	movs	r2, #0
    1922:	701a      	strb	r2, [r3, #0]
	_powerLevel = 31;
    1924:	4b05      	ldr	r3, [pc, #20]	; (193c <RFM69+0x28>)
    1926:	221f      	movs	r2, #31
    1928:	701a      	strb	r2, [r3, #0]
	_isRFM69HW = false;
    192a:	4b05      	ldr	r3, [pc, #20]	; (1940 <RFM69+0x2c>)
    192c:	2200      	movs	r2, #0
    192e:	701a      	strb	r2, [r3, #0]
}
    1930:	46bd      	mov	sp, r7
    1932:	bd80      	pop	{r7, pc}
    1934:	20000252 	.word	0x20000252
    1938:	200001cc 	.word	0x200001cc
    193c:	200001c4 	.word	0x200001c4
    1940:	20000254 	.word	0x20000254

00001944 <RFM_initialize>:

bool RFM_initialize(uint8_t freqBand, uint8_t nodeID, uint8_t networkID)
{
    1944:	b590      	push	{r4, r7, lr}
    1946:	b091      	sub	sp, #68	; 0x44
    1948:	af00      	add	r7, sp, #0
    194a:	1c04      	adds	r4, r0, #0
    194c:	1c08      	adds	r0, r1, #0
    194e:	1c11      	adds	r1, r2, #0
    1950:	1dfb      	adds	r3, r7, #7
    1952:	1c22      	adds	r2, r4, #0
    1954:	701a      	strb	r2, [r3, #0]
    1956:	1dbb      	adds	r3, r7, #6
    1958:	1c02      	adds	r2, r0, #0
    195a:	701a      	strb	r2, [r3, #0]
    195c:	1d7b      	adds	r3, r7, #5
    195e:	1c0a      	adds	r2, r1, #0
    1960:	701a      	strb	r2, [r3, #0]
  RFM69();
    1962:	4bc2      	ldr	r3, [pc, #776]	; (1c6c <RFM_initialize+0x328>)
    1964:	4798      	blx	r3

  const uint8_t CONFIG[][2] =
    1966:	2310      	movs	r3, #16
    1968:	18fb      	adds	r3, r7, r3
    196a:	2201      	movs	r2, #1
    196c:	701a      	strb	r2, [r3, #0]
    196e:	2310      	movs	r3, #16
    1970:	18fb      	adds	r3, r7, r3
    1972:	2204      	movs	r2, #4
    1974:	705a      	strb	r2, [r3, #1]
    1976:	2310      	movs	r3, #16
    1978:	18fb      	adds	r3, r7, r3
    197a:	2202      	movs	r2, #2
    197c:	709a      	strb	r2, [r3, #2]
    197e:	2310      	movs	r3, #16
    1980:	18fb      	adds	r3, r7, r3
    1982:	2200      	movs	r2, #0
    1984:	70da      	strb	r2, [r3, #3]
    1986:	2310      	movs	r3, #16
    1988:	18fb      	adds	r3, r7, r3
    198a:	2203      	movs	r2, #3
    198c:	711a      	strb	r2, [r3, #4]
    198e:	2310      	movs	r3, #16
    1990:	18fb      	adds	r3, r7, r3
    1992:	2202      	movs	r2, #2
    1994:	715a      	strb	r2, [r3, #5]
    1996:	2310      	movs	r3, #16
    1998:	18fb      	adds	r3, r7, r3
    199a:	2204      	movs	r2, #4
    199c:	719a      	strb	r2, [r3, #6]
    199e:	2310      	movs	r3, #16
    19a0:	18fb      	adds	r3, r7, r3
    19a2:	2240      	movs	r2, #64	; 0x40
    19a4:	71da      	strb	r2, [r3, #7]
    19a6:	2310      	movs	r3, #16
    19a8:	18fb      	adds	r3, r7, r3
    19aa:	2205      	movs	r2, #5
    19ac:	721a      	strb	r2, [r3, #8]
    19ae:	2310      	movs	r3, #16
    19b0:	18fb      	adds	r3, r7, r3
    19b2:	2203      	movs	r2, #3
    19b4:	725a      	strb	r2, [r3, #9]
    19b6:	2310      	movs	r3, #16
    19b8:	18fb      	adds	r3, r7, r3
    19ba:	2206      	movs	r2, #6
    19bc:	729a      	strb	r2, [r3, #10]
    19be:	2310      	movs	r3, #16
    19c0:	18fb      	adds	r3, r7, r3
    19c2:	2233      	movs	r2, #51	; 0x33
    19c4:	72da      	strb	r2, [r3, #11]
    19c6:	2310      	movs	r3, #16
    19c8:	18fb      	adds	r3, r7, r3
    19ca:	2207      	movs	r2, #7
    19cc:	731a      	strb	r2, [r3, #12]
    /* 0x03 */ { REG_BITRATEMSB, RF_BITRATEMSB_55555}, // default: 4.8 KBPS
    /* 0x04 */ { REG_BITRATELSB, RF_BITRATELSB_55555},
    /* 0x05 */ { REG_FDEVMSB, RF_FDEVMSB_50000}, // default: 5KHz, (FDEV + BitRate / 2 <= 500KHz)
    /* 0x06 */ { REG_FDEVLSB, RF_FDEVLSB_50000},

    /* 0x07 */ { REG_FRFMSB, (uint8_t) (freqBand==RF69_315MHZ ? RF_FRFMSB_315 : (freqBand==RF69_433MHZ ? RF_FRFMSB_433 : (freqBand==RF69_868MHZ ? RF_FRFMSB_868 : RF_FRFMSB_915))) },
    19ce:	1dfb      	adds	r3, r7, #7
    19d0:	781b      	ldrb	r3, [r3, #0]
    19d2:	2b1f      	cmp	r3, #31
    19d4:	d00d      	beq.n	19f2 <RFM_initialize+0xae>
    19d6:	1dfb      	adds	r3, r7, #7
    19d8:	781b      	ldrb	r3, [r3, #0]
    19da:	2b2b      	cmp	r3, #43	; 0x2b
    19dc:	d007      	beq.n	19ee <RFM_initialize+0xaa>
    19de:	1dfb      	adds	r3, r7, #7
    19e0:	781b      	ldrb	r3, [r3, #0]
    19e2:	2b56      	cmp	r3, #86	; 0x56
    19e4:	d101      	bne.n	19ea <RFM_initialize+0xa6>
    19e6:	23d9      	movs	r3, #217	; 0xd9
    19e8:	e004      	b.n	19f4 <RFM_initialize+0xb0>
    19ea:	23e4      	movs	r3, #228	; 0xe4
    19ec:	e002      	b.n	19f4 <RFM_initialize+0xb0>
    19ee:	236c      	movs	r3, #108	; 0x6c
    19f0:	e000      	b.n	19f4 <RFM_initialize+0xb0>
    19f2:	234e      	movs	r3, #78	; 0x4e

bool RFM_initialize(uint8_t freqBand, uint8_t nodeID, uint8_t networkID)
{
  RFM69();

  const uint8_t CONFIG[][2] =
    19f4:	2210      	movs	r2, #16
    19f6:	18ba      	adds	r2, r7, r2
    19f8:	7353      	strb	r3, [r2, #13]
    19fa:	2310      	movs	r3, #16
    19fc:	18fb      	adds	r3, r7, r3
    19fe:	2208      	movs	r2, #8
    1a00:	739a      	strb	r2, [r3, #14]
    /* 0x04 */ { REG_BITRATELSB, RF_BITRATELSB_55555},
    /* 0x05 */ { REG_FDEVMSB, RF_FDEVMSB_50000}, // default: 5KHz, (FDEV + BitRate / 2 <= 500KHz)
    /* 0x06 */ { REG_FDEVLSB, RF_FDEVLSB_50000},

    /* 0x07 */ { REG_FRFMSB, (uint8_t) (freqBand==RF69_315MHZ ? RF_FRFMSB_315 : (freqBand==RF69_433MHZ ? RF_FRFMSB_433 : (freqBand==RF69_868MHZ ? RF_FRFMSB_868 : RF_FRFMSB_915))) },
    /* 0x08 */ { REG_FRFMID, (uint8_t) (freqBand==RF69_315MHZ ? RF_FRFMID_315 : (freqBand==RF69_433MHZ ? RF_FRFMID_433 : (freqBand==RF69_868MHZ ? RF_FRFMID_868 : RF_FRFMID_915))) },
    1a02:	1dfb      	adds	r3, r7, #7
    1a04:	781b      	ldrb	r3, [r3, #0]
    1a06:	2b1f      	cmp	r3, #31
    1a08:	d00d      	beq.n	1a26 <RFM_initialize+0xe2>
    1a0a:	1dfb      	adds	r3, r7, #7
    1a0c:	781b      	ldrb	r3, [r3, #0]
    1a0e:	2b2b      	cmp	r3, #43	; 0x2b
    1a10:	d007      	beq.n	1a22 <RFM_initialize+0xde>
    1a12:	1dfb      	adds	r3, r7, #7
    1a14:	781b      	ldrb	r3, [r3, #0]
    1a16:	2b56      	cmp	r3, #86	; 0x56
    1a18:	d101      	bne.n	1a1e <RFM_initialize+0xda>
    1a1a:	2300      	movs	r3, #0
    1a1c:	e004      	b.n	1a28 <RFM_initialize+0xe4>
    1a1e:	23c0      	movs	r3, #192	; 0xc0
    1a20:	e002      	b.n	1a28 <RFM_initialize+0xe4>
    1a22:	2340      	movs	r3, #64	; 0x40
    1a24:	e000      	b.n	1a28 <RFM_initialize+0xe4>
    1a26:	23c0      	movs	r3, #192	; 0xc0

bool RFM_initialize(uint8_t freqBand, uint8_t nodeID, uint8_t networkID)
{
  RFM69();

  const uint8_t CONFIG[][2] =
    1a28:	2210      	movs	r2, #16
    1a2a:	18ba      	adds	r2, r7, r2
    1a2c:	73d3      	strb	r3, [r2, #15]
    1a2e:	2310      	movs	r3, #16
    1a30:	18fb      	adds	r3, r7, r3
    1a32:	2209      	movs	r2, #9
    1a34:	741a      	strb	r2, [r3, #16]
    1a36:	2310      	movs	r3, #16
    1a38:	18fb      	adds	r3, r7, r3
    1a3a:	2200      	movs	r2, #0
    1a3c:	745a      	strb	r2, [r3, #17]
    1a3e:	2310      	movs	r3, #16
    1a40:	18fb      	adds	r3, r7, r3
    1a42:	2219      	movs	r2, #25
    1a44:	749a      	strb	r2, [r3, #18]
    1a46:	2310      	movs	r3, #16
    1a48:	18fb      	adds	r3, r7, r3
    1a4a:	2242      	movs	r2, #66	; 0x42
    1a4c:	74da      	strb	r2, [r3, #19]
    1a4e:	2310      	movs	r3, #16
    1a50:	18fb      	adds	r3, r7, r3
    1a52:	2225      	movs	r2, #37	; 0x25
    1a54:	751a      	strb	r2, [r3, #20]
    1a56:	2310      	movs	r3, #16
    1a58:	18fb      	adds	r3, r7, r3
    1a5a:	2240      	movs	r2, #64	; 0x40
    1a5c:	755a      	strb	r2, [r3, #21]
    1a5e:	2310      	movs	r3, #16
    1a60:	18fb      	adds	r3, r7, r3
    1a62:	2226      	movs	r2, #38	; 0x26
    1a64:	759a      	strb	r2, [r3, #22]
    1a66:	2310      	movs	r3, #16
    1a68:	18fb      	adds	r3, r7, r3
    1a6a:	2207      	movs	r2, #7
    1a6c:	75da      	strb	r2, [r3, #23]
    1a6e:	2310      	movs	r3, #16
    1a70:	18fb      	adds	r3, r7, r3
    1a72:	2228      	movs	r2, #40	; 0x28
    1a74:	761a      	strb	r2, [r3, #24]
    1a76:	2310      	movs	r3, #16
    1a78:	18fb      	adds	r3, r7, r3
    1a7a:	2210      	movs	r2, #16
    1a7c:	765a      	strb	r2, [r3, #25]
    1a7e:	2310      	movs	r3, #16
    1a80:	18fb      	adds	r3, r7, r3
    1a82:	2229      	movs	r2, #41	; 0x29
    1a84:	769a      	strb	r2, [r3, #26]
    1a86:	2310      	movs	r3, #16
    1a88:	18fb      	adds	r3, r7, r3
    1a8a:	22dc      	movs	r2, #220	; 0xdc
    1a8c:	76da      	strb	r2, [r3, #27]
    1a8e:	2310      	movs	r3, #16
    1a90:	18fb      	adds	r3, r7, r3
    1a92:	222e      	movs	r2, #46	; 0x2e
    1a94:	771a      	strb	r2, [r3, #28]
    1a96:	2310      	movs	r3, #16
    1a98:	18fb      	adds	r3, r7, r3
    1a9a:	2288      	movs	r2, #136	; 0x88
    1a9c:	775a      	strb	r2, [r3, #29]
    1a9e:	2310      	movs	r3, #16
    1aa0:	18fb      	adds	r3, r7, r3
    1aa2:	222f      	movs	r2, #47	; 0x2f
    1aa4:	779a      	strb	r2, [r3, #30]
    1aa6:	2310      	movs	r3, #16
    1aa8:	18fb      	adds	r3, r7, r3
    1aaa:	222d      	movs	r2, #45	; 0x2d
    1aac:	77da      	strb	r2, [r3, #31]
    1aae:	2310      	movs	r3, #16
    1ab0:	18fb      	adds	r3, r7, r3
    1ab2:	2220      	movs	r2, #32
    1ab4:	2130      	movs	r1, #48	; 0x30
    1ab6:	5499      	strb	r1, [r3, r2]
    1ab8:	2310      	movs	r3, #16
    1aba:	18fb      	adds	r3, r7, r3
    1abc:	1d7a      	adds	r2, r7, #5
    1abe:	2121      	movs	r1, #33	; 0x21
    1ac0:	7812      	ldrb	r2, [r2, #0]
    1ac2:	545a      	strb	r2, [r3, r1]
    1ac4:	2310      	movs	r3, #16
    1ac6:	18fb      	adds	r3, r7, r3
    1ac8:	2222      	movs	r2, #34	; 0x22
    1aca:	2137      	movs	r1, #55	; 0x37
    1acc:	5499      	strb	r1, [r3, r2]
    1ace:	2310      	movs	r3, #16
    1ad0:	18fb      	adds	r3, r7, r3
    1ad2:	2223      	movs	r2, #35	; 0x23
    1ad4:	2190      	movs	r1, #144	; 0x90
    1ad6:	5499      	strb	r1, [r3, r2]
    1ad8:	2310      	movs	r3, #16
    1ada:	18fb      	adds	r3, r7, r3
    1adc:	2224      	movs	r2, #36	; 0x24
    1ade:	2138      	movs	r1, #56	; 0x38
    1ae0:	5499      	strb	r1, [r3, r2]
    1ae2:	2310      	movs	r3, #16
    1ae4:	18fb      	adds	r3, r7, r3
    1ae6:	2225      	movs	r2, #37	; 0x25
    1ae8:	2142      	movs	r1, #66	; 0x42
    1aea:	5499      	strb	r1, [r3, r2]
    1aec:	2310      	movs	r3, #16
    1aee:	18fb      	adds	r3, r7, r3
    1af0:	2226      	movs	r2, #38	; 0x26
    1af2:	213c      	movs	r1, #60	; 0x3c
    1af4:	5499      	strb	r1, [r3, r2]
    1af6:	2310      	movs	r3, #16
    1af8:	18fb      	adds	r3, r7, r3
    1afa:	2227      	movs	r2, #39	; 0x27
    1afc:	218f      	movs	r1, #143	; 0x8f
    1afe:	5499      	strb	r1, [r3, r2]
    1b00:	2310      	movs	r3, #16
    1b02:	18fb      	adds	r3, r7, r3
    1b04:	2228      	movs	r2, #40	; 0x28
    1b06:	213d      	movs	r1, #61	; 0x3d
    1b08:	5499      	strb	r1, [r3, r2]
    1b0a:	2310      	movs	r3, #16
    1b0c:	18fb      	adds	r3, r7, r3
    1b0e:	2229      	movs	r2, #41	; 0x29
    1b10:	2112      	movs	r1, #18
    1b12:	5499      	strb	r1, [r3, r2]
    1b14:	2310      	movs	r3, #16
    1b16:	18fb      	adds	r3, r7, r3
    1b18:	222a      	movs	r2, #42	; 0x2a
    1b1a:	216f      	movs	r1, #111	; 0x6f
    1b1c:	5499      	strb	r1, [r3, r2]
    1b1e:	2310      	movs	r3, #16
    1b20:	18fb      	adds	r3, r7, r3
    1b22:	222b      	movs	r2, #43	; 0x2b
    1b24:	2130      	movs	r1, #48	; 0x30
    1b26:	5499      	strb	r1, [r3, r2]
    1b28:	2310      	movs	r3, #16
    1b2a:	18fb      	adds	r3, r7, r3
    1b2c:	222c      	movs	r2, #44	; 0x2c
    1b2e:	21ff      	movs	r1, #255	; 0xff
    1b30:	5499      	strb	r1, [r3, r2]
    1b32:	2310      	movs	r3, #16
    1b34:	18fb      	adds	r3, r7, r3
    1b36:	222d      	movs	r2, #45	; 0x2d
    1b38:	2100      	movs	r1, #0
    1b3a:	5499      	strb	r1, [r3, r2]

  //digitalWrite(_slaveSelectPin, HIGH); // CHANGE //
  //pinMode(_slaveSelectPin, OUTPUT); // CHANGE //
  //SPI.begin(); // CHANGE //

  configure_RFM69_spi();
    1b3c:	4b4c      	ldr	r3, [pc, #304]	; (1c70 <RFM_initialize+0x32c>)
    1b3e:	4798      	blx	r3
  configure_rtc_count(); // Configure the RTC module for millis
    1b40:	4b4c      	ldr	r3, [pc, #304]	; (1c74 <RFM_initialize+0x330>)
    1b42:	4798      	blx	r3
  configure_port_pins();
    1b44:	4b4c      	ldr	r3, [pc, #304]	; (1c78 <RFM_initialize+0x334>)
    1b46:	4798      	blx	r3
  configure_extint_channel();
    1b48:	4b4c      	ldr	r3, [pc, #304]	; (1c7c <RFM_initialize+0x338>)
    1b4a:	4798      	blx	r3


  reset_millis(); //unsigned long start = millis(); // CHANGE // 
    1b4c:	4b4c      	ldr	r3, [pc, #304]	; (1c80 <RFM_initialize+0x33c>)
    1b4e:	4798      	blx	r3
  volatile uint8_t timeout = 50;
    1b50:	230f      	movs	r3, #15
    1b52:	18fb      	adds	r3, r7, r3
    1b54:	2232      	movs	r2, #50	; 0x32
    1b56:	701a      	strb	r2, [r3, #0]
  do 
	writeReg(REG_SYNCVALUE1, 0xAA); 
    1b58:	202f      	movs	r0, #47	; 0x2f
    1b5a:	21aa      	movs	r1, #170	; 0xaa
    1b5c:	4b49      	ldr	r3, [pc, #292]	; (1c84 <RFM_initialize+0x340>)
    1b5e:	4798      	blx	r3
  while (readReg(REG_SYNCVALUE1) != 0xaa && millis() < timeout); // CHANGE // 
    1b60:	202f      	movs	r0, #47	; 0x2f
    1b62:	4b49      	ldr	r3, [pc, #292]	; (1c88 <RFM_initialize+0x344>)
    1b64:	4798      	blx	r3
    1b66:	1e03      	subs	r3, r0, #0
    1b68:	2baa      	cmp	r3, #170	; 0xaa
    1b6a:	d008      	beq.n	1b7e <RFM_initialize+0x23a>
    1b6c:	4b47      	ldr	r3, [pc, #284]	; (1c8c <RFM_initialize+0x348>)
    1b6e:	4798      	blx	r3
    1b70:	1c02      	adds	r2, r0, #0
    1b72:	230f      	movs	r3, #15
    1b74:	18fb      	adds	r3, r7, r3
    1b76:	781b      	ldrb	r3, [r3, #0]
    1b78:	b2db      	uxtb	r3, r3
    1b7a:	429a      	cmp	r2, r3
    1b7c:	d3ec      	bcc.n	1b58 <RFM_initialize+0x214>
  
  reset_millis(); //start = millis(); // CHANGE // 
    1b7e:	4b40      	ldr	r3, [pc, #256]	; (1c80 <RFM_initialize+0x33c>)
    1b80:	4798      	blx	r3
  do writeReg(REG_SYNCVALUE1, 0x55); while (readReg(REG_SYNCVALUE1) != 0x55 && millis() < timeout); // CHANGE // 
    1b82:	202f      	movs	r0, #47	; 0x2f
    1b84:	2155      	movs	r1, #85	; 0x55
    1b86:	4b3f      	ldr	r3, [pc, #252]	; (1c84 <RFM_initialize+0x340>)
    1b88:	4798      	blx	r3
    1b8a:	202f      	movs	r0, #47	; 0x2f
    1b8c:	4b3e      	ldr	r3, [pc, #248]	; (1c88 <RFM_initialize+0x344>)
    1b8e:	4798      	blx	r3
    1b90:	1e03      	subs	r3, r0, #0
    1b92:	2b55      	cmp	r3, #85	; 0x55
    1b94:	d008      	beq.n	1ba8 <RFM_initialize+0x264>
    1b96:	4b3d      	ldr	r3, [pc, #244]	; (1c8c <RFM_initialize+0x348>)
    1b98:	4798      	blx	r3
    1b9a:	1c02      	adds	r2, r0, #0
    1b9c:	230f      	movs	r3, #15
    1b9e:	18fb      	adds	r3, r7, r3
    1ba0:	781b      	ldrb	r3, [r3, #0]
    1ba2:	b2db      	uxtb	r3, r3
    1ba4:	429a      	cmp	r2, r3
    1ba6:	d3ec      	bcc.n	1b82 <RFM_initialize+0x23e>

  for (uint8_t i = 0; CONFIG[i][0] != 255; i++)
    1ba8:	233f      	movs	r3, #63	; 0x3f
    1baa:	18fb      	adds	r3, r7, r3
    1bac:	2200      	movs	r2, #0
    1bae:	701a      	strb	r2, [r3, #0]
    1bb0:	e01a      	b.n	1be8 <RFM_initialize+0x2a4>
    writeReg(CONFIG[i][0], CONFIG[i][1]);
    1bb2:	233f      	movs	r3, #63	; 0x3f
    1bb4:	18fb      	adds	r3, r7, r3
    1bb6:	781a      	ldrb	r2, [r3, #0]
    1bb8:	2310      	movs	r3, #16
    1bba:	18fb      	adds	r3, r7, r3
    1bbc:	0052      	lsls	r2, r2, #1
    1bbe:	5cd1      	ldrb	r1, [r2, r3]
    1bc0:	233f      	movs	r3, #63	; 0x3f
    1bc2:	18fb      	adds	r3, r7, r3
    1bc4:	781b      	ldrb	r3, [r3, #0]
    1bc6:	2210      	movs	r2, #16
    1bc8:	18ba      	adds	r2, r7, r2
    1bca:	005b      	lsls	r3, r3, #1
    1bcc:	18d3      	adds	r3, r2, r3
    1bce:	3301      	adds	r3, #1
    1bd0:	781b      	ldrb	r3, [r3, #0]
    1bd2:	1c08      	adds	r0, r1, #0
    1bd4:	1c19      	adds	r1, r3, #0
    1bd6:	4b2b      	ldr	r3, [pc, #172]	; (1c84 <RFM_initialize+0x340>)
    1bd8:	4798      	blx	r3
  while (readReg(REG_SYNCVALUE1) != 0xaa && millis() < timeout); // CHANGE // 
  
  reset_millis(); //start = millis(); // CHANGE // 
  do writeReg(REG_SYNCVALUE1, 0x55); while (readReg(REG_SYNCVALUE1) != 0x55 && millis() < timeout); // CHANGE // 

  for (uint8_t i = 0; CONFIG[i][0] != 255; i++)
    1bda:	233f      	movs	r3, #63	; 0x3f
    1bdc:	18fb      	adds	r3, r7, r3
    1bde:	781a      	ldrb	r2, [r3, #0]
    1be0:	233f      	movs	r3, #63	; 0x3f
    1be2:	18fb      	adds	r3, r7, r3
    1be4:	3201      	adds	r2, #1
    1be6:	701a      	strb	r2, [r3, #0]
    1be8:	233f      	movs	r3, #63	; 0x3f
    1bea:	18fb      	adds	r3, r7, r3
    1bec:	781a      	ldrb	r2, [r3, #0]
    1bee:	2310      	movs	r3, #16
    1bf0:	18fb      	adds	r3, r7, r3
    1bf2:	0052      	lsls	r2, r2, #1
    1bf4:	5cd3      	ldrb	r3, [r2, r3]
    1bf6:	2bff      	cmp	r3, #255	; 0xff
    1bf8:	d1db      	bne.n	1bb2 <RFM_initialize+0x26e>
    writeReg(CONFIG[i][0], CONFIG[i][1]);

  // Encryption is persistent between resets and can trip you up during debugging.
  // Disable it during initialization so we always start from a known state.
  RFM_encrypt(0);
    1bfa:	2000      	movs	r0, #0
    1bfc:	4b24      	ldr	r3, [pc, #144]	; (1c90 <RFM_initialize+0x34c>)
    1bfe:	4798      	blx	r3

  RFM_setHighPower(_isRFM69HW); // called regardless if it's a RFM69W or RFM69HW
    1c00:	4b24      	ldr	r3, [pc, #144]	; (1c94 <RFM_initialize+0x350>)
    1c02:	781b      	ldrb	r3, [r3, #0]
    1c04:	b2db      	uxtb	r3, r3
    1c06:	1c18      	adds	r0, r3, #0
    1c08:	4b23      	ldr	r3, [pc, #140]	; (1c98 <RFM_initialize+0x354>)
    1c0a:	4798      	blx	r3
  setMode(RF69_MODE_STANDBY);
    1c0c:	2001      	movs	r0, #1
    1c0e:	4b23      	ldr	r3, [pc, #140]	; (1c9c <RFM_initialize+0x358>)
    1c10:	4798      	blx	r3
  reset_millis(); //start = get_timer();
    1c12:	4b1b      	ldr	r3, [pc, #108]	; (1c80 <RFM_initialize+0x33c>)
    1c14:	4798      	blx	r3
  while (((readReg(REG_IRQFLAGS1) & RF_IRQFLAGS1_MODEREADY) == 0x00) && millis() < timeout); // wait for ModeReady  // CHANGE //
    1c16:	46c0      	nop			; (mov r8, r8)
    1c18:	2027      	movs	r0, #39	; 0x27
    1c1a:	4b1b      	ldr	r3, [pc, #108]	; (1c88 <RFM_initialize+0x344>)
    1c1c:	4798      	blx	r3
    1c1e:	1c03      	adds	r3, r0, #0
    1c20:	b2db      	uxtb	r3, r3
    1c22:	b25b      	sxtb	r3, r3
    1c24:	2b00      	cmp	r3, #0
    1c26:	db08      	blt.n	1c3a <RFM_initialize+0x2f6>
    1c28:	4b18      	ldr	r3, [pc, #96]	; (1c8c <RFM_initialize+0x348>)
    1c2a:	4798      	blx	r3
    1c2c:	1c02      	adds	r2, r0, #0
    1c2e:	230f      	movs	r3, #15
    1c30:	18fb      	adds	r3, r7, r3
    1c32:	781b      	ldrb	r3, [r3, #0]
    1c34:	b2db      	uxtb	r3, r3
    1c36:	429a      	cmp	r2, r3
    1c38:	d3ee      	bcc.n	1c18 <RFM_initialize+0x2d4>
  if (millis() >= timeout) // CHANGE //
    1c3a:	4b14      	ldr	r3, [pc, #80]	; (1c8c <RFM_initialize+0x348>)
    1c3c:	4798      	blx	r3
    1c3e:	1c02      	adds	r2, r0, #0
    1c40:	230f      	movs	r3, #15
    1c42:	18fb      	adds	r3, r7, r3
    1c44:	781b      	ldrb	r3, [r3, #0]
    1c46:	b2db      	uxtb	r3, r3
    1c48:	429a      	cmp	r2, r3
    1c4a:	d301      	bcc.n	1c50 <RFM_initialize+0x30c>
    return false;
    1c4c:	2300      	movs	r3, #0
    1c4e:	e009      	b.n	1c64 <RFM_initialize+0x320>
  _inISR = false;
    1c50:	4b13      	ldr	r3, [pc, #76]	; (1ca0 <RFM_initialize+0x35c>)
    1c52:	2200      	movs	r2, #0
    1c54:	701a      	strb	r2, [r3, #0]

  configure_extint_callbacks(); //attachInterrupt(_interruptNum, isr0, RISING); // CHANGE //
    1c56:	4b13      	ldr	r3, [pc, #76]	; (1ca4 <RFM_initialize+0x360>)
    1c58:	4798      	blx	r3

  _address = nodeID;
    1c5a:	4b13      	ldr	r3, [pc, #76]	; (1ca8 <RFM_initialize+0x364>)
    1c5c:	1dba      	adds	r2, r7, #6
    1c5e:	7812      	ldrb	r2, [r2, #0]
    1c60:	701a      	strb	r2, [r3, #0]
  return true;
    1c62:	2301      	movs	r3, #1
}
    1c64:	1c18      	adds	r0, r3, #0
    1c66:	46bd      	mov	sp, r7
    1c68:	b011      	add	sp, #68	; 0x44
    1c6a:	bd90      	pop	{r4, r7, pc}
    1c6c:	00001915 	.word	0x00001915
    1c70:	00001715 	.word	0x00001715
    1c74:	000017d9 	.word	0x000017d9
    1c78:	00001681 	.word	0x00001681
    1c7c:	000016ad 	.word	0x000016ad
    1c80:	0000183d 	.word	0x0000183d
    1c84:	00002235 	.word	0x00002235
    1c88:	000021c9 	.word	0x000021c9
    1c8c:	00001865 	.word	0x00001865
    1c90:	000020c9 	.word	0x000020c9
    1c94:	20000254 	.word	0x20000254
    1c98:	0000188d 	.word	0x0000188d
    1c9c:	00001cad 	.word	0x00001cad
    1ca0:	200001c5 	.word	0x200001c5
    1ca4:	000016ed 	.word	0x000016ed
    1ca8:	200001c6 	.word	0x200001c6

00001cac <setMode>:
  }
  setMode(oldMode);
}

void setMode(uint8_t newMode)
{
    1cac:	b580      	push	{r7, lr}
    1cae:	b082      	sub	sp, #8
    1cb0:	af00      	add	r7, sp, #0
    1cb2:	1c02      	adds	r2, r0, #0
    1cb4:	1dfb      	adds	r3, r7, #7
    1cb6:	701a      	strb	r2, [r3, #0]
  if (newMode == _mode)
    1cb8:	1dfb      	adds	r3, r7, #7
    1cba:	781b      	ldrb	r3, [r3, #0]
    1cbc:	b29a      	uxth	r2, r3
    1cbe:	4b4c      	ldr	r3, [pc, #304]	; (1df0 <setMode+0x144>)
    1cc0:	881b      	ldrh	r3, [r3, #0]
    1cc2:	b29b      	uxth	r3, r3
    1cc4:	429a      	cmp	r2, r3
    1cc6:	d100      	bne.n	1cca <setMode+0x1e>
    return;
    1cc8:	e08e      	b.n	1de8 <setMode+0x13c>

  switch (newMode) {
    1cca:	1dfb      	adds	r3, r7, #7
    1ccc:	781b      	ldrb	r3, [r3, #0]
    1cce:	2b04      	cmp	r3, #4
    1cd0:	d900      	bls.n	1cd4 <setMode+0x28>
    1cd2:	e088      	b.n	1de6 <setMode+0x13a>
    1cd4:	009a      	lsls	r2, r3, #2
    1cd6:	4b47      	ldr	r3, [pc, #284]	; (1df4 <setMode+0x148>)
    1cd8:	18d3      	adds	r3, r2, r3
    1cda:	681b      	ldr	r3, [r3, #0]
    1cdc:	469f      	mov	pc, r3
    case RF69_MODE_TX:
      writeReg(REG_OPMODE, (readReg(REG_OPMODE) & 0xE3) | RF_OPMODE_TRANSMITTER);
    1cde:	2001      	movs	r0, #1
    1ce0:	4b45      	ldr	r3, [pc, #276]	; (1df8 <setMode+0x14c>)
    1ce2:	4798      	blx	r3
    1ce4:	1c03      	adds	r3, r0, #0
    1ce6:	b2db      	uxtb	r3, r3
    1ce8:	1c1a      	adds	r2, r3, #0
    1cea:	231c      	movs	r3, #28
    1cec:	439a      	bics	r2, r3
    1cee:	1c13      	adds	r3, r2, #0
    1cf0:	b2db      	uxtb	r3, r3
    1cf2:	1c1a      	adds	r2, r3, #0
    1cf4:	230c      	movs	r3, #12
    1cf6:	4313      	orrs	r3, r2
    1cf8:	b2db      	uxtb	r3, r3
    1cfa:	b2db      	uxtb	r3, r3
    1cfc:	2001      	movs	r0, #1
    1cfe:	1c19      	adds	r1, r3, #0
    1d00:	4b3e      	ldr	r3, [pc, #248]	; (1dfc <setMode+0x150>)
    1d02:	4798      	blx	r3
      if (_isRFM69HW) setHighPowerRegs(true);
    1d04:	4b3e      	ldr	r3, [pc, #248]	; (1e00 <setMode+0x154>)
    1d06:	781b      	ldrb	r3, [r3, #0]
    1d08:	b2db      	uxtb	r3, r3
    1d0a:	2b00      	cmp	r3, #0
    1d0c:	d003      	beq.n	1d16 <setMode+0x6a>
    1d0e:	2001      	movs	r0, #1
    1d10:	4b3c      	ldr	r3, [pc, #240]	; (1e04 <setMode+0x158>)
    1d12:	4798      	blx	r3
      break;
    1d14:	e053      	b.n	1dbe <setMode+0x112>
    1d16:	e052      	b.n	1dbe <setMode+0x112>
    case RF69_MODE_RX:
      writeReg(REG_OPMODE, (readReg(REG_OPMODE) & 0xE3) | RF_OPMODE_RECEIVER);
    1d18:	2001      	movs	r0, #1
    1d1a:	4b37      	ldr	r3, [pc, #220]	; (1df8 <setMode+0x14c>)
    1d1c:	4798      	blx	r3
    1d1e:	1c03      	adds	r3, r0, #0
    1d20:	b2db      	uxtb	r3, r3
    1d22:	1c1a      	adds	r2, r3, #0
    1d24:	231c      	movs	r3, #28
    1d26:	439a      	bics	r2, r3
    1d28:	1c13      	adds	r3, r2, #0
    1d2a:	b2db      	uxtb	r3, r3
    1d2c:	1c1a      	adds	r2, r3, #0
    1d2e:	2310      	movs	r3, #16
    1d30:	4313      	orrs	r3, r2
    1d32:	b2db      	uxtb	r3, r3
    1d34:	b2db      	uxtb	r3, r3
    1d36:	2001      	movs	r0, #1
    1d38:	1c19      	adds	r1, r3, #0
    1d3a:	4b30      	ldr	r3, [pc, #192]	; (1dfc <setMode+0x150>)
    1d3c:	4798      	blx	r3
      if (_isRFM69HW) setHighPowerRegs(false);
    1d3e:	4b30      	ldr	r3, [pc, #192]	; (1e00 <setMode+0x154>)
    1d40:	781b      	ldrb	r3, [r3, #0]
    1d42:	b2db      	uxtb	r3, r3
    1d44:	2b00      	cmp	r3, #0
    1d46:	d003      	beq.n	1d50 <setMode+0xa4>
    1d48:	2000      	movs	r0, #0
    1d4a:	4b2e      	ldr	r3, [pc, #184]	; (1e04 <setMode+0x158>)
    1d4c:	4798      	blx	r3
      break;
    1d4e:	e036      	b.n	1dbe <setMode+0x112>
    1d50:	e035      	b.n	1dbe <setMode+0x112>
    case RF69_MODE_SYNTH:
      writeReg(REG_OPMODE, (readReg(REG_OPMODE) & 0xE3) | RF_OPMODE_SYNTHESIZER);
    1d52:	2001      	movs	r0, #1
    1d54:	4b28      	ldr	r3, [pc, #160]	; (1df8 <setMode+0x14c>)
    1d56:	4798      	blx	r3
    1d58:	1c03      	adds	r3, r0, #0
    1d5a:	b2db      	uxtb	r3, r3
    1d5c:	1c1a      	adds	r2, r3, #0
    1d5e:	231c      	movs	r3, #28
    1d60:	439a      	bics	r2, r3
    1d62:	1c13      	adds	r3, r2, #0
    1d64:	b2db      	uxtb	r3, r3
    1d66:	1c1a      	adds	r2, r3, #0
    1d68:	2308      	movs	r3, #8
    1d6a:	4313      	orrs	r3, r2
    1d6c:	b2db      	uxtb	r3, r3
    1d6e:	b2db      	uxtb	r3, r3
    1d70:	2001      	movs	r0, #1
    1d72:	1c19      	adds	r1, r3, #0
    1d74:	4b21      	ldr	r3, [pc, #132]	; (1dfc <setMode+0x150>)
    1d76:	4798      	blx	r3
      break;
    1d78:	e021      	b.n	1dbe <setMode+0x112>
    case RF69_MODE_STANDBY:
      writeReg(REG_OPMODE, (readReg(REG_OPMODE) & 0xE3) | RF_OPMODE_STANDBY);
    1d7a:	2001      	movs	r0, #1
    1d7c:	4b1e      	ldr	r3, [pc, #120]	; (1df8 <setMode+0x14c>)
    1d7e:	4798      	blx	r3
    1d80:	1c03      	adds	r3, r0, #0
    1d82:	b2db      	uxtb	r3, r3
    1d84:	1c1a      	adds	r2, r3, #0
    1d86:	231c      	movs	r3, #28
    1d88:	439a      	bics	r2, r3
    1d8a:	1c13      	adds	r3, r2, #0
    1d8c:	b2db      	uxtb	r3, r3
    1d8e:	1c1a      	adds	r2, r3, #0
    1d90:	2304      	movs	r3, #4
    1d92:	4313      	orrs	r3, r2
    1d94:	b2db      	uxtb	r3, r3
    1d96:	b2db      	uxtb	r3, r3
    1d98:	2001      	movs	r0, #1
    1d9a:	1c19      	adds	r1, r3, #0
    1d9c:	4b17      	ldr	r3, [pc, #92]	; (1dfc <setMode+0x150>)
    1d9e:	4798      	blx	r3
      break;
    1da0:	e00d      	b.n	1dbe <setMode+0x112>
    case RF69_MODE_SLEEP:
      writeReg(REG_OPMODE, (readReg(REG_OPMODE) & 0xE3) | RF_OPMODE_SLEEP);
    1da2:	2001      	movs	r0, #1
    1da4:	4b14      	ldr	r3, [pc, #80]	; (1df8 <setMode+0x14c>)
    1da6:	4798      	blx	r3
    1da8:	1c03      	adds	r3, r0, #0
    1daa:	1c1a      	adds	r2, r3, #0
    1dac:	231c      	movs	r3, #28
    1dae:	439a      	bics	r2, r3
    1db0:	1c13      	adds	r3, r2, #0
    1db2:	b2db      	uxtb	r3, r3
    1db4:	2001      	movs	r0, #1
    1db6:	1c19      	adds	r1, r3, #0
    1db8:	4b10      	ldr	r3, [pc, #64]	; (1dfc <setMode+0x150>)
    1dba:	4798      	blx	r3
      break;
    1dbc:	46c0      	nop			; (mov r8, r8)
      return;
  }

  // we are using packet mode, so this check is not really needed
  // but waiting for mode ready is necessary when going from sleep because the FIFO may not be immediately available from previous mode
  while (_mode == RF69_MODE_SLEEP && (readReg(REG_IRQFLAGS1) & RF_IRQFLAGS1_MODEREADY) == 0x00); // wait for ModeReady
    1dbe:	46c0      	nop			; (mov r8, r8)
    1dc0:	4b0b      	ldr	r3, [pc, #44]	; (1df0 <setMode+0x144>)
    1dc2:	881b      	ldrh	r3, [r3, #0]
    1dc4:	b29b      	uxth	r3, r3
    1dc6:	2b00      	cmp	r3, #0
    1dc8:	d107      	bne.n	1dda <setMode+0x12e>
    1dca:	2027      	movs	r0, #39	; 0x27
    1dcc:	4b0a      	ldr	r3, [pc, #40]	; (1df8 <setMode+0x14c>)
    1dce:	4798      	blx	r3
    1dd0:	1c03      	adds	r3, r0, #0
    1dd2:	b2db      	uxtb	r3, r3
    1dd4:	b25b      	sxtb	r3, r3
    1dd6:	2b00      	cmp	r3, #0
    1dd8:	daf2      	bge.n	1dc0 <setMode+0x114>

  _mode = newMode;
    1dda:	1dfb      	adds	r3, r7, #7
    1ddc:	781b      	ldrb	r3, [r3, #0]
    1dde:	b29a      	uxth	r2, r3
    1de0:	4b03      	ldr	r3, [pc, #12]	; (1df0 <setMode+0x144>)
    1de2:	801a      	strh	r2, [r3, #0]
    1de4:	e000      	b.n	1de8 <setMode+0x13c>
      break;
    case RF69_MODE_SLEEP:
      writeReg(REG_OPMODE, (readReg(REG_OPMODE) & 0xE3) | RF_OPMODE_SLEEP);
      break;
    default:
      return;
    1de6:	46c0      	nop			; (mov r8, r8)
  // we are using packet mode, so this check is not really needed
  // but waiting for mode ready is necessary when going from sleep because the FIFO may not be immediately available from previous mode
  while (_mode == RF69_MODE_SLEEP && (readReg(REG_IRQFLAGS1) & RF_IRQFLAGS1_MODEREADY) == 0x00); // wait for ModeReady

  _mode = newMode;
}
    1de8:	46bd      	mov	sp, r7
    1dea:	b002      	add	sp, #8
    1dec:	bd80      	pop	{r7, pc}
    1dee:	46c0      	nop			; (mov r8, r8)
    1df0:	20000252 	.word	0x20000252
    1df4:	00008c20 	.word	0x00008c20
    1df8:	000021c9 	.word	0x000021c9
    1dfc:	00002235 	.word	0x00002235
    1e00:	20000254 	.word	0x20000254
    1e04:	000022e9 	.word	0x000022e9

00001e08 <interruptHandler>:
  sendFrame(sender, buffer, bufferSize, false, true);
  RFM_RSSI = _RSSI; // restore payload RSSI
}

// internal function - interrupt gets called when a packet is received
void interruptHandler() {
    1e08:	b580      	push	{r7, lr}
    1e0a:	b082      	sub	sp, #8
    1e0c:	af00      	add	r7, sp, #0
  if (_mode == RF69_MODE_RX && (readReg(REG_IRQFLAGS2) & RF_IRQFLAGS2_PAYLOADREADY)) //
    1e0e:	4b5b      	ldr	r3, [pc, #364]	; (1f7c <interruptHandler+0x174>)
    1e10:	881b      	ldrh	r3, [r3, #0]
    1e12:	b29b      	uxth	r3, r3
    1e14:	2b03      	cmp	r3, #3
    1e16:	d000      	beq.n	1e1a <interruptHandler+0x12>
    1e18:	e0a7      	b.n	1f6a <interruptHandler+0x162>
    1e1a:	2028      	movs	r0, #40	; 0x28
    1e1c:	4b58      	ldr	r3, [pc, #352]	; (1f80 <interruptHandler+0x178>)
    1e1e:	4798      	blx	r3
    1e20:	1c03      	adds	r3, r0, #0
    1e22:	1c1a      	adds	r2, r3, #0
    1e24:	2304      	movs	r3, #4
    1e26:	4013      	ands	r3, r2
    1e28:	d100      	bne.n	1e2c <interruptHandler+0x24>
    1e2a:	e09e      	b.n	1f6a <interruptHandler+0x162>
  {
    setMode(RF69_MODE_STANDBY);
    1e2c:	2001      	movs	r0, #1
    1e2e:	4b55      	ldr	r3, [pc, #340]	; (1f84 <interruptHandler+0x17c>)
    1e30:	4798      	blx	r3
    selectrf();
    1e32:	4b55      	ldr	r3, [pc, #340]	; (1f88 <interruptHandler+0x180>)
    1e34:	4798      	blx	r3
    spi_transceive_wait(&spi_master_instance, REG_FIFO & 0x7F, &read_buf); //SPI.transfer(REG_FIFO & 0x7F); // CHANGE //
    1e36:	4a55      	ldr	r2, [pc, #340]	; (1f8c <interruptHandler+0x184>)
    1e38:	4b55      	ldr	r3, [pc, #340]	; (1f90 <interruptHandler+0x188>)
    1e3a:	1c10      	adds	r0, r2, #0
    1e3c:	2100      	movs	r1, #0
    1e3e:	1c1a      	adds	r2, r3, #0
    1e40:	4b54      	ldr	r3, [pc, #336]	; (1f94 <interruptHandler+0x18c>)
    1e42:	4798      	blx	r3
    spi_transceive_wait(&spi_master_instance, 0, &PAYLOADLEN); //SPI.transfer(0); // CHANGE //
    1e44:	4a51      	ldr	r2, [pc, #324]	; (1f8c <interruptHandler+0x184>)
    1e46:	4b54      	ldr	r3, [pc, #336]	; (1f98 <interruptHandler+0x190>)
    1e48:	1c10      	adds	r0, r2, #0
    1e4a:	2100      	movs	r1, #0
    1e4c:	1c1a      	adds	r2, r3, #0
    1e4e:	4b51      	ldr	r3, [pc, #324]	; (1f94 <interruptHandler+0x18c>)
    1e50:	4798      	blx	r3
    PAYLOADLEN = PAYLOADLEN > 66 ? 66 : PAYLOADLEN; // precaution
    1e52:	4b51      	ldr	r3, [pc, #324]	; (1f98 <interruptHandler+0x190>)
    1e54:	881b      	ldrh	r3, [r3, #0]
    1e56:	b29b      	uxth	r3, r3
    1e58:	2b42      	cmp	r3, #66	; 0x42
    1e5a:	d803      	bhi.n	1e64 <interruptHandler+0x5c>
    1e5c:	4b4e      	ldr	r3, [pc, #312]	; (1f98 <interruptHandler+0x190>)
    1e5e:	881b      	ldrh	r3, [r3, #0]
    1e60:	b29a      	uxth	r2, r3
    1e62:	e000      	b.n	1e66 <interruptHandler+0x5e>
    1e64:	2242      	movs	r2, #66	; 0x42
    1e66:	4b4c      	ldr	r3, [pc, #304]	; (1f98 <interruptHandler+0x190>)
    1e68:	801a      	strh	r2, [r3, #0]
    spi_transceive_wait(&spi_master_instance, 0, &TARGETID); //SPI.transfer(0); // CHANGE //
    1e6a:	4a48      	ldr	r2, [pc, #288]	; (1f8c <interruptHandler+0x184>)
    1e6c:	4b4b      	ldr	r3, [pc, #300]	; (1f9c <interruptHandler+0x194>)
    1e6e:	1c10      	adds	r0, r2, #0
    1e70:	2100      	movs	r1, #0
    1e72:	1c1a      	adds	r2, r3, #0
    1e74:	4b47      	ldr	r3, [pc, #284]	; (1f94 <interruptHandler+0x18c>)
    1e76:	4798      	blx	r3
    if(!(_promiscuousMode || TARGETID == _address || TARGETID == RF69_BROADCAST_ADDR) // match this node's address, or broadcast address or anything in promiscuous mode
    1e78:	4b49      	ldr	r3, [pc, #292]	; (1fa0 <interruptHandler+0x198>)
    1e7a:	781b      	ldrb	r3, [r3, #0]
    1e7c:	b2db      	uxtb	r3, r3
    1e7e:	2201      	movs	r2, #1
    1e80:	4053      	eors	r3, r2
    1e82:	b2db      	uxtb	r3, r3
    1e84:	2b00      	cmp	r3, #0
    1e86:	d00d      	beq.n	1ea4 <interruptHandler+0x9c>
    1e88:	4b46      	ldr	r3, [pc, #280]	; (1fa4 <interruptHandler+0x19c>)
    1e8a:	781b      	ldrb	r3, [r3, #0]
    1e8c:	b2db      	uxtb	r3, r3
    1e8e:	b29a      	uxth	r2, r3
    1e90:	4b42      	ldr	r3, [pc, #264]	; (1f9c <interruptHandler+0x194>)
    1e92:	881b      	ldrh	r3, [r3, #0]
    1e94:	b29b      	uxth	r3, r3
    1e96:	429a      	cmp	r2, r3
    1e98:	d004      	beq.n	1ea4 <interruptHandler+0x9c>
    1e9a:	4b40      	ldr	r3, [pc, #256]	; (1f9c <interruptHandler+0x194>)
    1e9c:	881b      	ldrh	r3, [r3, #0]
    1e9e:	b29b      	uxth	r3, r3
    1ea0:	2bff      	cmp	r3, #255	; 0xff
    1ea2:	d104      	bne.n	1eae <interruptHandler+0xa6>
       || PAYLOADLEN < 3) // address situation could receive packets that are malformed and don't fit this libraries extra fields
    1ea4:	4b3c      	ldr	r3, [pc, #240]	; (1f98 <interruptHandler+0x190>)
    1ea6:	881b      	ldrh	r3, [r3, #0]
    1ea8:	b29b      	uxth	r3, r3
    1eaa:	2b02      	cmp	r3, #2
    1eac:	d807      	bhi.n	1ebe <interruptHandler+0xb6>
    {
      PAYLOADLEN = 0;
    1eae:	4b3a      	ldr	r3, [pc, #232]	; (1f98 <interruptHandler+0x190>)
    1eb0:	2200      	movs	r2, #0
    1eb2:	801a      	strh	r2, [r3, #0]
      unselect();
    1eb4:	4b3c      	ldr	r3, [pc, #240]	; (1fa8 <interruptHandler+0x1a0>)
    1eb6:	4798      	blx	r3
      receiveBegin();
    1eb8:	4b3c      	ldr	r3, [pc, #240]	; (1fac <interruptHandler+0x1a4>)
    1eba:	4798      	blx	r3
    1ebc:	e05b      	b.n	1f76 <interruptHandler+0x16e>
      return;
    }

    RFM_DATALEN = PAYLOADLEN - 3;
    1ebe:	4b36      	ldr	r3, [pc, #216]	; (1f98 <interruptHandler+0x190>)
    1ec0:	881b      	ldrh	r3, [r3, #0]
    1ec2:	b29b      	uxth	r3, r3
    1ec4:	3b03      	subs	r3, #3
    1ec6:	b29a      	uxth	r2, r3
    1ec8:	4b39      	ldr	r3, [pc, #228]	; (1fb0 <interruptHandler+0x1a8>)
    1eca:	801a      	strh	r2, [r3, #0]
    spi_transceive_wait(&spi_master_instance, 0, &RFM_SENDERID); //SPI.transfer(0); // CHANGE //
    1ecc:	4a2f      	ldr	r2, [pc, #188]	; (1f8c <interruptHandler+0x184>)
    1ece:	4b39      	ldr	r3, [pc, #228]	; (1fb4 <interruptHandler+0x1ac>)
    1ed0:	1c10      	adds	r0, r2, #0
    1ed2:	2100      	movs	r1, #0
    1ed4:	1c1a      	adds	r2, r3, #0
    1ed6:	4b2f      	ldr	r3, [pc, #188]	; (1f94 <interruptHandler+0x18c>)
    1ed8:	4798      	blx	r3
    uint8_t CTLbyte = 0;
    1eda:	1dbb      	adds	r3, r7, #6
    1edc:	2200      	movs	r2, #0
    1ede:	701a      	strb	r2, [r3, #0]
	spi_transceive_wait(&spi_master_instance, 0, &CTLbyte); //SPI.transfer(0); // CHANGE //
    1ee0:	4a2a      	ldr	r2, [pc, #168]	; (1f8c <interruptHandler+0x184>)
    1ee2:	1dbb      	adds	r3, r7, #6
    1ee4:	1c10      	adds	r0, r2, #0
    1ee6:	2100      	movs	r1, #0
    1ee8:	1c1a      	adds	r2, r3, #0
    1eea:	4b2a      	ldr	r3, [pc, #168]	; (1f94 <interruptHandler+0x18c>)
    1eec:	4798      	blx	r3

    ACK_RECEIVED = CTLbyte & RFM69_CTL_SENDACK; // extract ACK-received flag
    1eee:	1dbb      	adds	r3, r7, #6
    1ef0:	781b      	ldrb	r3, [r3, #0]
    1ef2:	b29b      	uxth	r3, r3
    1ef4:	2280      	movs	r2, #128	; 0x80
    1ef6:	4013      	ands	r3, r2
    1ef8:	b29a      	uxth	r2, r3
    1efa:	4b2f      	ldr	r3, [pc, #188]	; (1fb8 <interruptHandler+0x1b0>)
    1efc:	801a      	strh	r2, [r3, #0]
    ACK_REQUESTED = CTLbyte & RFM69_CTL_REQACK; // extract ACK-requested flag
    1efe:	1dbb      	adds	r3, r7, #6
    1f00:	781b      	ldrb	r3, [r3, #0]
    1f02:	b29b      	uxth	r3, r3
    1f04:	2240      	movs	r2, #64	; 0x40
    1f06:	4013      	ands	r3, r2
    1f08:	b29a      	uxth	r2, r3
    1f0a:	4b2c      	ldr	r3, [pc, #176]	; (1fbc <interruptHandler+0x1b4>)
    1f0c:	801a      	strh	r2, [r3, #0]

    for (uint8_t i = 0; i < RFM_DATALEN; i++)
    1f0e:	1dfb      	adds	r3, r7, #7
    1f10:	2200      	movs	r2, #0
    1f12:	701a      	strb	r2, [r3, #0]
    1f14:	e00f      	b.n	1f36 <interruptHandler+0x12e>
    {
      spi_transceive_wait(&spi_master_instance, 0, RFM_DATA + i); //SPI.transfer(0); // CHANGE //
    1f16:	1dfb      	adds	r3, r7, #7
    1f18:	781b      	ldrb	r3, [r3, #0]
    1f1a:	005a      	lsls	r2, r3, #1
    1f1c:	4b28      	ldr	r3, [pc, #160]	; (1fc0 <interruptHandler+0x1b8>)
    1f1e:	18d3      	adds	r3, r2, r3
    1f20:	4a1a      	ldr	r2, [pc, #104]	; (1f8c <interruptHandler+0x184>)
    1f22:	1c10      	adds	r0, r2, #0
    1f24:	2100      	movs	r1, #0
    1f26:	1c1a      	adds	r2, r3, #0
    1f28:	4b1a      	ldr	r3, [pc, #104]	; (1f94 <interruptHandler+0x18c>)
    1f2a:	4798      	blx	r3
	spi_transceive_wait(&spi_master_instance, 0, &CTLbyte); //SPI.transfer(0); // CHANGE //

    ACK_RECEIVED = CTLbyte & RFM69_CTL_SENDACK; // extract ACK-received flag
    ACK_REQUESTED = CTLbyte & RFM69_CTL_REQACK; // extract ACK-requested flag

    for (uint8_t i = 0; i < RFM_DATALEN; i++)
    1f2c:	1dfb      	adds	r3, r7, #7
    1f2e:	781a      	ldrb	r2, [r3, #0]
    1f30:	1dfb      	adds	r3, r7, #7
    1f32:	3201      	adds	r2, #1
    1f34:	701a      	strb	r2, [r3, #0]
    1f36:	1dfb      	adds	r3, r7, #7
    1f38:	781b      	ldrb	r3, [r3, #0]
    1f3a:	b29a      	uxth	r2, r3
    1f3c:	4b1c      	ldr	r3, [pc, #112]	; (1fb0 <interruptHandler+0x1a8>)
    1f3e:	881b      	ldrh	r3, [r3, #0]
    1f40:	b29b      	uxth	r3, r3
    1f42:	429a      	cmp	r2, r3
    1f44:	d3e7      	bcc.n	1f16 <interruptHandler+0x10e>
    {
      spi_transceive_wait(&spi_master_instance, 0, RFM_DATA + i); //SPI.transfer(0); // CHANGE //
    }
    if (RFM_DATALEN < RF69_MAX_DATA_LEN) RFM_DATA[RFM_DATALEN] = 0; // add null at end of string
    1f46:	4b1a      	ldr	r3, [pc, #104]	; (1fb0 <interruptHandler+0x1a8>)
    1f48:	881b      	ldrh	r3, [r3, #0]
    1f4a:	b29b      	uxth	r3, r3
    1f4c:	2b3c      	cmp	r3, #60	; 0x3c
    1f4e:	d807      	bhi.n	1f60 <interruptHandler+0x158>
    1f50:	4b17      	ldr	r3, [pc, #92]	; (1fb0 <interruptHandler+0x1a8>)
    1f52:	881b      	ldrh	r3, [r3, #0]
    1f54:	b29b      	uxth	r3, r3
    1f56:	1c1a      	adds	r2, r3, #0
    1f58:	4b19      	ldr	r3, [pc, #100]	; (1fc0 <interruptHandler+0x1b8>)
    1f5a:	0052      	lsls	r2, r2, #1
    1f5c:	2100      	movs	r1, #0
    1f5e:	52d1      	strh	r1, [r2, r3]
    unselect();
    1f60:	4b11      	ldr	r3, [pc, #68]	; (1fa8 <interruptHandler+0x1a0>)
    1f62:	4798      	blx	r3
    setMode(RF69_MODE_RX);
    1f64:	2003      	movs	r0, #3
    1f66:	4b07      	ldr	r3, [pc, #28]	; (1f84 <interruptHandler+0x17c>)
    1f68:	4798      	blx	r3
  }
  RFM_RSSI = readRSSI();
    1f6a:	4b16      	ldr	r3, [pc, #88]	; (1fc4 <interruptHandler+0x1bc>)
    1f6c:	4798      	blx	r3
    1f6e:	1c03      	adds	r3, r0, #0
    1f70:	1c1a      	adds	r2, r3, #0
    1f72:	4b15      	ldr	r3, [pc, #84]	; (1fc8 <interruptHandler+0x1c0>)
    1f74:	801a      	strh	r2, [r3, #0]
}
    1f76:	46bd      	mov	sp, r7
    1f78:	b002      	add	sp, #8
    1f7a:	bd80      	pop	{r7, pc}
    1f7c:	20000252 	.word	0x20000252
    1f80:	000021c9 	.word	0x000021c9
    1f84:	00001cad 	.word	0x00001cad
    1f88:	00002299 	.word	0x00002299
    1f8c:	20000258 	.word	0x20000258
    1f90:	200000fa 	.word	0x200000fa
    1f94:	000011ad 	.word	0x000011ad
    1f98:	2000024c 	.word	0x2000024c
    1f9c:	20000250 	.word	0x20000250
    1fa0:	200001cc 	.word	0x200001cc
    1fa4:	200001c6 	.word	0x200001c6
    1fa8:	000022bd 	.word	0x000022bd
    1fac:	00001fed 	.word	0x00001fed
    1fb0:	200001ca 	.word	0x200001ca
    1fb4:	200001ba 	.word	0x200001ba
    1fb8:	200001c8 	.word	0x200001c8
    1fbc:	2000024e 	.word	0x2000024e
    1fc0:	200001d0 	.word	0x200001d0
    1fc4:	00002185 	.word	0x00002185
    1fc8:	20000264 	.word	0x20000264

00001fcc <isr0>:

// internal function
void isr0()
{ 
    1fcc:	b580      	push	{r7, lr}
    1fce:	af00      	add	r7, sp, #0
	_inISR = true; 
    1fd0:	4b04      	ldr	r3, [pc, #16]	; (1fe4 <isr0+0x18>)
    1fd2:	2201      	movs	r2, #1
    1fd4:	701a      	strb	r2, [r3, #0]
	interruptHandler(); 
    1fd6:	4b04      	ldr	r3, [pc, #16]	; (1fe8 <isr0+0x1c>)
    1fd8:	4798      	blx	r3
	_inISR = false;
    1fda:	4b02      	ldr	r3, [pc, #8]	; (1fe4 <isr0+0x18>)
    1fdc:	2200      	movs	r2, #0
    1fde:	701a      	strb	r2, [r3, #0]
} // CHANGE //?
    1fe0:	46bd      	mov	sp, r7
    1fe2:	bd80      	pop	{r7, pc}
    1fe4:	200001c5 	.word	0x200001c5
    1fe8:	00001e09 	.word	0x00001e09

00001fec <receiveBegin>:

// internal function
void receiveBegin() {
    1fec:	b580      	push	{r7, lr}
    1fee:	af00      	add	r7, sp, #0
  RFM_DATALEN = 0;
    1ff0:	4b18      	ldr	r3, [pc, #96]	; (2054 <STACK_SIZE+0x54>)
    1ff2:	2200      	movs	r2, #0
    1ff4:	801a      	strh	r2, [r3, #0]
  RFM_SENDERID = 0;
    1ff6:	4b18      	ldr	r3, [pc, #96]	; (2058 <STACK_SIZE+0x58>)
    1ff8:	2200      	movs	r2, #0
    1ffa:	801a      	strh	r2, [r3, #0]
  TARGETID = 0;
    1ffc:	4b17      	ldr	r3, [pc, #92]	; (205c <STACK_SIZE+0x5c>)
    1ffe:	2200      	movs	r2, #0
    2000:	801a      	strh	r2, [r3, #0]
  PAYLOADLEN = 0;
    2002:	4b17      	ldr	r3, [pc, #92]	; (2060 <STACK_SIZE+0x60>)
    2004:	2200      	movs	r2, #0
    2006:	801a      	strh	r2, [r3, #0]
  ACK_REQUESTED = 0;
    2008:	4b16      	ldr	r3, [pc, #88]	; (2064 <STACK_SIZE+0x64>)
    200a:	2200      	movs	r2, #0
    200c:	801a      	strh	r2, [r3, #0]
  ACK_RECEIVED = 0;
    200e:	4b16      	ldr	r3, [pc, #88]	; (2068 <STACK_SIZE+0x68>)
    2010:	2200      	movs	r2, #0
    2012:	801a      	strh	r2, [r3, #0]
  RFM_RSSI = 0;
    2014:	4b15      	ldr	r3, [pc, #84]	; (206c <STACK_SIZE+0x6c>)
    2016:	2200      	movs	r2, #0
    2018:	801a      	strh	r2, [r3, #0]
  if (readReg(REG_IRQFLAGS2) & RF_IRQFLAGS2_PAYLOADREADY)
    201a:	2028      	movs	r0, #40	; 0x28
    201c:	4b14      	ldr	r3, [pc, #80]	; (2070 <STACK_SIZE+0x70>)
    201e:	4798      	blx	r3
    2020:	1c03      	adds	r3, r0, #0
    2022:	1c1a      	adds	r2, r3, #0
    2024:	2304      	movs	r3, #4
    2026:	4013      	ands	r3, r2
    2028:	d00b      	beq.n	2042 <STACK_SIZE+0x42>
    writeReg(REG_PACKETCONFIG2, (readReg(REG_PACKETCONFIG2) & 0xFB) | RF_PACKET2_RXRESTART); // avoid RX deadlocks
    202a:	203d      	movs	r0, #61	; 0x3d
    202c:	4b10      	ldr	r3, [pc, #64]	; (2070 <STACK_SIZE+0x70>)
    202e:	4798      	blx	r3
    2030:	1c03      	adds	r3, r0, #0
    2032:	1c1a      	adds	r2, r3, #0
    2034:	2304      	movs	r3, #4
    2036:	4313      	orrs	r3, r2
    2038:	b2db      	uxtb	r3, r3
    203a:	203d      	movs	r0, #61	; 0x3d
    203c:	1c19      	adds	r1, r3, #0
    203e:	4b0d      	ldr	r3, [pc, #52]	; (2074 <STACK_SIZE+0x74>)
    2040:	4798      	blx	r3
  writeReg(REG_DIOMAPPING1, RF_DIOMAPPING1_DIO0_01); // set DIO0 to "PAYLOADREADY" in receive mode
    2042:	2025      	movs	r0, #37	; 0x25
    2044:	2140      	movs	r1, #64	; 0x40
    2046:	4b0b      	ldr	r3, [pc, #44]	; (2074 <STACK_SIZE+0x74>)
    2048:	4798      	blx	r3
  setMode(RF69_MODE_RX);
    204a:	2003      	movs	r0, #3
    204c:	4b0a      	ldr	r3, [pc, #40]	; (2078 <STACK_SIZE+0x78>)
    204e:	4798      	blx	r3
}
    2050:	46bd      	mov	sp, r7
    2052:	bd80      	pop	{r7, pc}
    2054:	200001ca 	.word	0x200001ca
    2058:	200001ba 	.word	0x200001ba
    205c:	20000250 	.word	0x20000250
    2060:	2000024c 	.word	0x2000024c
    2064:	2000024e 	.word	0x2000024e
    2068:	200001c8 	.word	0x200001c8
    206c:	20000264 	.word	0x20000264
    2070:	000021c9 	.word	0x000021c9
    2074:	00002235 	.word	0x00002235
    2078:	00001cad 	.word	0x00001cad

0000207c <RFM_receiveDone>:

// checks if a packet was received and/or puts transceiver in receive (ie RX or listen) mode
bool RFM_receiveDone() {
    207c:	b580      	push	{r7, lr}
    207e:	af00      	add	r7, sp, #0
  //system_interrupt_disable_global(); //noInterrupts(); // re-enabled in unselect() via setMode() or via receiveBegin() // CHANGE //

  if (_mode == RF69_MODE_RX && PAYLOADLEN > 0)
    2080:	4b0d      	ldr	r3, [pc, #52]	; (20b8 <RFM_receiveDone+0x3c>)
    2082:	881b      	ldrh	r3, [r3, #0]
    2084:	b29b      	uxth	r3, r3
    2086:	2b03      	cmp	r3, #3
    2088:	d109      	bne.n	209e <RFM_receiveDone+0x22>
    208a:	4b0c      	ldr	r3, [pc, #48]	; (20bc <RFM_receiveDone+0x40>)
    208c:	881b      	ldrh	r3, [r3, #0]
    208e:	b29b      	uxth	r3, r3
    2090:	2b00      	cmp	r3, #0
    2092:	d004      	beq.n	209e <RFM_receiveDone+0x22>
  {
    setMode(RF69_MODE_STANDBY); // enables interrupts
    2094:	2001      	movs	r0, #1
    2096:	4b0a      	ldr	r3, [pc, #40]	; (20c0 <RFM_receiveDone+0x44>)
    2098:	4798      	blx	r3
    return true;
    209a:	2301      	movs	r3, #1
    209c:	e009      	b.n	20b2 <RFM_receiveDone+0x36>
  }
  else if (_mode == RF69_MODE_RX) // already in RX no payload yet
    209e:	4b06      	ldr	r3, [pc, #24]	; (20b8 <RFM_receiveDone+0x3c>)
    20a0:	881b      	ldrh	r3, [r3, #0]
    20a2:	b29b      	uxth	r3, r3
    20a4:	2b03      	cmp	r3, #3
    20a6:	d101      	bne.n	20ac <RFM_receiveDone+0x30>
  {
    //system_interrupt_enable_global(); //interrupts(); // explicitly re-enable interrupts // CHANGE //
    return false;
    20a8:	2300      	movs	r3, #0
    20aa:	e002      	b.n	20b2 <RFM_receiveDone+0x36>
  }
  receiveBegin();
    20ac:	4b05      	ldr	r3, [pc, #20]	; (20c4 <RFM_receiveDone+0x48>)
    20ae:	4798      	blx	r3
  return false;
    20b0:	2300      	movs	r3, #0
}
    20b2:	1c18      	adds	r0, r3, #0
    20b4:	46bd      	mov	sp, r7
    20b6:	bd80      	pop	{r7, pc}
    20b8:	20000252 	.word	0x20000252
    20bc:	2000024c 	.word	0x2000024c
    20c0:	00001cad 	.word	0x00001cad
    20c4:	00001fed 	.word	0x00001fed

000020c8 <RFM_encrypt>:

// To enable encryption: radio.encrypt("ABCDEFGHIJKLMNOP");
// To disable encryption: radio.encrypt(null) or radio.encrypt(0)
// KEY HAS TO BE 16 bytes !!!
void RFM_encrypt(const char* key) {
    20c8:	b580      	push	{r7, lr}
    20ca:	b084      	sub	sp, #16
    20cc:	af00      	add	r7, sp, #0
    20ce:	6078      	str	r0, [r7, #4]
  setMode(RF69_MODE_STANDBY);
    20d0:	2001      	movs	r0, #1
    20d2:	4b24      	ldr	r3, [pc, #144]	; (2164 <RFM_encrypt+0x9c>)
    20d4:	4798      	blx	r3
  if (key != 0)
    20d6:	687b      	ldr	r3, [r7, #4]
    20d8:	2b00      	cmp	r3, #0
    20da:	d029      	beq.n	2130 <RFM_encrypt+0x68>
  {
    selectrf();
    20dc:	4b22      	ldr	r3, [pc, #136]	; (2168 <RFM_encrypt+0xa0>)
    20de:	4798      	blx	r3
    spi_transceive_wait(&spi_master_instance, REG_AESKEY1 | 0x80, &read_buf); //SPI.transfer(REG_AESKEY1 | 0x80); // CHANGE //
    20e0:	4a22      	ldr	r2, [pc, #136]	; (216c <RFM_encrypt+0xa4>)
    20e2:	4b23      	ldr	r3, [pc, #140]	; (2170 <RFM_encrypt+0xa8>)
    20e4:	1c10      	adds	r0, r2, #0
    20e6:	21be      	movs	r1, #190	; 0xbe
    20e8:	1c1a      	adds	r2, r3, #0
    20ea:	4b22      	ldr	r3, [pc, #136]	; (2174 <RFM_encrypt+0xac>)
    20ec:	4798      	blx	r3
    for (uint8_t i = 0; i < 16; i++)
    20ee:	230f      	movs	r3, #15
    20f0:	18fb      	adds	r3, r7, r3
    20f2:	2200      	movs	r2, #0
    20f4:	701a      	strb	r2, [r3, #0]
    20f6:	e014      	b.n	2122 <RFM_encrypt+0x5a>
      spi_transceive_wait(&spi_master_instance, key[i], &read_buf); //SPI.transfer(key[i]); // CHANGE //
    20f8:	230f      	movs	r3, #15
    20fa:	18fb      	adds	r3, r7, r3
    20fc:	781b      	ldrb	r3, [r3, #0]
    20fe:	687a      	ldr	r2, [r7, #4]
    2100:	18d3      	adds	r3, r2, r3
    2102:	781b      	ldrb	r3, [r3, #0]
    2104:	b29a      	uxth	r2, r3
    2106:	4919      	ldr	r1, [pc, #100]	; (216c <RFM_encrypt+0xa4>)
    2108:	4b19      	ldr	r3, [pc, #100]	; (2170 <RFM_encrypt+0xa8>)
    210a:	1c08      	adds	r0, r1, #0
    210c:	1c11      	adds	r1, r2, #0
    210e:	1c1a      	adds	r2, r3, #0
    2110:	4b18      	ldr	r3, [pc, #96]	; (2174 <RFM_encrypt+0xac>)
    2112:	4798      	blx	r3
  setMode(RF69_MODE_STANDBY);
  if (key != 0)
  {
    selectrf();
    spi_transceive_wait(&spi_master_instance, REG_AESKEY1 | 0x80, &read_buf); //SPI.transfer(REG_AESKEY1 | 0x80); // CHANGE //
    for (uint8_t i = 0; i < 16; i++)
    2114:	230f      	movs	r3, #15
    2116:	18fb      	adds	r3, r7, r3
    2118:	781a      	ldrb	r2, [r3, #0]
    211a:	230f      	movs	r3, #15
    211c:	18fb      	adds	r3, r7, r3
    211e:	3201      	adds	r2, #1
    2120:	701a      	strb	r2, [r3, #0]
    2122:	230f      	movs	r3, #15
    2124:	18fb      	adds	r3, r7, r3
    2126:	781b      	ldrb	r3, [r3, #0]
    2128:	2b0f      	cmp	r3, #15
    212a:	d9e5      	bls.n	20f8 <RFM_encrypt+0x30>
      spi_transceive_wait(&spi_master_instance, key[i], &read_buf); //SPI.transfer(key[i]); // CHANGE //
    unselect();
    212c:	4b12      	ldr	r3, [pc, #72]	; (2178 <RFM_encrypt+0xb0>)
    212e:	4798      	blx	r3
  }
  writeReg(REG_PACKETCONFIG2, (readReg(REG_PACKETCONFIG2) & 0xFE) | (key ? 1 : 0));
    2130:	203d      	movs	r0, #61	; 0x3d
    2132:	4b12      	ldr	r3, [pc, #72]	; (217c <RFM_encrypt+0xb4>)
    2134:	4798      	blx	r3
    2136:	1c03      	adds	r3, r0, #0
    2138:	b2db      	uxtb	r3, r3
    213a:	1c1a      	adds	r2, r3, #0
    213c:	2301      	movs	r3, #1
    213e:	439a      	bics	r2, r3
    2140:	1c13      	adds	r3, r2, #0
    2142:	b2da      	uxtb	r2, r3
    2144:	687b      	ldr	r3, [r7, #4]
    2146:	1e59      	subs	r1, r3, #1
    2148:	418b      	sbcs	r3, r1
    214a:	b2db      	uxtb	r3, r3
    214c:	b2db      	uxtb	r3, r3
    214e:	4313      	orrs	r3, r2
    2150:	b2db      	uxtb	r3, r3
    2152:	b2db      	uxtb	r3, r3
    2154:	203d      	movs	r0, #61	; 0x3d
    2156:	1c19      	adds	r1, r3, #0
    2158:	4b09      	ldr	r3, [pc, #36]	; (2180 <RFM_encrypt+0xb8>)
    215a:	4798      	blx	r3
}
    215c:	46bd      	mov	sp, r7
    215e:	b004      	add	sp, #16
    2160:	bd80      	pop	{r7, pc}
    2162:	46c0      	nop			; (mov r8, r8)
    2164:	00001cad 	.word	0x00001cad
    2168:	00002299 	.word	0x00002299
    216c:	20000258 	.word	0x20000258
    2170:	200000fa 	.word	0x200000fa
    2174:	000011ad 	.word	0x000011ad
    2178:	000022bd 	.word	0x000022bd
    217c:	000021c9 	.word	0x000021c9
    2180:	00002235 	.word	0x00002235

00002184 <readRSSI>:

// get the received signal strength indicator (RFM_RSSI)
int16_t readRSSI() {
    2184:	b580      	push	{r7, lr}
    2186:	b082      	sub	sp, #8
    2188:	af00      	add	r7, sp, #0
  volatile int16_t rssi = 0;
    218a:	1dbb      	adds	r3, r7, #6
    218c:	2200      	movs	r2, #0
    218e:	801a      	strh	r2, [r3, #0]
  rssi = -readReg(REG_RSSIVALUE);
    2190:	2024      	movs	r0, #36	; 0x24
    2192:	4b0c      	ldr	r3, [pc, #48]	; (21c4 <readRSSI+0x40>)
    2194:	4798      	blx	r3
    2196:	1c03      	adds	r3, r0, #0
    2198:	b29b      	uxth	r3, r3
    219a:	425b      	negs	r3, r3
    219c:	b29b      	uxth	r3, r3
    219e:	b29a      	uxth	r2, r3
    21a0:	1dbb      	adds	r3, r7, #6
    21a2:	801a      	strh	r2, [r3, #0]
  rssi >>= 1;
    21a4:	1dbb      	adds	r3, r7, #6
    21a6:	881b      	ldrh	r3, [r3, #0]
    21a8:	b29b      	uxth	r3, r3
    21aa:	b21b      	sxth	r3, r3
    21ac:	105b      	asrs	r3, r3, #1
    21ae:	b29a      	uxth	r2, r3
    21b0:	1dbb      	adds	r3, r7, #6
    21b2:	801a      	strh	r2, [r3, #0]
  return rssi;
    21b4:	1dbb      	adds	r3, r7, #6
    21b6:	881b      	ldrh	r3, [r3, #0]
    21b8:	b29b      	uxth	r3, r3
    21ba:	b21b      	sxth	r3, r3
}
    21bc:	1c18      	adds	r0, r3, #0
    21be:	46bd      	mov	sp, r7
    21c0:	b002      	add	sp, #8
    21c2:	bd80      	pop	{r7, pc}
    21c4:	000021c9 	.word	0x000021c9

000021c8 <readReg>:

uint8_t readReg(volatile uint16_t addr)
{
    21c8:	b580      	push	{r7, lr}
    21ca:	b084      	sub	sp, #16
    21cc:	af00      	add	r7, sp, #0
    21ce:	1c02      	adds	r2, r0, #0
    21d0:	1dbb      	adds	r3, r7, #6
    21d2:	801a      	strh	r2, [r3, #0]
  selectrf();
    21d4:	4b12      	ldr	r3, [pc, #72]	; (2220 <readReg+0x58>)
    21d6:	4798      	blx	r3
  spi_transceive_wait(&spi_master_instance, addr & 0x7F, &read_buf); //SPI.transfer(addr & 0x7F); // CHANGE //
    21d8:	1dbb      	adds	r3, r7, #6
    21da:	881b      	ldrh	r3, [r3, #0]
    21dc:	b29b      	uxth	r3, r3
    21de:	227f      	movs	r2, #127	; 0x7f
    21e0:	4013      	ands	r3, r2
    21e2:	b29a      	uxth	r2, r3
    21e4:	490f      	ldr	r1, [pc, #60]	; (2224 <readReg+0x5c>)
    21e6:	4b10      	ldr	r3, [pc, #64]	; (2228 <readReg+0x60>)
    21e8:	1c08      	adds	r0, r1, #0
    21ea:	1c11      	adds	r1, r2, #0
    21ec:	1c1a      	adds	r2, r3, #0
    21ee:	4b0f      	ldr	r3, [pc, #60]	; (222c <readReg+0x64>)
    21f0:	4798      	blx	r3
  volatile uint16_t regval = 0;
    21f2:	230e      	movs	r3, #14
    21f4:	18fb      	adds	r3, r7, r3
    21f6:	2200      	movs	r2, #0
    21f8:	801a      	strh	r2, [r3, #0]
  spi_transceive_wait(&spi_master_instance, 0, &regval); //SPI.transfer(0); // CHANGE //
    21fa:	4a0a      	ldr	r2, [pc, #40]	; (2224 <readReg+0x5c>)
    21fc:	230e      	movs	r3, #14
    21fe:	18fb      	adds	r3, r7, r3
    2200:	1c10      	adds	r0, r2, #0
    2202:	2100      	movs	r1, #0
    2204:	1c1a      	adds	r2, r3, #0
    2206:	4b09      	ldr	r3, [pc, #36]	; (222c <readReg+0x64>)
    2208:	4798      	blx	r3
  unselect();
    220a:	4b09      	ldr	r3, [pc, #36]	; (2230 <readReg+0x68>)
    220c:	4798      	blx	r3
  return (uint8_t)regval;
    220e:	230e      	movs	r3, #14
    2210:	18fb      	adds	r3, r7, r3
    2212:	881b      	ldrh	r3, [r3, #0]
    2214:	b29b      	uxth	r3, r3
    2216:	b2db      	uxtb	r3, r3
}
    2218:	1c18      	adds	r0, r3, #0
    221a:	46bd      	mov	sp, r7
    221c:	b004      	add	sp, #16
    221e:	bd80      	pop	{r7, pc}
    2220:	00002299 	.word	0x00002299
    2224:	20000258 	.word	0x20000258
    2228:	200000fa 	.word	0x200000fa
    222c:	000011ad 	.word	0x000011ad
    2230:	000022bd 	.word	0x000022bd

00002234 <writeReg>:

void writeReg(uint8_t addr, uint8_t value)
{
    2234:	b580      	push	{r7, lr}
    2236:	b082      	sub	sp, #8
    2238:	af00      	add	r7, sp, #0
    223a:	1c02      	adds	r2, r0, #0
    223c:	1dfb      	adds	r3, r7, #7
    223e:	701a      	strb	r2, [r3, #0]
    2240:	1dbb      	adds	r3, r7, #6
    2242:	1c0a      	adds	r2, r1, #0
    2244:	701a      	strb	r2, [r3, #0]
  selectrf();
    2246:	4b0f      	ldr	r3, [pc, #60]	; (2284 <writeReg+0x50>)
    2248:	4798      	blx	r3
  spi_transceive_wait(&spi_master_instance, addr | 0x80, &read_buf); //SPI.transfer(addr | 0x80); // CHANGE //
    224a:	1dfb      	adds	r3, r7, #7
    224c:	781b      	ldrb	r3, [r3, #0]
    224e:	2280      	movs	r2, #128	; 0x80
    2250:	4252      	negs	r2, r2
    2252:	4313      	orrs	r3, r2
    2254:	b2db      	uxtb	r3, r3
    2256:	b29a      	uxth	r2, r3
    2258:	490b      	ldr	r1, [pc, #44]	; (2288 <writeReg+0x54>)
    225a:	4b0c      	ldr	r3, [pc, #48]	; (228c <writeReg+0x58>)
    225c:	1c08      	adds	r0, r1, #0
    225e:	1c11      	adds	r1, r2, #0
    2260:	1c1a      	adds	r2, r3, #0
    2262:	4b0b      	ldr	r3, [pc, #44]	; (2290 <writeReg+0x5c>)
    2264:	4798      	blx	r3
  spi_transceive_wait(&spi_master_instance, value, &read_buf); //SPI.transfer(value); // CHANGE //
    2266:	1dbb      	adds	r3, r7, #6
    2268:	781b      	ldrb	r3, [r3, #0]
    226a:	b29a      	uxth	r2, r3
    226c:	4906      	ldr	r1, [pc, #24]	; (2288 <writeReg+0x54>)
    226e:	4b07      	ldr	r3, [pc, #28]	; (228c <writeReg+0x58>)
    2270:	1c08      	adds	r0, r1, #0
    2272:	1c11      	adds	r1, r2, #0
    2274:	1c1a      	adds	r2, r3, #0
    2276:	4b06      	ldr	r3, [pc, #24]	; (2290 <writeReg+0x5c>)
    2278:	4798      	blx	r3
  unselect();
    227a:	4b06      	ldr	r3, [pc, #24]	; (2294 <writeReg+0x60>)
    227c:	4798      	blx	r3
}
    227e:	46bd      	mov	sp, r7
    2280:	b002      	add	sp, #8
    2282:	bd80      	pop	{r7, pc}
    2284:	00002299 	.word	0x00002299
    2288:	20000258 	.word	0x20000258
    228c:	200000fa 	.word	0x200000fa
    2290:	000011ad 	.word	0x000011ad
    2294:	000022bd 	.word	0x000022bd

00002298 <selectrf>:

// select the RFM69 transceiver (save SPI settings, set CS low)
void selectrf(void) {
    2298:	b580      	push	{r7, lr}
    229a:	af00      	add	r7, sp, #0

  // set RFM69 SPI settings
  //SPI.setDataMode(SPI_MODE0); // CHANGE //
  //SPI.setBitOrder(MSBFIRST); // CHANGE //
  //SPI.setClockDivider(SPI_CLOCK_DIV4); // decided to slow down from DIV2 after SPI stalling in some instances, especially visible on mega1284p when RFM69 and FLASH chip both present // CHANGE //
  spi_select_slave(&spi_master_instance, &slave, true); //digitalWrite(_slaveSelectPin, LOW); // CHANGE //
    229c:	4a04      	ldr	r2, [pc, #16]	; (22b0 <selectrf+0x18>)
    229e:	4b05      	ldr	r3, [pc, #20]	; (22b4 <selectrf+0x1c>)
    22a0:	1c10      	adds	r0, r2, #0
    22a2:	1c19      	adds	r1, r3, #0
    22a4:	2201      	movs	r2, #1
    22a6:	4b04      	ldr	r3, [pc, #16]	; (22b8 <selectrf+0x20>)
    22a8:	4798      	blx	r3
}
    22aa:	46bd      	mov	sp, r7
    22ac:	bd80      	pop	{r7, pc}
    22ae:	46c0      	nop			; (mov r8, r8)
    22b0:	20000258 	.word	0x20000258
    22b4:	20000268 	.word	0x20000268
    22b8:	000012e5 	.word	0x000012e5

000022bc <unselect>:

// unselect the RFM69 transceiver (set CS high, restore SPI settings)
void unselect() {
    22bc:	b580      	push	{r7, lr}
    22be:	af00      	add	r7, sp, #0
  spi_select_slave(&spi_master_instance, &slave, false); //digitalWrite(_slaveSelectPin, HIGH); // CHANGE //
    22c0:	4a05      	ldr	r2, [pc, #20]	; (22d8 <unselect+0x1c>)
    22c2:	4b06      	ldr	r3, [pc, #24]	; (22dc <unselect+0x20>)
    22c4:	1c10      	adds	r0, r2, #0
    22c6:	1c19      	adds	r1, r3, #0
    22c8:	2200      	movs	r2, #0
    22ca:	4b05      	ldr	r3, [pc, #20]	; (22e0 <unselect+0x24>)
    22cc:	4798      	blx	r3
  maybeInterrupts();
    22ce:	4b05      	ldr	r3, [pc, #20]	; (22e4 <unselect+0x28>)
    22d0:	4798      	blx	r3
}
    22d2:	46bd      	mov	sp, r7
    22d4:	bd80      	pop	{r7, pc}
    22d6:	46c0      	nop			; (mov r8, r8)
    22d8:	20000258 	.word	0x20000258
    22dc:	20000268 	.word	0x20000268
    22e0:	000012e5 	.word	0x000012e5
    22e4:	0000232d 	.word	0x0000232d

000022e8 <setHighPowerRegs>:
  _promiscuousMode = onOff;
  //writeReg(REG_PACKETCONFIG1, (readReg(REG_PACKETCONFIG1) & 0xF9) | (onOff ? RF_PACKET1_ADRSFILTERING_OFF : RF_PACKET1_ADRSFILTERING_NODEBROADCAST));
}

// internal function
void setHighPowerRegs(bool onOff) {
    22e8:	b580      	push	{r7, lr}
    22ea:	b082      	sub	sp, #8
    22ec:	af00      	add	r7, sp, #0
    22ee:	1c02      	adds	r2, r0, #0
    22f0:	1dfb      	adds	r3, r7, #7
    22f2:	701a      	strb	r2, [r3, #0]
  writeReg(REG_TESTPA1, onOff ? 0x5D : 0x55);
    22f4:	1dfb      	adds	r3, r7, #7
    22f6:	781b      	ldrb	r3, [r3, #0]
    22f8:	2b00      	cmp	r3, #0
    22fa:	d001      	beq.n	2300 <setHighPowerRegs+0x18>
    22fc:	235d      	movs	r3, #93	; 0x5d
    22fe:	e000      	b.n	2302 <setHighPowerRegs+0x1a>
    2300:	2355      	movs	r3, #85	; 0x55
    2302:	205a      	movs	r0, #90	; 0x5a
    2304:	1c19      	adds	r1, r3, #0
    2306:	4b08      	ldr	r3, [pc, #32]	; (2328 <setHighPowerRegs+0x40>)
    2308:	4798      	blx	r3
  writeReg(REG_TESTPA2, onOff ? 0x7C : 0x70);
    230a:	1dfb      	adds	r3, r7, #7
    230c:	781b      	ldrb	r3, [r3, #0]
    230e:	2b00      	cmp	r3, #0
    2310:	d001      	beq.n	2316 <setHighPowerRegs+0x2e>
    2312:	237c      	movs	r3, #124	; 0x7c
    2314:	e000      	b.n	2318 <setHighPowerRegs+0x30>
    2316:	2370      	movs	r3, #112	; 0x70
    2318:	205c      	movs	r0, #92	; 0x5c
    231a:	1c19      	adds	r1, r3, #0
    231c:	4b02      	ldr	r3, [pc, #8]	; (2328 <setHighPowerRegs+0x40>)
    231e:	4798      	blx	r3
}
    2320:	46bd      	mov	sp, r7
    2322:	b002      	add	sp, #8
    2324:	bd80      	pop	{r7, pc}
    2326:	46c0      	nop			; (mov r8, r8)
    2328:	00002235 	.word	0x00002235

0000232c <maybeInterrupts>:
  writeReg(REG_OSC1, RF_OSC1_RCCAL_START);
  while ((readReg(REG_OSC1) & RF_OSC1_RCCAL_DONE) == 0x00);
}

void maybeInterrupts()
{
    232c:	b580      	push	{r7, lr}
    232e:	af00      	add	r7, sp, #0
  // Only reenable interrupts if we're not being called from the ISR
  //if (!_inISR) 
	  //system_interrupt_enable_global(); //interrupts(); // CHANGE //
    2330:	46bd      	mov	sp, r7
    2332:	bd80      	pop	{r7, pc}

00002334 <system_pinmux_get_group_from_gpio_pin>:
 *
 * \return Base address of the associated PORT module.
 */
static inline PortGroup* system_pinmux_get_group_from_gpio_pin(
		const uint8_t gpio_pin)
{
    2334:	b580      	push	{r7, lr}
    2336:	b084      	sub	sp, #16
    2338:	af00      	add	r7, sp, #0
    233a:	1c02      	adds	r2, r0, #0
    233c:	1dfb      	adds	r3, r7, #7
    233e:	701a      	strb	r2, [r3, #0]
	uint8_t port_index  = (gpio_pin / 128);
    2340:	230f      	movs	r3, #15
    2342:	18fb      	adds	r3, r7, r3
    2344:	1dfa      	adds	r2, r7, #7
    2346:	7812      	ldrb	r2, [r2, #0]
    2348:	09d2      	lsrs	r2, r2, #7
    234a:	701a      	strb	r2, [r3, #0]
	uint8_t group_index = (gpio_pin / 32);
    234c:	230e      	movs	r3, #14
    234e:	18fb      	adds	r3, r7, r3
    2350:	1dfa      	adds	r2, r7, #7
    2352:	7812      	ldrb	r2, [r2, #0]
    2354:	0952      	lsrs	r2, r2, #5
    2356:	701a      	strb	r2, [r3, #0]

	/* Array of available ports */
	Port *const ports[PORT_INST_NUM] = PORT_INSTS;
    2358:	4b0d      	ldr	r3, [pc, #52]	; (2390 <system_pinmux_get_group_from_gpio_pin+0x5c>)
    235a:	60bb      	str	r3, [r7, #8]

	if (port_index < PORT_INST_NUM) {
    235c:	230f      	movs	r3, #15
    235e:	18fb      	adds	r3, r7, r3
    2360:	781b      	ldrb	r3, [r3, #0]
    2362:	2b00      	cmp	r3, #0
    2364:	d10f      	bne.n	2386 <system_pinmux_get_group_from_gpio_pin+0x52>
		return &(ports[port_index]->Group[group_index]);
    2366:	230f      	movs	r3, #15
    2368:	18fb      	adds	r3, r7, r3
    236a:	781b      	ldrb	r3, [r3, #0]
    236c:	009b      	lsls	r3, r3, #2
    236e:	2210      	movs	r2, #16
    2370:	4694      	mov	ip, r2
    2372:	44bc      	add	ip, r7
    2374:	4463      	add	r3, ip
    2376:	3b08      	subs	r3, #8
    2378:	681a      	ldr	r2, [r3, #0]
    237a:	230e      	movs	r3, #14
    237c:	18fb      	adds	r3, r7, r3
    237e:	781b      	ldrb	r3, [r3, #0]
    2380:	01db      	lsls	r3, r3, #7
    2382:	18d3      	adds	r3, r2, r3
    2384:	e000      	b.n	2388 <system_pinmux_get_group_from_gpio_pin+0x54>
	} else {
		Assert(false);
		return NULL;
    2386:	2300      	movs	r3, #0
	}
}
    2388:	1c18      	adds	r0, r3, #0
    238a:	46bd      	mov	sp, r7
    238c:	b004      	add	sp, #16
    238e:	bd80      	pop	{r7, pc}
    2390:	41004400 	.word	0x41004400

00002394 <port_get_group_from_gpio_pin>:
 *
 *  \return Base address of the associated PORT module.
 */
static inline PortGroup* port_get_group_from_gpio_pin(
		const uint8_t gpio_pin)
{
    2394:	b580      	push	{r7, lr}
    2396:	b082      	sub	sp, #8
    2398:	af00      	add	r7, sp, #0
    239a:	1c02      	adds	r2, r0, #0
    239c:	1dfb      	adds	r3, r7, #7
    239e:	701a      	strb	r2, [r3, #0]
	return system_pinmux_get_group_from_gpio_pin(gpio_pin);
    23a0:	1dfb      	adds	r3, r7, #7
    23a2:	781b      	ldrb	r3, [r3, #0]
    23a4:	1c18      	adds	r0, r3, #0
    23a6:	4b03      	ldr	r3, [pc, #12]	; (23b4 <port_get_group_from_gpio_pin+0x20>)
    23a8:	4798      	blx	r3
    23aa:	1c03      	adds	r3, r0, #0
}
    23ac:	1c18      	adds	r0, r3, #0
    23ae:	46bd      	mov	sp, r7
    23b0:	b002      	add	sp, #8
    23b2:	bd80      	pop	{r7, pc}
    23b4:	00002335 	.word	0x00002335

000023b8 <port_pin_set_output_level>:
 *  \param[in] level     Logical level to set the given pin to
 */
static inline void port_pin_set_output_level(
		const uint8_t gpio_pin,
		const bool level)
{
    23b8:	b580      	push	{r7, lr}
    23ba:	b084      	sub	sp, #16
    23bc:	af00      	add	r7, sp, #0
    23be:	1c02      	adds	r2, r0, #0
    23c0:	1dfb      	adds	r3, r7, #7
    23c2:	701a      	strb	r2, [r3, #0]
    23c4:	1dbb      	adds	r3, r7, #6
    23c6:	1c0a      	adds	r2, r1, #0
    23c8:	701a      	strb	r2, [r3, #0]
	PortGroup *const port_base = port_get_group_from_gpio_pin(gpio_pin);
    23ca:	1dfb      	adds	r3, r7, #7
    23cc:	781b      	ldrb	r3, [r3, #0]
    23ce:	1c18      	adds	r0, r3, #0
    23d0:	4b0c      	ldr	r3, [pc, #48]	; (2404 <port_pin_set_output_level+0x4c>)
    23d2:	4798      	blx	r3
    23d4:	1c03      	adds	r3, r0, #0
    23d6:	60fb      	str	r3, [r7, #12]
	uint32_t pin_mask  = (1UL << (gpio_pin % 32));
    23d8:	1dfb      	adds	r3, r7, #7
    23da:	781b      	ldrb	r3, [r3, #0]
    23dc:	221f      	movs	r2, #31
    23de:	4013      	ands	r3, r2
    23e0:	2201      	movs	r2, #1
    23e2:	409a      	lsls	r2, r3
    23e4:	1c13      	adds	r3, r2, #0
    23e6:	60bb      	str	r3, [r7, #8]

	/* Set the pin to high or low atomically based on the requested level */
	if (level) {
    23e8:	1dbb      	adds	r3, r7, #6
    23ea:	781b      	ldrb	r3, [r3, #0]
    23ec:	2b00      	cmp	r3, #0
    23ee:	d003      	beq.n	23f8 <port_pin_set_output_level+0x40>
		port_base->OUTSET.reg = pin_mask;
    23f0:	68fb      	ldr	r3, [r7, #12]
    23f2:	68ba      	ldr	r2, [r7, #8]
    23f4:	619a      	str	r2, [r3, #24]
    23f6:	e002      	b.n	23fe <port_pin_set_output_level+0x46>
	} else {
		port_base->OUTCLR.reg = pin_mask;
    23f8:	68fb      	ldr	r3, [r7, #12]
    23fa:	68ba      	ldr	r2, [r7, #8]
    23fc:	615a      	str	r2, [r3, #20]
	}
}
    23fe:	46bd      	mov	sp, r7
    2400:	b004      	add	sp, #16
    2402:	bd80      	pop	{r7, pc}
    2404:	00002395 	.word	0x00002395

00002408 <configure_radio>:
	port_get_config_defaults(&config_port_pin);
	config_port_pin.direction = PORT_PIN_DIR_INPUT;
	port_pin_set_config(PIN_PA15, &config_port_pin);
}
//configure the RFM69 module
void configure_radio(void) {
    2408:	b580      	push	{r7, lr}
    240a:	af00      	add	r7, sp, #0
	RFM_initialize(FREQUENCY, MYNODEID, NETWORKID);
    240c:	205b      	movs	r0, #91	; 0x5b
    240e:	2102      	movs	r1, #2
    2410:	2200      	movs	r2, #0
    2412:	4b05      	ldr	r3, [pc, #20]	; (2428 <configure_radio+0x20>)
    2414:	4798      	blx	r3
	RFM_setHighPower(true);
    2416:	2001      	movs	r0, #1
    2418:	4b04      	ldr	r3, [pc, #16]	; (242c <configure_radio+0x24>)
    241a:	4798      	blx	r3
		
	if (ENCRYPT)
		RFM_encrypt(ENCRYPTKEY);
    241c:	4b04      	ldr	r3, [pc, #16]	; (2430 <configure_radio+0x28>)
    241e:	1c18      	adds	r0, r3, #0
    2420:	4b04      	ldr	r3, [pc, #16]	; (2434 <configure_radio+0x2c>)
    2422:	4798      	blx	r3
}
    2424:	46bd      	mov	sp, r7
    2426:	bd80      	pop	{r7, pc}
    2428:	00001945 	.word	0x00001945
    242c:	0000188d 	.word	0x0000188d
    2430:	00008c34 	.word	0x00008c34
    2434:	000020c9 	.word	0x000020c9

00002438 <ui_init>:
	LED_On(LED_0_PIN);
}


void ui_init(void)
{
    2438:	b580      	push	{r7, lr}
    243a:	af00      	add	r7, sp, #0
	/* Initialize LEDs */
	LED_Off(LED_0_PIN);
    243c:	2011      	movs	r0, #17
    243e:	2101      	movs	r1, #1
    2440:	4b02      	ldr	r3, [pc, #8]	; (244c <ui_init+0x14>)
    2442:	4798      	blx	r3
	
	// Initialize the RFM69HCW:
	configure_radio();
    2444:	4b02      	ldr	r3, [pc, #8]	; (2450 <ui_init+0x18>)
    2446:	4798      	blx	r3
	//configure_port_pins();
}
    2448:	46bd      	mov	sp, r7
    244a:	bd80      	pop	{r7, pc}
    244c:	000023b9 	.word	0x000023b9
    2450:	00002409 	.word	0x00002409

00002454 <ui_powerdown>:

void ui_powerdown(void)
{
    2454:	b580      	push	{r7, lr}
    2456:	af00      	add	r7, sp, #0
	LED_Off(LED_0_PIN);
    2458:	2011      	movs	r0, #17
    245a:	2101      	movs	r1, #1
    245c:	4b01      	ldr	r3, [pc, #4]	; (2464 <ui_powerdown+0x10>)
    245e:	4798      	blx	r3
}
    2460:	46bd      	mov	sp, r7
    2462:	bd80      	pop	{r7, pc}
    2464:	000023b9 	.word	0x000023b9

00002468 <ui_wakeup_enable>:


void ui_wakeup_enable(void)
{
    2468:	b580      	push	{r7, lr}
    246a:	af00      	add	r7, sp, #0
	extint_chan_enable_callback(BUTTON_0_EIC_LINE,EXTINT_CALLBACK_TYPE_DETECT);
    246c:	200f      	movs	r0, #15
    246e:	2100      	movs	r1, #0
    2470:	4b01      	ldr	r3, [pc, #4]	; (2478 <ui_wakeup_enable+0x10>)
    2472:	4798      	blx	r3
}
    2474:	46bd      	mov	sp, r7
    2476:	bd80      	pop	{r7, pc}
    2478:	00003c65 	.word	0x00003c65

0000247c <ui_wakeup_disable>:

void ui_wakeup_disable(void)
{
    247c:	b580      	push	{r7, lr}
    247e:	af00      	add	r7, sp, #0
	extint_chan_disable_callback(BUTTON_0_EIC_LINE,EXTINT_CALLBACK_TYPE_DETECT);
    2480:	200f      	movs	r0, #15
    2482:	2100      	movs	r1, #0
    2484:	4b01      	ldr	r3, [pc, #4]	; (248c <ui_wakeup_disable+0x10>)
    2486:	4798      	blx	r3
}
    2488:	46bd      	mov	sp, r7
    248a:	bd80      	pop	{r7, pc}
    248c:	00003cad 	.word	0x00003cad

00002490 <ui_wakeup>:

void ui_wakeup(void)
{
    2490:	b580      	push	{r7, lr}
    2492:	af00      	add	r7, sp, #0
	LED_On(LED_0_PIN);
    2494:	2011      	movs	r0, #17
    2496:	2100      	movs	r1, #0
    2498:	4b01      	ldr	r3, [pc, #4]	; (24a0 <ui_wakeup+0x10>)
    249a:	4798      	blx	r3
}
    249c:	46bd      	mov	sp, r7
    249e:	bd80      	pop	{r7, pc}
    24a0:	000023b9 	.word	0x000023b9

000024a4 <ui_process>:

void ui_process(uint16_t framenumber)
{
    24a4:	b580      	push	{r7, lr}
    24a6:	b084      	sub	sp, #16
    24a8:	af00      	add	r7, sp, #0
    24aa:	1c02      	adds	r2, r0, #0
    24ac:	1dbb      	adds	r3, r7, #6
    24ae:	801a      	strh	r2, [r3, #0]
	static uint8_t cpt_sof = 0;

	if ((framenumber % 1000) == 0) {
    24b0:	1dbb      	adds	r3, r7, #6
    24b2:	881a      	ldrh	r2, [r3, #0]
    24b4:	4b92      	ldr	r3, [pc, #584]	; (2700 <ui_process+0x25c>)
    24b6:	1c10      	adds	r0, r2, #0
    24b8:	22fa      	movs	r2, #250	; 0xfa
    24ba:	0091      	lsls	r1, r2, #2
    24bc:	4798      	blx	r3
    24be:	1c0b      	adds	r3, r1, #0
    24c0:	b29b      	uxth	r3, r3
    24c2:	2b00      	cmp	r3, #0
    24c4:	d103      	bne.n	24ce <ui_process+0x2a>
		LED_On(LED_0_PIN);
    24c6:	2011      	movs	r0, #17
    24c8:	2100      	movs	r1, #0
    24ca:	4b8e      	ldr	r3, [pc, #568]	; (2704 <ui_process+0x260>)
    24cc:	4798      	blx	r3
	}
	if ((framenumber % 1000) == 500) {
    24ce:	1dbb      	adds	r3, r7, #6
    24d0:	881a      	ldrh	r2, [r3, #0]
    24d2:	4b8b      	ldr	r3, [pc, #556]	; (2700 <ui_process+0x25c>)
    24d4:	1c10      	adds	r0, r2, #0
    24d6:	22fa      	movs	r2, #250	; 0xfa
    24d8:	0091      	lsls	r1, r2, #2
    24da:	4798      	blx	r3
    24dc:	1c0b      	adds	r3, r1, #0
    24de:	b29a      	uxth	r2, r3
    24e0:	23fa      	movs	r3, #250	; 0xfa
    24e2:	005b      	lsls	r3, r3, #1
    24e4:	429a      	cmp	r2, r3
    24e6:	d103      	bne.n	24f0 <ui_process+0x4c>
		LED_Off(LED_0_PIN);
    24e8:	2011      	movs	r0, #17
    24ea:	2101      	movs	r1, #1
    24ec:	4b85      	ldr	r3, [pc, #532]	; (2704 <ui_process+0x260>)
    24ee:	4798      	blx	r3
	}
	/* Scan process running each 5ms */
	cpt_sof++;
    24f0:	4b85      	ldr	r3, [pc, #532]	; (2708 <ui_process+0x264>)
    24f2:	781b      	ldrb	r3, [r3, #0]
    24f4:	3301      	adds	r3, #1
    24f6:	b2da      	uxtb	r2, r3
    24f8:	4b83      	ldr	r3, [pc, #524]	; (2708 <ui_process+0x264>)
    24fa:	701a      	strb	r2, [r3, #0]
	if (cpt_sof < 5) {
    24fc:	4b82      	ldr	r3, [pc, #520]	; (2708 <ui_process+0x264>)
    24fe:	781b      	ldrb	r3, [r3, #0]
    2500:	2b04      	cmp	r3, #4
    2502:	d800      	bhi.n	2506 <ui_process+0x62>
		return;
    2504:	e0f8      	b.n	26f8 <ui_process+0x254>
	}
	cpt_sof = 0;
    2506:	4b80      	ldr	r3, [pc, #512]	; (2708 <ui_process+0x264>)
    2508:	2200      	movs	r2, #0
    250a:	701a      	strb	r2, [r3, #0]
	radio_sendbuffer[4] = 'O';
	radio_sendlength = 5;*/
	//RFM_send(CAMERA_MODULE_NODE_ID,radio_sendbuffer, radio_sendlength, false);

	// this will receive the mouse location from the camera module
	if (RFM_receiveDone()) {
    250c:	4b7f      	ldr	r3, [pc, #508]	; (270c <ui_process+0x268>)
    250e:	4798      	blx	r3
    2510:	1e03      	subs	r3, r0, #0
    2512:	d100      	bne.n	2516 <ui_process+0x72>
    2514:	e0f0      	b.n	26f8 <ui_process+0x254>
		//info received from camera module (mouse movement)
		if (RFM_SENDERID == CAMERA_MODULE_NODE_ID) {
    2516:	4b7e      	ldr	r3, [pc, #504]	; (2710 <ui_process+0x26c>)
    2518:	881b      	ldrh	r3, [r3, #0]
    251a:	b29b      	uxth	r3, r3
    251c:	2b01      	cmp	r3, #1
    251e:	d000      	beq.n	2522 <ui_process+0x7e>
    2520:	e09b      	b.n	265a <ui_process+0x1b6>
			for (int i = 0; i < RFM_DATALEN; i++) {
    2522:	2300      	movs	r3, #0
    2524:	60fb      	str	r3, [r7, #12]
    2526:	e06a      	b.n	25fe <ui_process+0x15a>
				//x LSB 00<data>	x MSB 01<data>
				//y LSB 10<data>	y MSB 11<data>
				switch (RFM_DATA[i] >> 6) {
    2528:	4b7a      	ldr	r3, [pc, #488]	; (2714 <ui_process+0x270>)
    252a:	68fa      	ldr	r2, [r7, #12]
    252c:	0052      	lsls	r2, r2, #1
    252e:	5ad3      	ldrh	r3, [r2, r3]
    2530:	b29b      	uxth	r3, r3
    2532:	099b      	lsrs	r3, r3, #6
    2534:	b29b      	uxth	r3, r3
    2536:	2b01      	cmp	r3, #1
    2538:	d01d      	beq.n	2576 <ui_process+0xd2>
    253a:	dc02      	bgt.n	2542 <ui_process+0x9e>
    253c:	2b00      	cmp	r3, #0
    253e:	d005      	beq.n	254c <ui_process+0xa8>
    2540:	e05a      	b.n	25f8 <ui_process+0x154>
    2542:	2b02      	cmp	r3, #2
    2544:	d02d      	beq.n	25a2 <ui_process+0xfe>
    2546:	2b03      	cmp	r3, #3
    2548:	d040      	beq.n	25cc <ui_process+0x128>
    254a:	e055      	b.n	25f8 <ui_process+0x154>
					case 0: //x LSB
						temp = 0;
    254c:	4b72      	ldr	r3, [pc, #456]	; (2718 <ui_process+0x274>)
    254e:	2200      	movs	r2, #0
    2550:	601a      	str	r2, [r3, #0]
						temp = (RFM_DATA[i] & 0x3F);
    2552:	4b70      	ldr	r3, [pc, #448]	; (2714 <ui_process+0x270>)
    2554:	68fa      	ldr	r2, [r7, #12]
    2556:	0052      	lsls	r2, r2, #1
    2558:	5ad3      	ldrh	r3, [r2, r3]
    255a:	b29b      	uxth	r3, r3
    255c:	1c1a      	adds	r2, r3, #0
    255e:	233f      	movs	r3, #63	; 0x3f
    2560:	401a      	ands	r2, r3
    2562:	4b6d      	ldr	r3, [pc, #436]	; (2718 <ui_process+0x274>)
    2564:	601a      	str	r2, [r3, #0]
						x = x | temp;
    2566:	4b6d      	ldr	r3, [pc, #436]	; (271c <ui_process+0x278>)
    2568:	681a      	ldr	r2, [r3, #0]
    256a:	4b6b      	ldr	r3, [pc, #428]	; (2718 <ui_process+0x274>)
    256c:	681b      	ldr	r3, [r3, #0]
    256e:	431a      	orrs	r2, r3
    2570:	4b6a      	ldr	r3, [pc, #424]	; (271c <ui_process+0x278>)
    2572:	601a      	str	r2, [r3, #0]
						break;
    2574:	e040      	b.n	25f8 <ui_process+0x154>
				
					case 1: //x MSB
						temp = 0;
    2576:	4b68      	ldr	r3, [pc, #416]	; (2718 <ui_process+0x274>)
    2578:	2200      	movs	r2, #0
    257a:	601a      	str	r2, [r3, #0]
						temp = (RFM_DATA[i] & 0x3F);
    257c:	4b65      	ldr	r3, [pc, #404]	; (2714 <ui_process+0x270>)
    257e:	68fa      	ldr	r2, [r7, #12]
    2580:	0052      	lsls	r2, r2, #1
    2582:	5ad3      	ldrh	r3, [r2, r3]
    2584:	b29b      	uxth	r3, r3
    2586:	1c1a      	adds	r2, r3, #0
    2588:	233f      	movs	r3, #63	; 0x3f
    258a:	401a      	ands	r2, r3
    258c:	4b62      	ldr	r3, [pc, #392]	; (2718 <ui_process+0x274>)
    258e:	601a      	str	r2, [r3, #0]
						x = x | (temp << 6);
    2590:	4b61      	ldr	r3, [pc, #388]	; (2718 <ui_process+0x274>)
    2592:	681b      	ldr	r3, [r3, #0]
    2594:	019a      	lsls	r2, r3, #6
    2596:	4b61      	ldr	r3, [pc, #388]	; (271c <ui_process+0x278>)
    2598:	681b      	ldr	r3, [r3, #0]
    259a:	431a      	orrs	r2, r3
    259c:	4b5f      	ldr	r3, [pc, #380]	; (271c <ui_process+0x278>)
    259e:	601a      	str	r2, [r3, #0]
						break;
    25a0:	e02a      	b.n	25f8 <ui_process+0x154>
				
					case 2: //y LSB
						temp = 0;
    25a2:	4b5d      	ldr	r3, [pc, #372]	; (2718 <ui_process+0x274>)
    25a4:	2200      	movs	r2, #0
    25a6:	601a      	str	r2, [r3, #0]
						temp = (RFM_DATA[i] & 0x3F);
    25a8:	4b5a      	ldr	r3, [pc, #360]	; (2714 <ui_process+0x270>)
    25aa:	68fa      	ldr	r2, [r7, #12]
    25ac:	0052      	lsls	r2, r2, #1
    25ae:	5ad3      	ldrh	r3, [r2, r3]
    25b0:	b29b      	uxth	r3, r3
    25b2:	1c1a      	adds	r2, r3, #0
    25b4:	233f      	movs	r3, #63	; 0x3f
    25b6:	401a      	ands	r2, r3
    25b8:	4b57      	ldr	r3, [pc, #348]	; (2718 <ui_process+0x274>)
    25ba:	601a      	str	r2, [r3, #0]
						y = y | temp;
    25bc:	4b58      	ldr	r3, [pc, #352]	; (2720 <ui_process+0x27c>)
    25be:	681a      	ldr	r2, [r3, #0]
    25c0:	4b55      	ldr	r3, [pc, #340]	; (2718 <ui_process+0x274>)
    25c2:	681b      	ldr	r3, [r3, #0]
    25c4:	431a      	orrs	r2, r3
    25c6:	4b56      	ldr	r3, [pc, #344]	; (2720 <ui_process+0x27c>)
    25c8:	601a      	str	r2, [r3, #0]
						break;
    25ca:	e015      	b.n	25f8 <ui_process+0x154>
				
					case 3: //y MSB
						temp = 0;
    25cc:	4b52      	ldr	r3, [pc, #328]	; (2718 <ui_process+0x274>)
    25ce:	2200      	movs	r2, #0
    25d0:	601a      	str	r2, [r3, #0]
						temp = (RFM_DATA[i] & 0x3F);
    25d2:	4b50      	ldr	r3, [pc, #320]	; (2714 <ui_process+0x270>)
    25d4:	68fa      	ldr	r2, [r7, #12]
    25d6:	0052      	lsls	r2, r2, #1
    25d8:	5ad3      	ldrh	r3, [r2, r3]
    25da:	b29b      	uxth	r3, r3
    25dc:	1c1a      	adds	r2, r3, #0
    25de:	233f      	movs	r3, #63	; 0x3f
    25e0:	401a      	ands	r2, r3
    25e2:	4b4d      	ldr	r3, [pc, #308]	; (2718 <ui_process+0x274>)
    25e4:	601a      	str	r2, [r3, #0]
						y = y | (temp << 6);
    25e6:	4b4c      	ldr	r3, [pc, #304]	; (2718 <ui_process+0x274>)
    25e8:	681b      	ldr	r3, [r3, #0]
    25ea:	019a      	lsls	r2, r3, #6
    25ec:	4b4c      	ldr	r3, [pc, #304]	; (2720 <ui_process+0x27c>)
    25ee:	681b      	ldr	r3, [r3, #0]
    25f0:	431a      	orrs	r2, r3
    25f2:	4b4b      	ldr	r3, [pc, #300]	; (2720 <ui_process+0x27c>)
    25f4:	601a      	str	r2, [r3, #0]
						break;
    25f6:	46c0      	nop			; (mov r8, r8)

	// this will receive the mouse location from the camera module
	if (RFM_receiveDone()) {
		//info received from camera module (mouse movement)
		if (RFM_SENDERID == CAMERA_MODULE_NODE_ID) {
			for (int i = 0; i < RFM_DATALEN; i++) {
    25f8:	68fb      	ldr	r3, [r7, #12]
    25fa:	3301      	adds	r3, #1
    25fc:	60fb      	str	r3, [r7, #12]
    25fe:	4b49      	ldr	r3, [pc, #292]	; (2724 <ui_process+0x280>)
    2600:	881b      	ldrh	r3, [r3, #0]
    2602:	b29b      	uxth	r3, r3
    2604:	1e1a      	subs	r2, r3, #0
    2606:	68fb      	ldr	r3, [r7, #12]
    2608:	429a      	cmp	r2, r3
    260a:	dc8d      	bgt.n	2528 <ui_process+0x84>
						y = y | (temp << 6);
						break;
				}
			}

			x = x*(0x7FFF/640);
    260c:	4b43      	ldr	r3, [pc, #268]	; (271c <ui_process+0x278>)
    260e:	681a      	ldr	r2, [r3, #0]
    2610:	1c13      	adds	r3, r2, #0
    2612:	005b      	lsls	r3, r3, #1
    2614:	189b      	adds	r3, r3, r2
    2616:	011a      	lsls	r2, r3, #4
    2618:	189a      	adds	r2, r3, r2
    261a:	4b40      	ldr	r3, [pc, #256]	; (271c <ui_process+0x278>)
    261c:	601a      	str	r2, [r3, #0]
			y = y*(0x7FFF/480);
    261e:	4b40      	ldr	r3, [pc, #256]	; (2720 <ui_process+0x27c>)
    2620:	681a      	ldr	r2, [r3, #0]
    2622:	1c13      	adds	r3, r2, #0
    2624:	011b      	lsls	r3, r3, #4
    2626:	189b      	adds	r3, r3, r2
    2628:	009b      	lsls	r3, r3, #2
    262a:	1c1a      	adds	r2, r3, #0
    262c:	4b3c      	ldr	r3, [pc, #240]	; (2720 <ui_process+0x27c>)
    262e:	601a      	str	r2, [r3, #0]
			
			udi_hid_mouse_moveX(x);
    2630:	4b3a      	ldr	r3, [pc, #232]	; (271c <ui_process+0x278>)
    2632:	681b      	ldr	r3, [r3, #0]
    2634:	b29b      	uxth	r3, r3
    2636:	b21b      	sxth	r3, r3
    2638:	1c18      	adds	r0, r3, #0
    263a:	4b3b      	ldr	r3, [pc, #236]	; (2728 <ui_process+0x284>)
    263c:	4798      	blx	r3
			udi_hid_mouse_moveY(y);
    263e:	4b38      	ldr	r3, [pc, #224]	; (2720 <ui_process+0x27c>)
    2640:	681b      	ldr	r3, [r3, #0]
    2642:	b29b      	uxth	r3, r3
    2644:	b21b      	sxth	r3, r3
    2646:	1c18      	adds	r0, r3, #0
    2648:	4b38      	ldr	r3, [pc, #224]	; (272c <ui_process+0x288>)
    264a:	4798      	blx	r3

			x = 0;
    264c:	4b33      	ldr	r3, [pc, #204]	; (271c <ui_process+0x278>)
    264e:	2200      	movs	r2, #0
    2650:	601a      	str	r2, [r3, #0]
			y = 0;
    2652:	4b33      	ldr	r3, [pc, #204]	; (2720 <ui_process+0x27c>)
    2654:	2200      	movs	r2, #0
    2656:	601a      	str	r2, [r3, #0]
    2658:	e04e      	b.n	26f8 <ui_process+0x254>
			//request info from laser module
			//RFM_send(LASER_MODULE_NODE_ID, radio_sendbuffer, radio_sendlength, false); //send empty packet
		}
		
		//info received from laser module (clicks)
		else if (RFM_SENDERID == LASER_MODULE_NODE_ID) {
    265a:	4b2d      	ldr	r3, [pc, #180]	; (2710 <ui_process+0x26c>)
    265c:	881b      	ldrh	r3, [r3, #0]
    265e:	b29b      	uxth	r3, r3
    2660:	2b03      	cmp	r3, #3
    2662:	d149      	bne.n	26f8 <ui_process+0x254>
			for (int i = 0; i < RFM_DATALEN; i++) {
    2664:	2300      	movs	r3, #0
    2666:	60bb      	str	r3, [r7, #8]
    2668:	e03f      	b.n	26ea <ui_process+0x246>
				switch (i) {
    266a:	68bb      	ldr	r3, [r7, #8]
    266c:	2b01      	cmp	r3, #1
    266e:	d038      	beq.n	26e2 <ui_process+0x23e>
    2670:	2b02      	cmp	r3, #2
    2672:	d00c      	beq.n	268e <ui_process+0x1ea>
    2674:	2b00      	cmp	r3, #0
    2676:	d135      	bne.n	26e4 <ui_process+0x240>
					case 0: //x axis scroll
						udi_hid_mouse_moveScroll(RFM_DATA[i]);
    2678:	4b26      	ldr	r3, [pc, #152]	; (2714 <ui_process+0x270>)
    267a:	68ba      	ldr	r2, [r7, #8]
    267c:	0052      	lsls	r2, r2, #1
    267e:	5ad3      	ldrh	r3, [r2, r3]
    2680:	b29b      	uxth	r3, r3
    2682:	b29b      	uxth	r3, r3
    2684:	b21b      	sxth	r3, r3
    2686:	1c18      	adds	r0, r3, #0
    2688:	4b29      	ldr	r3, [pc, #164]	; (2730 <ui_process+0x28c>)
    268a:	4798      	blx	r3
						break;
    268c:	e02a      	b.n	26e4 <ui_process+0x240>
					case 1: //y axis scroll
						
						break;
					
					case 2: //button info byte
						button_info = RFM_DATA[i];
    268e:	4b21      	ldr	r3, [pc, #132]	; (2714 <ui_process+0x270>)
    2690:	68ba      	ldr	r2, [r7, #8]
    2692:	0052      	lsls	r2, r2, #1
    2694:	5ad3      	ldrh	r3, [r2, r3]
    2696:	b29b      	uxth	r3, r3
    2698:	b2da      	uxtb	r2, r3
    269a:	4b26      	ldr	r3, [pc, #152]	; (2734 <ui_process+0x290>)
    269c:	701a      	strb	r2, [r3, #0]
						
						udi_hid_mouse_btnleft(button_info & 0x08);
    269e:	4b25      	ldr	r3, [pc, #148]	; (2734 <ui_process+0x290>)
    26a0:	781b      	ldrb	r3, [r3, #0]
    26a2:	1c1a      	adds	r2, r3, #0
    26a4:	2308      	movs	r3, #8
    26a6:	4013      	ands	r3, r2
    26a8:	1e5a      	subs	r2, r3, #1
    26aa:	4193      	sbcs	r3, r2
    26ac:	b2db      	uxtb	r3, r3
    26ae:	1c18      	adds	r0, r3, #0
    26b0:	4b21      	ldr	r3, [pc, #132]	; (2738 <ui_process+0x294>)
    26b2:	4798      	blx	r3
						udi_hid_mouse_btnright(button_info & 0x04);
    26b4:	4b1f      	ldr	r3, [pc, #124]	; (2734 <ui_process+0x290>)
    26b6:	781b      	ldrb	r3, [r3, #0]
    26b8:	1c1a      	adds	r2, r3, #0
    26ba:	2304      	movs	r3, #4
    26bc:	4013      	ands	r3, r2
    26be:	1e5a      	subs	r2, r3, #1
    26c0:	4193      	sbcs	r3, r2
    26c2:	b2db      	uxtb	r3, r3
    26c4:	1c18      	adds	r0, r3, #0
    26c6:	4b1d      	ldr	r3, [pc, #116]	; (273c <ui_process+0x298>)
    26c8:	4798      	blx	r3
						udi_hid_mouse_btnmiddle(button_info & 0x02);
    26ca:	4b1a      	ldr	r3, [pc, #104]	; (2734 <ui_process+0x290>)
    26cc:	781b      	ldrb	r3, [r3, #0]
    26ce:	1c1a      	adds	r2, r3, #0
    26d0:	2302      	movs	r3, #2
    26d2:	4013      	ands	r3, r2
    26d4:	1e5a      	subs	r2, r3, #1
    26d6:	4193      	sbcs	r3, r2
    26d8:	b2db      	uxtb	r3, r3
    26da:	1c18      	adds	r0, r3, #0
    26dc:	4b18      	ldr	r3, [pc, #96]	; (2740 <ui_process+0x29c>)
    26de:	4798      	blx	r3
						
						break;
    26e0:	e000      	b.n	26e4 <ui_process+0x240>
						udi_hid_mouse_moveScroll(RFM_DATA[i]);
						break;
					
					case 1: //y axis scroll
						
						break;
    26e2:	46c0      	nop			; (mov r8, r8)
			//RFM_send(LASER_MODULE_NODE_ID, radio_sendbuffer, radio_sendlength, false); //send empty packet
		}
		
		//info received from laser module (clicks)
		else if (RFM_SENDERID == LASER_MODULE_NODE_ID) {
			for (int i = 0; i < RFM_DATALEN; i++) {
    26e4:	68bb      	ldr	r3, [r7, #8]
    26e6:	3301      	adds	r3, #1
    26e8:	60bb      	str	r3, [r7, #8]
    26ea:	4b0e      	ldr	r3, [pc, #56]	; (2724 <ui_process+0x280>)
    26ec:	881b      	ldrh	r3, [r3, #0]
    26ee:	b29b      	uxth	r3, r3
    26f0:	1e1a      	subs	r2, r3, #0
    26f2:	68bb      	ldr	r3, [r7, #8]
    26f4:	429a      	cmp	r2, r3
    26f6:	dcb8      	bgt.n	266a <ui_process+0x1c6>
		//x += 50;
		//y += 50;
		udi_hid_mouse_moveX(x);
		udi_hid_mouse_moveY(y);
	}*/
}
    26f8:	46bd      	mov	sp, r7
    26fa:	b004      	add	sp, #16
    26fc:	bd80      	pop	{r7, pc}
    26fe:	46c0      	nop			; (mov r8, r8)
    2700:	00008961 	.word	0x00008961
    2704:	000023b9 	.word	0x000023b9
    2708:	200000fc 	.word	0x200000fc
    270c:	0000207d 	.word	0x0000207d
    2710:	200001ba 	.word	0x200001ba
    2714:	200001d0 	.word	0x200001d0
    2718:	20000100 	.word	0x20000100
    271c:	20000104 	.word	0x20000104
    2720:	20000108 	.word	0x20000108
    2724:	200001ca 	.word	0x200001ca
    2728:	000028f9 	.word	0x000028f9
    272c:	000028ad 	.word	0x000028ad
    2730:	00002861 	.word	0x00002861
    2734:	2000010c 	.word	0x2000010c
    2738:	00002995 	.word	0x00002995
    273c:	0000296d 	.word	0x0000296d
    2740:	00002945 	.word	0x00002945

00002744 <cpu_irq_save>:

static volatile uint32_t cpu_irq_critical_section_counter;
static volatile bool     cpu_irq_prev_interrupt_state;

static inline irqflags_t cpu_irq_save(void)
{
    2744:	b580      	push	{r7, lr}
    2746:	b082      	sub	sp, #8
    2748:	af00      	add	r7, sp, #0
 */
__attribute__( ( always_inline ) ) __STATIC_INLINE uint32_t __get_PRIMASK(void)
{
  uint32_t result;

  __ASM volatile ("MRS %0, primask" : "=r" (result) );
    274a:	f3ef 8310 	mrs	r3, PRIMASK
    274e:	603b      	str	r3, [r7, #0]
  return(result);
    2750:	683b      	ldr	r3, [r7, #0]
	irqflags_t flags = cpu_irq_is_enabled();
    2752:	425a      	negs	r2, r3
    2754:	4153      	adcs	r3, r2
    2756:	b2db      	uxtb	r3, r3
    2758:	607b      	str	r3, [r7, #4]
  This function disables IRQ interrupts by setting the I-bit in the CPSR.
  Can only be executed in Privileged modes.
 */
__attribute__( ( always_inline ) ) __STATIC_INLINE void __disable_irq(void)
{
  __ASM volatile ("cpsid i" : : : "memory");
    275a:	b672      	cpsid	i
    This function ensures the apparent order of the explicit memory operations before
    and after the instruction, without ensuring their completion.
 */
__attribute__( ( always_inline ) ) __STATIC_INLINE void __DMB(void)
{
  __ASM volatile ("dmb");
    275c:	f3bf 8f5f 	dmb	sy
	cpu_irq_disable();
    2760:	4b03      	ldr	r3, [pc, #12]	; (2770 <cpu_irq_save+0x2c>)
    2762:	2200      	movs	r2, #0
    2764:	701a      	strb	r2, [r3, #0]
	return flags;
    2766:	687b      	ldr	r3, [r7, #4]
}
    2768:	1c18      	adds	r0, r3, #0
    276a:	46bd      	mov	sp, r7
    276c:	b002      	add	sp, #8
    276e:	bd80      	pop	{r7, pc}
    2770:	200000d8 	.word	0x200000d8

00002774 <cpu_irq_is_enabled_flags>:

static inline bool cpu_irq_is_enabled_flags(irqflags_t flags)
{
    2774:	b580      	push	{r7, lr}
    2776:	b082      	sub	sp, #8
    2778:	af00      	add	r7, sp, #0
    277a:	6078      	str	r0, [r7, #4]
	return (flags);
    277c:	687b      	ldr	r3, [r7, #4]
    277e:	1e5a      	subs	r2, r3, #1
    2780:	4193      	sbcs	r3, r2
    2782:	b2db      	uxtb	r3, r3
}
    2784:	1c18      	adds	r0, r3, #0
    2786:	46bd      	mov	sp, r7
    2788:	b002      	add	sp, #8
    278a:	bd80      	pop	{r7, pc}

0000278c <cpu_irq_restore>:

static inline void cpu_irq_restore(irqflags_t flags)
{
    278c:	b580      	push	{r7, lr}
    278e:	b082      	sub	sp, #8
    2790:	af00      	add	r7, sp, #0
    2792:	6078      	str	r0, [r7, #4]
	if (cpu_irq_is_enabled_flags(flags))
    2794:	687b      	ldr	r3, [r7, #4]
    2796:	1c18      	adds	r0, r3, #0
    2798:	4b06      	ldr	r3, [pc, #24]	; (27b4 <cpu_irq_restore+0x28>)
    279a:	4798      	blx	r3
    279c:	1e03      	subs	r3, r0, #0
    279e:	d005      	beq.n	27ac <cpu_irq_restore+0x20>
		cpu_irq_enable();
    27a0:	4b05      	ldr	r3, [pc, #20]	; (27b8 <cpu_irq_restore+0x2c>)
    27a2:	2201      	movs	r2, #1
    27a4:	701a      	strb	r2, [r3, #0]
    27a6:	f3bf 8f5f 	dmb	sy
  This function enables IRQ interrupts by clearing the I-bit in the CPSR.
  Can only be executed in Privileged modes.
 */
__attribute__( ( always_inline ) ) __STATIC_INLINE void __enable_irq(void)
{
  __ASM volatile ("cpsie i" : : : "memory");
    27aa:	b662      	cpsie	i
}
    27ac:	46bd      	mov	sp, r7
    27ae:	b002      	add	sp, #8
    27b0:	bd80      	pop	{r7, pc}
    27b2:	46c0      	nop			; (mov r8, r8)
    27b4:	00002775 	.word	0x00002775
    27b8:	200000d8 	.word	0x200000d8

000027bc <udi_hid_mouse_enable>:

//--------------------------------------------
//------ Interface for UDI HID level

bool udi_hid_mouse_enable(void)
{
    27bc:	b580      	push	{r7, lr}
    27be:	af00      	add	r7, sp, #0
	// Initialize internal value
	udi_hid_mouse_rate = 0;
    27c0:	4b0b      	ldr	r3, [pc, #44]	; (27f0 <udi_hid_mouse_enable+0x34>)
    27c2:	2200      	movs	r2, #0
    27c4:	701a      	strb	r2, [r3, #0]
	udi_hid_mouse_protocol = 0;
    27c6:	4b0b      	ldr	r3, [pc, #44]	; (27f4 <udi_hid_mouse_enable+0x38>)
    27c8:	2200      	movs	r2, #0
    27ca:	701a      	strb	r2, [r3, #0]
	udi_hid_mouse_report_trans_ongoing = false;
    27cc:	4b0a      	ldr	r3, [pc, #40]	; (27f8 <udi_hid_mouse_enable+0x3c>)
    27ce:	2200      	movs	r2, #0
    27d0:	701a      	strb	r2, [r3, #0]
	memset(udi_hid_mouse_report, 0, UDI_HID_MOUSE_REPORT_SIZE);
    27d2:	4b0a      	ldr	r3, [pc, #40]	; (27fc <udi_hid_mouse_enable+0x40>)
    27d4:	1c18      	adds	r0, r3, #0
    27d6:	2100      	movs	r1, #0
    27d8:	2207      	movs	r2, #7
    27da:	4b09      	ldr	r3, [pc, #36]	; (2800 <udi_hid_mouse_enable+0x44>)
    27dc:	4798      	blx	r3
	udi_hid_mouse_b_report_valid = false;
    27de:	4b09      	ldr	r3, [pc, #36]	; (2804 <udi_hid_mouse_enable+0x48>)
    27e0:	2200      	movs	r2, #0
    27e2:	701a      	strb	r2, [r3, #0]
	return UDI_HID_MOUSE_ENABLE_EXT();
    27e4:	4b08      	ldr	r3, [pc, #32]	; (2808 <udi_hid_mouse_enable+0x4c>)
    27e6:	4798      	blx	r3
    27e8:	1c03      	adds	r3, r0, #0
}
    27ea:	1c18      	adds	r0, r3, #0
    27ec:	46bd      	mov	sp, r7
    27ee:	bd80      	pop	{r7, pc}
    27f0:	20000110 	.word	0x20000110
    27f4:	20000114 	.word	0x20000114
    27f8:	2000011f 	.word	0x2000011f
    27fc:	20000118 	.word	0x20000118
    2800:	00008bf7 	.word	0x00008bf7
    2804:	20000115 	.word	0x20000115
    2808:	00008829 	.word	0x00008829

0000280c <udi_hid_mouse_disable>:


void udi_hid_mouse_disable(void)
{
    280c:	b580      	push	{r7, lr}
    280e:	af00      	add	r7, sp, #0
	UDI_HID_MOUSE_DISABLE_EXT();
    2810:	4b01      	ldr	r3, [pc, #4]	; (2818 <udi_hid_mouse_disable+0xc>)
    2812:	4798      	blx	r3
}
    2814:	46bd      	mov	sp, r7
    2816:	bd80      	pop	{r7, pc}
    2818:	00008841 	.word	0x00008841

0000281c <udi_hid_mouse_setup>:


bool udi_hid_mouse_setup(void)
{
    281c:	b598      	push	{r3, r4, r7, lr}
    281e:	af00      	add	r7, sp, #0
	return udi_hid_setup(&udi_hid_mouse_rate,
    2820:	4804      	ldr	r0, [pc, #16]	; (2834 <udi_hid_mouse_setup+0x18>)
    2822:	4905      	ldr	r1, [pc, #20]	; (2838 <udi_hid_mouse_setup+0x1c>)
    2824:	4a05      	ldr	r2, [pc, #20]	; (283c <udi_hid_mouse_setup+0x20>)
    2826:	4b06      	ldr	r3, [pc, #24]	; (2840 <udi_hid_mouse_setup+0x24>)
    2828:	4c06      	ldr	r4, [pc, #24]	; (2844 <udi_hid_mouse_setup+0x28>)
    282a:	47a0      	blx	r4
    282c:	1c03      	adds	r3, r0, #0
								&udi_hid_mouse_protocol,
								(uint8_t *) &udi_hid_mouse_report_desc,
								udi_hid_mouse_setreport);
}
    282e:	1c18      	adds	r0, r3, #0
    2830:	46bd      	mov	sp, r7
    2832:	bd98      	pop	{r3, r4, r7, pc}
    2834:	20000110 	.word	0x20000110
    2838:	20000114 	.word	0x20000114
    283c:	20000014 	.word	0x20000014
    2840:	00002855 	.word	0x00002855
    2844:	00002b41 	.word	0x00002b41

00002848 <udi_hid_mouse_getsetting>:


uint8_t udi_hid_mouse_getsetting(void)
{
    2848:	b580      	push	{r7, lr}
    284a:	af00      	add	r7, sp, #0
	return 0;
    284c:	2300      	movs	r3, #0
}
    284e:	1c18      	adds	r0, r3, #0
    2850:	46bd      	mov	sp, r7
    2852:	bd80      	pop	{r7, pc}

00002854 <udi_hid_mouse_setreport>:


static bool udi_hid_mouse_setreport(void)
{
    2854:	b580      	push	{r7, lr}
    2856:	af00      	add	r7, sp, #0
	return false;
    2858:	2300      	movs	r3, #0
}
    285a:	1c18      	adds	r0, r3, #0
    285c:	46bd      	mov	sp, r7
    285e:	bd80      	pop	{r7, pc}

00002860 <udi_hid_mouse_moveScroll>:

//--------------------------------------------
//------ Interface for application

bool udi_hid_mouse_moveScroll(int16_t pos)
{
    2860:	b590      	push	{r4, r7, lr}
    2862:	b083      	sub	sp, #12
    2864:	af00      	add	r7, sp, #0
    2866:	1c02      	adds	r2, r0, #0
    2868:	1dbb      	adds	r3, r7, #6
    286a:	801a      	strh	r2, [r3, #0]
	return (udi_hid_mouse_move(pos & 0x00FF, 5) &
    286c:	1dbb      	adds	r3, r7, #6
    286e:	881b      	ldrh	r3, [r3, #0]
    2870:	b2db      	uxtb	r3, r3
    2872:	1c18      	adds	r0, r3, #0
    2874:	2105      	movs	r1, #5
    2876:	4b0c      	ldr	r3, [pc, #48]	; (28a8 <udi_hid_mouse_moveScroll+0x48>)
    2878:	4798      	blx	r3
    287a:	1c03      	adds	r3, r0, #0
    287c:	1c1c      	adds	r4, r3, #0
			udi_hid_mouse_move((pos & 0x7F00) >> 8, 6));
    287e:	1dbb      	adds	r3, r7, #6
    2880:	881b      	ldrh	r3, [r3, #0]
    2882:	1c1a      	adds	r2, r3, #0
    2884:	23fe      	movs	r3, #254	; 0xfe
    2886:	01db      	lsls	r3, r3, #7
    2888:	4013      	ands	r3, r2
    288a:	121b      	asrs	r3, r3, #8
    288c:	b2db      	uxtb	r3, r3
    288e:	1c18      	adds	r0, r3, #0
    2890:	2106      	movs	r1, #6
    2892:	4b05      	ldr	r3, [pc, #20]	; (28a8 <udi_hid_mouse_moveScroll+0x48>)
    2894:	4798      	blx	r3
    2896:	1c03      	adds	r3, r0, #0
//--------------------------------------------
//------ Interface for application

bool udi_hid_mouse_moveScroll(int16_t pos)
{
	return (udi_hid_mouse_move(pos & 0x00FF, 5) &
    2898:	4023      	ands	r3, r4
    289a:	1e5a      	subs	r2, r3, #1
    289c:	4193      	sbcs	r3, r2
    289e:	b2db      	uxtb	r3, r3
			udi_hid_mouse_move((pos & 0x7F00) >> 8, 6));
}
    28a0:	1c18      	adds	r0, r3, #0
    28a2:	46bd      	mov	sp, r7
    28a4:	b003      	add	sp, #12
    28a6:	bd90      	pop	{r4, r7, pc}
    28a8:	000029bd 	.word	0x000029bd

000028ac <udi_hid_mouse_moveY>:

bool udi_hid_mouse_moveY(int16_t pos_y)
{
    28ac:	b590      	push	{r4, r7, lr}
    28ae:	b083      	sub	sp, #12
    28b0:	af00      	add	r7, sp, #0
    28b2:	1c02      	adds	r2, r0, #0
    28b4:	1dbb      	adds	r3, r7, #6
    28b6:	801a      	strh	r2, [r3, #0]
	return (udi_hid_mouse_move(pos_y & 0x00FF, 3) &
    28b8:	1dbb      	adds	r3, r7, #6
    28ba:	881b      	ldrh	r3, [r3, #0]
    28bc:	b2db      	uxtb	r3, r3
    28be:	1c18      	adds	r0, r3, #0
    28c0:	2103      	movs	r1, #3
    28c2:	4b0c      	ldr	r3, [pc, #48]	; (28f4 <udi_hid_mouse_moveY+0x48>)
    28c4:	4798      	blx	r3
    28c6:	1c03      	adds	r3, r0, #0
    28c8:	1c1c      	adds	r4, r3, #0
			udi_hid_mouse_move((pos_y & 0x7F00) >> 8, 4));
    28ca:	1dbb      	adds	r3, r7, #6
    28cc:	881b      	ldrh	r3, [r3, #0]
    28ce:	1c1a      	adds	r2, r3, #0
    28d0:	23fe      	movs	r3, #254	; 0xfe
    28d2:	01db      	lsls	r3, r3, #7
    28d4:	4013      	ands	r3, r2
    28d6:	121b      	asrs	r3, r3, #8
    28d8:	b2db      	uxtb	r3, r3
    28da:	1c18      	adds	r0, r3, #0
    28dc:	2104      	movs	r1, #4
    28de:	4b05      	ldr	r3, [pc, #20]	; (28f4 <udi_hid_mouse_moveY+0x48>)
    28e0:	4798      	blx	r3
    28e2:	1c03      	adds	r3, r0, #0
			udi_hid_mouse_move((pos & 0x7F00) >> 8, 6));
}

bool udi_hid_mouse_moveY(int16_t pos_y)
{
	return (udi_hid_mouse_move(pos_y & 0x00FF, 3) &
    28e4:	4023      	ands	r3, r4
    28e6:	1e5a      	subs	r2, r3, #1
    28e8:	4193      	sbcs	r3, r2
    28ea:	b2db      	uxtb	r3, r3
			udi_hid_mouse_move((pos_y & 0x7F00) >> 8, 4));
}
    28ec:	1c18      	adds	r0, r3, #0
    28ee:	46bd      	mov	sp, r7
    28f0:	b003      	add	sp, #12
    28f2:	bd90      	pop	{r4, r7, pc}
    28f4:	000029bd 	.word	0x000029bd

000028f8 <udi_hid_mouse_moveX>:

bool udi_hid_mouse_moveX(int16_t pos_x)
{
    28f8:	b590      	push	{r4, r7, lr}
    28fa:	b083      	sub	sp, #12
    28fc:	af00      	add	r7, sp, #0
    28fe:	1c02      	adds	r2, r0, #0
    2900:	1dbb      	adds	r3, r7, #6
    2902:	801a      	strh	r2, [r3, #0]
	return (udi_hid_mouse_move(pos_x & 0x00FF, 1) &
    2904:	1dbb      	adds	r3, r7, #6
    2906:	881b      	ldrh	r3, [r3, #0]
    2908:	b2db      	uxtb	r3, r3
    290a:	1c18      	adds	r0, r3, #0
    290c:	2101      	movs	r1, #1
    290e:	4b0c      	ldr	r3, [pc, #48]	; (2940 <udi_hid_mouse_moveX+0x48>)
    2910:	4798      	blx	r3
    2912:	1c03      	adds	r3, r0, #0
    2914:	1c1c      	adds	r4, r3, #0
			udi_hid_mouse_move((pos_x & 0x7F00) >> 8, 2));
    2916:	1dbb      	adds	r3, r7, #6
    2918:	881b      	ldrh	r3, [r3, #0]
    291a:	1c1a      	adds	r2, r3, #0
    291c:	23fe      	movs	r3, #254	; 0xfe
    291e:	01db      	lsls	r3, r3, #7
    2920:	4013      	ands	r3, r2
    2922:	121b      	asrs	r3, r3, #8
    2924:	b2db      	uxtb	r3, r3
    2926:	1c18      	adds	r0, r3, #0
    2928:	2102      	movs	r1, #2
    292a:	4b05      	ldr	r3, [pc, #20]	; (2940 <udi_hid_mouse_moveX+0x48>)
    292c:	4798      	blx	r3
    292e:	1c03      	adds	r3, r0, #0
			udi_hid_mouse_move((pos_y & 0x7F00) >> 8, 4));
}

bool udi_hid_mouse_moveX(int16_t pos_x)
{
	return (udi_hid_mouse_move(pos_x & 0x00FF, 1) &
    2930:	4023      	ands	r3, r4
    2932:	1e5a      	subs	r2, r3, #1
    2934:	4193      	sbcs	r3, r2
    2936:	b2db      	uxtb	r3, r3
			udi_hid_mouse_move((pos_x & 0x7F00) >> 8, 2));
}
    2938:	1c18      	adds	r0, r3, #0
    293a:	46bd      	mov	sp, r7
    293c:	b003      	add	sp, #12
    293e:	bd90      	pop	{r4, r7, pc}
    2940:	000029bd 	.word	0x000029bd

00002944 <udi_hid_mouse_btnmiddle>:

bool udi_hid_mouse_btnmiddle(bool b_state)
{
    2944:	b580      	push	{r7, lr}
    2946:	b082      	sub	sp, #8
    2948:	af00      	add	r7, sp, #0
    294a:	1c02      	adds	r2, r0, #0
    294c:	1dfb      	adds	r3, r7, #7
    294e:	701a      	strb	r2, [r3, #0]
	return udi_hid_mouse_btn(b_state, 0x04);
    2950:	1dfb      	adds	r3, r7, #7
    2952:	781b      	ldrb	r3, [r3, #0]
    2954:	1c18      	adds	r0, r3, #0
    2956:	2104      	movs	r1, #4
    2958:	4b03      	ldr	r3, [pc, #12]	; (2968 <udi_hid_mouse_btnmiddle+0x24>)
    295a:	4798      	blx	r3
    295c:	1c03      	adds	r3, r0, #0
}
    295e:	1c18      	adds	r0, r3, #0
    2960:	46bd      	mov	sp, r7
    2962:	b002      	add	sp, #8
    2964:	bd80      	pop	{r7, pc}
    2966:	46c0      	nop			; (mov r8, r8)
    2968:	00002a31 	.word	0x00002a31

0000296c <udi_hid_mouse_btnright>:

bool udi_hid_mouse_btnright(bool b_state)
{
    296c:	b580      	push	{r7, lr}
    296e:	b082      	sub	sp, #8
    2970:	af00      	add	r7, sp, #0
    2972:	1c02      	adds	r2, r0, #0
    2974:	1dfb      	adds	r3, r7, #7
    2976:	701a      	strb	r2, [r3, #0]
	return udi_hid_mouse_btn(b_state, 0x02);
    2978:	1dfb      	adds	r3, r7, #7
    297a:	781b      	ldrb	r3, [r3, #0]
    297c:	1c18      	adds	r0, r3, #0
    297e:	2102      	movs	r1, #2
    2980:	4b03      	ldr	r3, [pc, #12]	; (2990 <udi_hid_mouse_btnright+0x24>)
    2982:	4798      	blx	r3
    2984:	1c03      	adds	r3, r0, #0
}
    2986:	1c18      	adds	r0, r3, #0
    2988:	46bd      	mov	sp, r7
    298a:	b002      	add	sp, #8
    298c:	bd80      	pop	{r7, pc}
    298e:	46c0      	nop			; (mov r8, r8)
    2990:	00002a31 	.word	0x00002a31

00002994 <udi_hid_mouse_btnleft>:

bool udi_hid_mouse_btnleft(bool b_state)
{
    2994:	b580      	push	{r7, lr}
    2996:	b082      	sub	sp, #8
    2998:	af00      	add	r7, sp, #0
    299a:	1c02      	adds	r2, r0, #0
    299c:	1dfb      	adds	r3, r7, #7
    299e:	701a      	strb	r2, [r3, #0]
	return udi_hid_mouse_btn(b_state, 0x01);
    29a0:	1dfb      	adds	r3, r7, #7
    29a2:	781b      	ldrb	r3, [r3, #0]
    29a4:	1c18      	adds	r0, r3, #0
    29a6:	2101      	movs	r1, #1
    29a8:	4b03      	ldr	r3, [pc, #12]	; (29b8 <udi_hid_mouse_btnleft+0x24>)
    29aa:	4798      	blx	r3
    29ac:	1c03      	adds	r3, r0, #0
}
    29ae:	1c18      	adds	r0, r3, #0
    29b0:	46bd      	mov	sp, r7
    29b2:	b002      	add	sp, #8
    29b4:	bd80      	pop	{r7, pc}
    29b6:	46c0      	nop			; (mov r8, r8)
    29b8:	00002a31 	.word	0x00002a31

000029bc <udi_hid_mouse_move>:

//--------------------------------------------
//------ Internal routines

static bool udi_hid_mouse_move(uint8_t pos, uint8_t index_report)
{
    29bc:	b580      	push	{r7, lr}
    29be:	b084      	sub	sp, #16
    29c0:	af00      	add	r7, sp, #0
    29c2:	1c02      	adds	r2, r0, #0
    29c4:	1dfb      	adds	r3, r7, #7
    29c6:	701a      	strb	r2, [r3, #0]
    29c8:	1dbb      	adds	r3, r7, #6
    29ca:	1c0a      	adds	r2, r1, #0
    29cc:	701a      	strb	r2, [r3, #0]
	uint16_t s16_newpos;

	irqflags_t flags = cpu_irq_save();
    29ce:	4b13      	ldr	r3, [pc, #76]	; (2a1c <udi_hid_mouse_move+0x60>)
    29d0:	4798      	blx	r3
    29d2:	1c03      	adds	r3, r0, #0
    29d4:	60fb      	str	r3, [r7, #12]

	// Add position in HID mouse report
	s16_newpos = udi_hid_mouse_report[index_report];
    29d6:	1dbb      	adds	r3, r7, #6
    29d8:	781b      	ldrb	r3, [r3, #0]
    29da:	4a11      	ldr	r2, [pc, #68]	; (2a20 <udi_hid_mouse_move+0x64>)
    29dc:	5cd2      	ldrb	r2, [r2, r3]
    29de:	230a      	movs	r3, #10
    29e0:	18fb      	adds	r3, r7, r3
    29e2:	801a      	strh	r2, [r3, #0]
	s16_newpos = pos;
    29e4:	230a      	movs	r3, #10
    29e6:	18fb      	adds	r3, r7, r3
    29e8:	1dfa      	adds	r2, r7, #7
    29ea:	7812      	ldrb	r2, [r2, #0]
    29ec:	801a      	strh	r2, [r3, #0]
	udi_hid_mouse_report[index_report] = s16_newpos;
    29ee:	1dbb      	adds	r3, r7, #6
    29f0:	781b      	ldrb	r3, [r3, #0]
    29f2:	220a      	movs	r2, #10
    29f4:	18ba      	adds	r2, r7, r2
    29f6:	8812      	ldrh	r2, [r2, #0]
    29f8:	b2d1      	uxtb	r1, r2
    29fa:	4a09      	ldr	r2, [pc, #36]	; (2a20 <udi_hid_mouse_move+0x64>)
    29fc:	54d1      	strb	r1, [r2, r3]

	// Valid and send report
	udi_hid_mouse_b_report_valid = true;
    29fe:	4b09      	ldr	r3, [pc, #36]	; (2a24 <udi_hid_mouse_move+0x68>)
    2a00:	2201      	movs	r2, #1
    2a02:	701a      	strb	r2, [r3, #0]
	udi_hid_mouse_send_report();
    2a04:	4b08      	ldr	r3, [pc, #32]	; (2a28 <udi_hid_mouse_move+0x6c>)
    2a06:	4798      	blx	r3

	cpu_irq_restore(flags);
    2a08:	68fb      	ldr	r3, [r7, #12]
    2a0a:	1c18      	adds	r0, r3, #0
    2a0c:	4b07      	ldr	r3, [pc, #28]	; (2a2c <udi_hid_mouse_move+0x70>)
    2a0e:	4798      	blx	r3
	return true;
    2a10:	2301      	movs	r3, #1
}
    2a12:	1c18      	adds	r0, r3, #0
    2a14:	46bd      	mov	sp, r7
    2a16:	b004      	add	sp, #16
    2a18:	bd80      	pop	{r7, pc}
    2a1a:	46c0      	nop			; (mov r8, r8)
    2a1c:	00002745 	.word	0x00002745
    2a20:	20000118 	.word	0x20000118
    2a24:	20000115 	.word	0x20000115
    2a28:	00002a8d 	.word	0x00002a8d
    2a2c:	0000278d 	.word	0x0000278d

00002a30 <udi_hid_mouse_btn>:


static bool udi_hid_mouse_btn(bool b_state, uint8_t btn)
{
    2a30:	b580      	push	{r7, lr}
    2a32:	b082      	sub	sp, #8
    2a34:	af00      	add	r7, sp, #0
    2a36:	1c02      	adds	r2, r0, #0
    2a38:	1dfb      	adds	r3, r7, #7
    2a3a:	701a      	strb	r2, [r3, #0]
    2a3c:	1dbb      	adds	r3, r7, #6
    2a3e:	1c0a      	adds	r2, r1, #0
    2a40:	701a      	strb	r2, [r3, #0]
	// Modify buttons report
	if (HID_MOUSE_BTN_DOWN == b_state)
    2a42:	1dfb      	adds	r3, r7, #7
    2a44:	781b      	ldrb	r3, [r3, #0]
    2a46:	2b00      	cmp	r3, #0
    2a48:	d008      	beq.n	2a5c <udi_hid_mouse_btn+0x2c>
		udi_hid_mouse_report[0] |= btn;
    2a4a:	4b0e      	ldr	r3, [pc, #56]	; (2a84 <udi_hid_mouse_btn+0x54>)
    2a4c:	781a      	ldrb	r2, [r3, #0]
    2a4e:	1dbb      	adds	r3, r7, #6
    2a50:	781b      	ldrb	r3, [r3, #0]
    2a52:	4313      	orrs	r3, r2
    2a54:	b2da      	uxtb	r2, r3
    2a56:	4b0b      	ldr	r3, [pc, #44]	; (2a84 <udi_hid_mouse_btn+0x54>)
    2a58:	701a      	strb	r2, [r3, #0]
    2a5a:	e009      	b.n	2a70 <udi_hid_mouse_btn+0x40>
	else
		udi_hid_mouse_report[0] &= ~(unsigned)btn;
    2a5c:	4b09      	ldr	r3, [pc, #36]	; (2a84 <udi_hid_mouse_btn+0x54>)
    2a5e:	781b      	ldrb	r3, [r3, #0]
    2a60:	1dba      	adds	r2, r7, #6
    2a62:	7812      	ldrb	r2, [r2, #0]
    2a64:	43d2      	mvns	r2, r2
    2a66:	b2d2      	uxtb	r2, r2
    2a68:	4013      	ands	r3, r2
    2a6a:	b2da      	uxtb	r2, r3
    2a6c:	4b05      	ldr	r3, [pc, #20]	; (2a84 <udi_hid_mouse_btn+0x54>)
    2a6e:	701a      	strb	r2, [r3, #0]
	// Use mouse move routine
	return udi_hid_mouse_move(0, 1);
    2a70:	2000      	movs	r0, #0
    2a72:	2101      	movs	r1, #1
    2a74:	4b04      	ldr	r3, [pc, #16]	; (2a88 <udi_hid_mouse_btn+0x58>)
    2a76:	4798      	blx	r3
    2a78:	1c03      	adds	r3, r0, #0
}
    2a7a:	1c18      	adds	r0, r3, #0
    2a7c:	46bd      	mov	sp, r7
    2a7e:	b002      	add	sp, #8
    2a80:	bd80      	pop	{r7, pc}
    2a82:	46c0      	nop			; (mov r8, r8)
    2a84:	20000118 	.word	0x20000118
    2a88:	000029bd 	.word	0x000029bd

00002a8c <udi_hid_mouse_send_report>:


static bool udi_hid_mouse_send_report(void)
{
    2a8c:	b590      	push	{r4, r7, lr}
    2a8e:	b083      	sub	sp, #12
    2a90:	af02      	add	r7, sp, #8
	if (udi_hid_mouse_report_trans_ongoing)
    2a92:	4b14      	ldr	r3, [pc, #80]	; (2ae4 <udi_hid_mouse_send_report+0x58>)
    2a94:	781b      	ldrb	r3, [r3, #0]
    2a96:	2b00      	cmp	r3, #0
    2a98:	d001      	beq.n	2a9e <udi_hid_mouse_send_report+0x12>
		return false;	// Transfer on going then send this one after transfer complete
    2a9a:	2300      	movs	r3, #0
    2a9c:	e01e      	b.n	2adc <udi_hid_mouse_send_report+0x50>

	// Copy report on other array used only for transfer
	memcpy(udi_hid_mouse_report_trans, udi_hid_mouse_report,
    2a9e:	4b12      	ldr	r3, [pc, #72]	; (2ae8 <udi_hid_mouse_send_report+0x5c>)
    2aa0:	4a12      	ldr	r2, [pc, #72]	; (2aec <udi_hid_mouse_send_report+0x60>)
    2aa2:	6811      	ldr	r1, [r2, #0]
    2aa4:	6019      	str	r1, [r3, #0]
    2aa6:	8891      	ldrh	r1, [r2, #4]
    2aa8:	8099      	strh	r1, [r3, #4]
    2aaa:	7992      	ldrb	r2, [r2, #6]
    2aac:	719a      	strb	r2, [r3, #6]
			UDI_HID_MOUSE_REPORT_SIZE);
	memset(&udi_hid_mouse_report[1], 0, 3);	// Keep status of btn for next report
    2aae:	4b10      	ldr	r3, [pc, #64]	; (2af0 <udi_hid_mouse_send_report+0x64>)
    2ab0:	1c18      	adds	r0, r3, #0
    2ab2:	2100      	movs	r1, #0
    2ab4:	2203      	movs	r2, #3
    2ab6:	4b0f      	ldr	r3, [pc, #60]	; (2af4 <udi_hid_mouse_send_report+0x68>)
    2ab8:	4798      	blx	r3
	udi_hid_mouse_b_report_valid = false;
    2aba:	4b0f      	ldr	r3, [pc, #60]	; (2af8 <udi_hid_mouse_send_report+0x6c>)
    2abc:	2200      	movs	r2, #0
    2abe:	701a      	strb	r2, [r3, #0]

	// Send report
	udi_hid_mouse_report_trans_ongoing =
			udd_ep_run(	UDI_HID_MOUSE_EP_IN,
    2ac0:	4a09      	ldr	r2, [pc, #36]	; (2ae8 <udi_hid_mouse_send_report+0x5c>)
    2ac2:	4b0e      	ldr	r3, [pc, #56]	; (2afc <udi_hid_mouse_send_report+0x70>)
    2ac4:	9300      	str	r3, [sp, #0]
    2ac6:	2081      	movs	r0, #129	; 0x81
    2ac8:	2100      	movs	r1, #0
    2aca:	2307      	movs	r3, #7
    2acc:	4c0c      	ldr	r4, [pc, #48]	; (2b00 <udi_hid_mouse_send_report+0x74>)
    2ace:	47a0      	blx	r4
    2ad0:	1c03      	adds	r3, r0, #0
    2ad2:	1c1a      	adds	r2, r3, #0
			UDI_HID_MOUSE_REPORT_SIZE);
	memset(&udi_hid_mouse_report[1], 0, 3);	// Keep status of btn for next report
	udi_hid_mouse_b_report_valid = false;

	// Send report
	udi_hid_mouse_report_trans_ongoing =
    2ad4:	4b03      	ldr	r3, [pc, #12]	; (2ae4 <udi_hid_mouse_send_report+0x58>)
    2ad6:	701a      	strb	r2, [r3, #0]
			udd_ep_run(	UDI_HID_MOUSE_EP_IN,
							false,
							udi_hid_mouse_report_trans,
							UDI_HID_MOUSE_REPORT_SIZE,
							udi_hid_mouse_report_sent);
	return udi_hid_mouse_report_trans_ongoing;
    2ad8:	4b02      	ldr	r3, [pc, #8]	; (2ae4 <udi_hid_mouse_send_report+0x58>)
    2ada:	781b      	ldrb	r3, [r3, #0]
}
    2adc:	1c18      	adds	r0, r3, #0
    2ade:	46bd      	mov	sp, r7
    2ae0:	b001      	add	sp, #4
    2ae2:	bd90      	pop	{r4, r7, pc}
    2ae4:	2000011f 	.word	0x2000011f
    2ae8:	20000120 	.word	0x20000120
    2aec:	20000118 	.word	0x20000118
    2af0:	20000119 	.word	0x20000119
    2af4:	00008bf7 	.word	0x00008bf7
    2af8:	20000115 	.word	0x20000115
    2afc:	00002b05 	.word	0x00002b05
    2b00:	00005ae9 	.word	0x00005ae9

00002b04 <udi_hid_mouse_report_sent>:


static void udi_hid_mouse_report_sent(udd_ep_status_t status,
		iram_size_t nb_sent, udd_ep_id_t ep)
{
    2b04:	b580      	push	{r7, lr}
    2b06:	b082      	sub	sp, #8
    2b08:	af00      	add	r7, sp, #0
    2b0a:	6039      	str	r1, [r7, #0]
    2b0c:	1c11      	adds	r1, r2, #0
    2b0e:	1dfb      	adds	r3, r7, #7
    2b10:	1c02      	adds	r2, r0, #0
    2b12:	701a      	strb	r2, [r3, #0]
    2b14:	1dbb      	adds	r3, r7, #6
    2b16:	1c0a      	adds	r2, r1, #0
    2b18:	701a      	strb	r2, [r3, #0]
	UNUSED(ep);
	UNUSED(status);
	UNUSED(nb_sent);
	// Valid report sending
	udi_hid_mouse_report_trans_ongoing = false;
    2b1a:	4b06      	ldr	r3, [pc, #24]	; (2b34 <udi_hid_mouse_report_sent+0x30>)
    2b1c:	2200      	movs	r2, #0
    2b1e:	701a      	strb	r2, [r3, #0]
	if (udi_hid_mouse_b_report_valid) {
    2b20:	4b05      	ldr	r3, [pc, #20]	; (2b38 <udi_hid_mouse_report_sent+0x34>)
    2b22:	781b      	ldrb	r3, [r3, #0]
    2b24:	2b00      	cmp	r3, #0
    2b26:	d001      	beq.n	2b2c <udi_hid_mouse_report_sent+0x28>
		// Send new valid report
		udi_hid_mouse_send_report();
    2b28:	4b04      	ldr	r3, [pc, #16]	; (2b3c <udi_hid_mouse_report_sent+0x38>)
    2b2a:	4798      	blx	r3
	}
}
    2b2c:	46bd      	mov	sp, r7
    2b2e:	b002      	add	sp, #8
    2b30:	bd80      	pop	{r7, pc}
    2b32:	46c0      	nop			; (mov r8, r8)
    2b34:	2000011f 	.word	0x2000011f
    2b38:	20000115 	.word	0x20000115
    2b3c:	00002a8d 	.word	0x00002a8d

00002b40 <udi_hid_setup>:
 * \retval true if the descriptor is supported
 */
static bool udi_hid_reqstdifaceget_descriptor(uint8_t *report_desc);

bool udi_hid_setup( uint8_t *rate, uint8_t *protocol, uint8_t *report_desc, bool (*setup_report)(void) )
{
    2b40:	b580      	push	{r7, lr}
    2b42:	b084      	sub	sp, #16
    2b44:	af00      	add	r7, sp, #0
    2b46:	60f8      	str	r0, [r7, #12]
    2b48:	60b9      	str	r1, [r7, #8]
    2b4a:	607a      	str	r2, [r7, #4]
    2b4c:	603b      	str	r3, [r7, #0]
	if (Udd_setup_is_in()) {
    2b4e:	4b36      	ldr	r3, [pc, #216]	; (2c28 <udi_hid_setup+0xe8>)
    2b50:	781b      	ldrb	r3, [r3, #0]
    2b52:	b2db      	uxtb	r3, r3
    2b54:	b25b      	sxtb	r3, r3
    2b56:	2b00      	cmp	r3, #0
    2b58:	da32      	bge.n	2bc0 <udi_hid_setup+0x80>
		// Requests Interface GET
		if (Udd_setup_type() == USB_REQ_TYPE_STANDARD) {
    2b5a:	4b33      	ldr	r3, [pc, #204]	; (2c28 <udi_hid_setup+0xe8>)
    2b5c:	781b      	ldrb	r3, [r3, #0]
    2b5e:	1c1a      	adds	r2, r3, #0
    2b60:	2360      	movs	r3, #96	; 0x60
    2b62:	4013      	ands	r3, r2
    2b64:	d109      	bne.n	2b7a <udi_hid_setup+0x3a>
			// Requests Standard Interface Get
			switch (udd_g_ctrlreq.req.bRequest) {
    2b66:	4b30      	ldr	r3, [pc, #192]	; (2c28 <udi_hid_setup+0xe8>)
    2b68:	785b      	ldrb	r3, [r3, #1]
    2b6a:	2b06      	cmp	r3, #6
    2b6c:	d105      	bne.n	2b7a <udi_hid_setup+0x3a>

			case USB_REQ_GET_DESCRIPTOR:
				return udi_hid_reqstdifaceget_descriptor(report_desc);
    2b6e:	687b      	ldr	r3, [r7, #4]
    2b70:	1c18      	adds	r0, r3, #0
    2b72:	4b2e      	ldr	r3, [pc, #184]	; (2c2c <udi_hid_setup+0xec>)
    2b74:	4798      	blx	r3
    2b76:	1c03      	adds	r3, r0, #0
    2b78:	e052      	b.n	2c20 <udi_hid_setup+0xe0>
			}
		}
		if (Udd_setup_type() == USB_REQ_TYPE_CLASS) {
    2b7a:	4b2b      	ldr	r3, [pc, #172]	; (2c28 <udi_hid_setup+0xe8>)
    2b7c:	781b      	ldrb	r3, [r3, #0]
    2b7e:	1c1a      	adds	r2, r3, #0
    2b80:	2360      	movs	r3, #96	; 0x60
    2b82:	4013      	ands	r3, r2
    2b84:	2b20      	cmp	r3, #32
    2b86:	d11b      	bne.n	2bc0 <udi_hid_setup+0x80>
			// Requests Class Interface Get
			switch (udd_g_ctrlreq.req.bRequest) {
    2b88:	4b27      	ldr	r3, [pc, #156]	; (2c28 <udi_hid_setup+0xe8>)
    2b8a:	785b      	ldrb	r3, [r3, #1]
    2b8c:	2b02      	cmp	r3, #2
    2b8e:	d007      	beq.n	2ba0 <udi_hid_setup+0x60>
    2b90:	2b03      	cmp	r3, #3
    2b92:	d00d      	beq.n	2bb0 <udi_hid_setup+0x70>
    2b94:	2b01      	cmp	r3, #1
    2b96:	d113      	bne.n	2bc0 <udi_hid_setup+0x80>

			case USB_REQ_HID_GET_REPORT:
				return setup_report();
    2b98:	683b      	ldr	r3, [r7, #0]
    2b9a:	4798      	blx	r3
    2b9c:	1c03      	adds	r3, r0, #0
    2b9e:	e03f      	b.n	2c20 <udi_hid_setup+0xe0>

			case USB_REQ_HID_GET_IDLE:
				udd_g_ctrlreq.payload = rate;
    2ba0:	4b21      	ldr	r3, [pc, #132]	; (2c28 <udi_hid_setup+0xe8>)
    2ba2:	68fa      	ldr	r2, [r7, #12]
    2ba4:	609a      	str	r2, [r3, #8]
				udd_g_ctrlreq.payload_size = 1;
    2ba6:	4b20      	ldr	r3, [pc, #128]	; (2c28 <udi_hid_setup+0xe8>)
    2ba8:	2201      	movs	r2, #1
    2baa:	819a      	strh	r2, [r3, #12]
				return true;
    2bac:	2301      	movs	r3, #1
    2bae:	e037      	b.n	2c20 <udi_hid_setup+0xe0>

			case USB_REQ_HID_GET_PROTOCOL:
				udd_g_ctrlreq.payload = protocol;
    2bb0:	4b1d      	ldr	r3, [pc, #116]	; (2c28 <udi_hid_setup+0xe8>)
    2bb2:	68ba      	ldr	r2, [r7, #8]
    2bb4:	609a      	str	r2, [r3, #8]
				udd_g_ctrlreq.payload_size = 1;
    2bb6:	4b1c      	ldr	r3, [pc, #112]	; (2c28 <udi_hid_setup+0xe8>)
    2bb8:	2201      	movs	r2, #1
    2bba:	819a      	strh	r2, [r3, #12]
				return true;
    2bbc:	2301      	movs	r3, #1
    2bbe:	e02f      	b.n	2c20 <udi_hid_setup+0xe0>
			}
		}
	}
	if (Udd_setup_is_out()) {
    2bc0:	4b19      	ldr	r3, [pc, #100]	; (2c28 <udi_hid_setup+0xe8>)
    2bc2:	781b      	ldrb	r3, [r3, #0]
    2bc4:	b2db      	uxtb	r3, r3
    2bc6:	b25b      	sxtb	r3, r3
    2bc8:	2b00      	cmp	r3, #0
    2bca:	db28      	blt.n	2c1e <udi_hid_setup+0xde>
		// Requests Interface SET
		if (Udd_setup_type() == USB_REQ_TYPE_CLASS) {
    2bcc:	4b16      	ldr	r3, [pc, #88]	; (2c28 <udi_hid_setup+0xe8>)
    2bce:	781b      	ldrb	r3, [r3, #0]
    2bd0:	1c1a      	adds	r2, r3, #0
    2bd2:	2360      	movs	r3, #96	; 0x60
    2bd4:	4013      	ands	r3, r2
    2bd6:	2b20      	cmp	r3, #32
    2bd8:	d121      	bne.n	2c1e <udi_hid_setup+0xde>
			// Requests Class Interface Set
			switch (udd_g_ctrlreq.req.bRequest) {
    2bda:	4b13      	ldr	r3, [pc, #76]	; (2c28 <udi_hid_setup+0xe8>)
    2bdc:	785b      	ldrb	r3, [r3, #1]
    2bde:	2b0a      	cmp	r3, #10
    2be0:	d007      	beq.n	2bf2 <udi_hid_setup+0xb2>
    2be2:	2b0b      	cmp	r3, #11
    2be4:	d00e      	beq.n	2c04 <udi_hid_setup+0xc4>
    2be6:	2b09      	cmp	r3, #9
    2be8:	d119      	bne.n	2c1e <udi_hid_setup+0xde>

			case USB_REQ_HID_SET_REPORT:
				return setup_report();
    2bea:	683b      	ldr	r3, [r7, #0]
    2bec:	4798      	blx	r3
    2bee:	1c03      	adds	r3, r0, #0
    2bf0:	e016      	b.n	2c20 <udi_hid_setup+0xe0>

			case USB_REQ_HID_SET_IDLE:
				*rate = udd_g_ctrlreq.req.wValue >> 8;
    2bf2:	4b0d      	ldr	r3, [pc, #52]	; (2c28 <udi_hid_setup+0xe8>)
    2bf4:	885b      	ldrh	r3, [r3, #2]
    2bf6:	0a1b      	lsrs	r3, r3, #8
    2bf8:	b29b      	uxth	r3, r3
    2bfa:	b2da      	uxtb	r2, r3
    2bfc:	68fb      	ldr	r3, [r7, #12]
    2bfe:	701a      	strb	r2, [r3, #0]
				return true;
    2c00:	2301      	movs	r3, #1
    2c02:	e00d      	b.n	2c20 <udi_hid_setup+0xe0>

			case USB_REQ_HID_SET_PROTOCOL:
				if (0 != udd_g_ctrlreq.req.wLength)
    2c04:	4b08      	ldr	r3, [pc, #32]	; (2c28 <udi_hid_setup+0xe8>)
    2c06:	88db      	ldrh	r3, [r3, #6]
    2c08:	2b00      	cmp	r3, #0
    2c0a:	d001      	beq.n	2c10 <udi_hid_setup+0xd0>
					return false;
    2c0c:	2300      	movs	r3, #0
    2c0e:	e007      	b.n	2c20 <udi_hid_setup+0xe0>
				*protocol = udd_g_ctrlreq.req.wValue;
    2c10:	4b05      	ldr	r3, [pc, #20]	; (2c28 <udi_hid_setup+0xe8>)
    2c12:	885b      	ldrh	r3, [r3, #2]
    2c14:	b2da      	uxtb	r2, r3
    2c16:	68bb      	ldr	r3, [r7, #8]
    2c18:	701a      	strb	r2, [r3, #0]
				return true;
    2c1a:	2301      	movs	r3, #1
    2c1c:	e000      	b.n	2c20 <udi_hid_setup+0xe0>
			}
		}
	}
	return false;	// Request not supported
    2c1e:	2300      	movs	r3, #0
}
    2c20:	1c18      	adds	r0, r3, #0
    2c22:	46bd      	mov	sp, r7
    2c24:	b004      	add	sp, #16
    2c26:	bd80      	pop	{r7, pc}
    2c28:	2000045c 	.word	0x2000045c
    2c2c:	00002c31 	.word	0x00002c31

00002c30 <udi_hid_reqstdifaceget_descriptor>:

//---------------------------------------------
//------- Internal routines

static bool udi_hid_reqstdifaceget_descriptor(uint8_t *report_desc)
{
    2c30:	b580      	push	{r7, lr}
    2c32:	b084      	sub	sp, #16
    2c34:	af00      	add	r7, sp, #0
    2c36:	6078      	str	r0, [r7, #4]
	usb_hid_descriptor_t UDC_DESC_STORAGE *ptr_hid_desc;

	// Get the USB descriptor which is located after the interface descriptor
	// This descriptor must be the HID descriptor
	ptr_hid_desc = (usb_hid_descriptor_t UDC_DESC_STORAGE *) ((uint8_t *)
			udc_get_interface_desc() + sizeof(usb_iface_desc_t));
    2c38:	4b25      	ldr	r3, [pc, #148]	; (2cd0 <udi_hid_reqstdifaceget_descriptor+0xa0>)
    2c3a:	4798      	blx	r3
    2c3c:	1c03      	adds	r3, r0, #0
{
	usb_hid_descriptor_t UDC_DESC_STORAGE *ptr_hid_desc;

	// Get the USB descriptor which is located after the interface descriptor
	// This descriptor must be the HID descriptor
	ptr_hid_desc = (usb_hid_descriptor_t UDC_DESC_STORAGE *) ((uint8_t *)
    2c3e:	3309      	adds	r3, #9
    2c40:	60fb      	str	r3, [r7, #12]
			udc_get_interface_desc() + sizeof(usb_iface_desc_t));
	if (USB_DT_HID != ptr_hid_desc->bDescriptorType)
    2c42:	68fb      	ldr	r3, [r7, #12]
    2c44:	785b      	ldrb	r3, [r3, #1]
    2c46:	2b21      	cmp	r3, #33	; 0x21
    2c48:	d001      	beq.n	2c4e <udi_hid_reqstdifaceget_descriptor+0x1e>
		return false;
    2c4a:	2300      	movs	r3, #0
    2c4c:	e03b      	b.n	2cc6 <udi_hid_reqstdifaceget_descriptor+0x96>

	// The SETUP request can ask for:
	// - an USB_DT_HID descriptor
	// - or USB_DT_HID_REPORT descriptor
	// - or USB_DT_HID_PHYSICAL descriptor
	if (USB_DT_HID == (uint8_t) (udd_g_ctrlreq.req.wValue >> 8)) {
    2c4e:	4b21      	ldr	r3, [pc, #132]	; (2cd4 <udi_hid_reqstdifaceget_descriptor+0xa4>)
    2c50:	885b      	ldrh	r3, [r3, #2]
    2c52:	0a1b      	lsrs	r3, r3, #8
    2c54:	b29b      	uxth	r3, r3
    2c56:	b2db      	uxtb	r3, r3
    2c58:	2b21      	cmp	r3, #33	; 0x21
    2c5a:	d113      	bne.n	2c84 <udi_hid_reqstdifaceget_descriptor+0x54>
		// USB_DT_HID descriptor requested then send it
		udd_g_ctrlreq.payload = (uint8_t *) ptr_hid_desc;
    2c5c:	4b1d      	ldr	r3, [pc, #116]	; (2cd4 <udi_hid_reqstdifaceget_descriptor+0xa4>)
    2c5e:	68fa      	ldr	r2, [r7, #12]
    2c60:	609a      	str	r2, [r3, #8]
		udd_g_ctrlreq.payload_size =
				min(udd_g_ctrlreq.req.wLength,
    2c62:	68fb      	ldr	r3, [r7, #12]
    2c64:	781b      	ldrb	r3, [r3, #0]
    2c66:	b29a      	uxth	r2, r3
    2c68:	4b1a      	ldr	r3, [pc, #104]	; (2cd4 <udi_hid_reqstdifaceget_descriptor+0xa4>)
    2c6a:	88db      	ldrh	r3, [r3, #6]
    2c6c:	1c18      	adds	r0, r3, #0
    2c6e:	1c11      	adds	r1, r2, #0
    2c70:	b28a      	uxth	r2, r1
    2c72:	b283      	uxth	r3, r0
    2c74:	429a      	cmp	r2, r3
    2c76:	d900      	bls.n	2c7a <udi_hid_reqstdifaceget_descriptor+0x4a>
    2c78:	1c01      	adds	r1, r0, #0
    2c7a:	b28a      	uxth	r2, r1
	// - or USB_DT_HID_REPORT descriptor
	// - or USB_DT_HID_PHYSICAL descriptor
	if (USB_DT_HID == (uint8_t) (udd_g_ctrlreq.req.wValue >> 8)) {
		// USB_DT_HID descriptor requested then send it
		udd_g_ctrlreq.payload = (uint8_t *) ptr_hid_desc;
		udd_g_ctrlreq.payload_size =
    2c7c:	4b15      	ldr	r3, [pc, #84]	; (2cd4 <udi_hid_reqstdifaceget_descriptor+0xa4>)
    2c7e:	819a      	strh	r2, [r3, #12]
				min(udd_g_ctrlreq.req.wLength,
				ptr_hid_desc->bLength);
		return true;
    2c80:	2301      	movs	r3, #1
    2c82:	e020      	b.n	2cc6 <udi_hid_reqstdifaceget_descriptor+0x96>
	}
	// The HID_X descriptor requested must correspond to report type
	// included in the HID descriptor
	if (ptr_hid_desc->bRDescriptorType ==
    2c84:	68fb      	ldr	r3, [r7, #12]
    2c86:	799a      	ldrb	r2, [r3, #6]
			(uint8_t) (udd_g_ctrlreq.req.wValue >> 8)) {
    2c88:	4b12      	ldr	r3, [pc, #72]	; (2cd4 <udi_hid_reqstdifaceget_descriptor+0xa4>)
    2c8a:	885b      	ldrh	r3, [r3, #2]
    2c8c:	0a1b      	lsrs	r3, r3, #8
    2c8e:	b29b      	uxth	r3, r3
    2c90:	b2db      	uxtb	r3, r3
				ptr_hid_desc->bLength);
		return true;
	}
	// The HID_X descriptor requested must correspond to report type
	// included in the HID descriptor
	if (ptr_hid_desc->bRDescriptorType ==
    2c92:	429a      	cmp	r2, r3
    2c94:	d116      	bne.n	2cc4 <udi_hid_reqstdifaceget_descriptor+0x94>
			(uint8_t) (udd_g_ctrlreq.req.wValue >> 8)) {
		// Send HID Report descriptor given by high level
		udd_g_ctrlreq.payload = report_desc;
    2c96:	4b0f      	ldr	r3, [pc, #60]	; (2cd4 <udi_hid_reqstdifaceget_descriptor+0xa4>)
    2c98:	687a      	ldr	r2, [r7, #4]
    2c9a:	609a      	str	r2, [r3, #8]
		udd_g_ctrlreq.payload_size =
				min(udd_g_ctrlreq.req.wLength,
    2c9c:	68fb      	ldr	r3, [r7, #12]
    2c9e:	79da      	ldrb	r2, [r3, #7]
    2ca0:	7a1b      	ldrb	r3, [r3, #8]
    2ca2:	021b      	lsls	r3, r3, #8
    2ca4:	4313      	orrs	r3, r2
    2ca6:	b29a      	uxth	r2, r3
    2ca8:	4b0a      	ldr	r3, [pc, #40]	; (2cd4 <udi_hid_reqstdifaceget_descriptor+0xa4>)
    2caa:	88db      	ldrh	r3, [r3, #6]
    2cac:	1c18      	adds	r0, r3, #0
    2cae:	1c11      	adds	r1, r2, #0
    2cb0:	b28a      	uxth	r2, r1
    2cb2:	b283      	uxth	r3, r0
    2cb4:	429a      	cmp	r2, r3
    2cb6:	d900      	bls.n	2cba <udi_hid_reqstdifaceget_descriptor+0x8a>
    2cb8:	1c01      	adds	r1, r0, #0
    2cba:	b28a      	uxth	r2, r1
	// included in the HID descriptor
	if (ptr_hid_desc->bRDescriptorType ==
			(uint8_t) (udd_g_ctrlreq.req.wValue >> 8)) {
		// Send HID Report descriptor given by high level
		udd_g_ctrlreq.payload = report_desc;
		udd_g_ctrlreq.payload_size =
    2cbc:	4b05      	ldr	r3, [pc, #20]	; (2cd4 <udi_hid_reqstdifaceget_descriptor+0xa4>)
    2cbe:	819a      	strh	r2, [r3, #12]
				min(udd_g_ctrlreq.req.wLength,
				le16_to_cpu(ptr_hid_desc->wDescriptorLength));
		return true;
    2cc0:	2301      	movs	r3, #1
    2cc2:	e000      	b.n	2cc6 <udi_hid_reqstdifaceget_descriptor+0x96>
	}
	return false;
    2cc4:	2300      	movs	r3, #0
}
    2cc6:	1c18      	adds	r0, r3, #0
    2cc8:	46bd      	mov	sp, r7
    2cca:	b004      	add	sp, #16
    2ccc:	bd80      	pop	{r7, pc}
    2cce:	46c0      	nop			; (mov r8, r8)
    2cd0:	00002cd9 	.word	0x00002cd9
    2cd4:	2000045c 	.word	0x2000045c

00002cd8 <udc_get_interface_desc>:
	.header.bDescriptorType = USB_DT_STRING
};
//! @}

usb_iface_desc_t UDC_DESC_STORAGE *udc_get_interface_desc(void)
{
    2cd8:	b580      	push	{r7, lr}
    2cda:	af00      	add	r7, sp, #0
	return udc_ptr_iface;
    2cdc:	4b02      	ldr	r3, [pc, #8]	; (2ce8 <udc_get_interface_desc+0x10>)
    2cde:	681b      	ldr	r3, [r3, #0]
}
    2ce0:	1c18      	adds	r0, r3, #0
    2ce2:	46bd      	mov	sp, r7
    2ce4:	bd80      	pop	{r7, pc}
    2ce6:	46c0      	nop			; (mov r8, r8)
    2ce8:	20000138 	.word	0x20000138

00002cec <udc_get_eof_conf>:
 * \brief Returns a value to check the end of USB Configuration descriptor
 *
 * \return address after the last byte of USB Configuration descriptor
 */
static usb_conf_desc_t UDC_DESC_STORAGE *udc_get_eof_conf(void)
{
    2cec:	b580      	push	{r7, lr}
    2cee:	af00      	add	r7, sp, #0
	return (UDC_DESC_STORAGE usb_conf_desc_t *) ((uint8_t *)
			udc_ptr_conf->desc +
    2cf0:	4b07      	ldr	r3, [pc, #28]	; (2d10 <udc_get_eof_conf+0x24>)
    2cf2:	681b      	ldr	r3, [r3, #0]
    2cf4:	681a      	ldr	r2, [r3, #0]
			le16_to_cpu(udc_ptr_conf->desc->wTotalLength));
    2cf6:	4b06      	ldr	r3, [pc, #24]	; (2d10 <udc_get_eof_conf+0x24>)
    2cf8:	681b      	ldr	r3, [r3, #0]
    2cfa:	681b      	ldr	r3, [r3, #0]
    2cfc:	7899      	ldrb	r1, [r3, #2]
    2cfe:	78db      	ldrb	r3, [r3, #3]
    2d00:	021b      	lsls	r3, r3, #8
    2d02:	430b      	orrs	r3, r1
    2d04:	b29b      	uxth	r3, r3
 *
 * \return address after the last byte of USB Configuration descriptor
 */
static usb_conf_desc_t UDC_DESC_STORAGE *udc_get_eof_conf(void)
{
	return (UDC_DESC_STORAGE usb_conf_desc_t *) ((uint8_t *)
    2d06:	18d3      	adds	r3, r2, r3
			udc_ptr_conf->desc +
			le16_to_cpu(udc_ptr_conf->desc->wTotalLength));
}
    2d08:	1c18      	adds	r0, r3, #0
    2d0a:	46bd      	mov	sp, r7
    2d0c:	bd80      	pop	{r7, pc}
    2d0e:	46c0      	nop			; (mov r8, r8)
    2d10:	20000134 	.word	0x20000134

00002d14 <udc_next_desc_in_iface>:
 * \return address of specific descriptor found
 * \return NULL if it is the end of global interface descriptor
 */
static usb_conf_desc_t UDC_DESC_STORAGE *udc_next_desc_in_iface(usb_conf_desc_t
		UDC_DESC_STORAGE * desc, uint8_t desc_id)
{
    2d14:	b580      	push	{r7, lr}
    2d16:	b084      	sub	sp, #16
    2d18:	af00      	add	r7, sp, #0
    2d1a:	6078      	str	r0, [r7, #4]
    2d1c:	1c0a      	adds	r2, r1, #0
    2d1e:	1cfb      	adds	r3, r7, #3
    2d20:	701a      	strb	r2, [r3, #0]
	usb_conf_desc_t UDC_DESC_STORAGE *ptr_eof_desc;

	ptr_eof_desc = udc_get_eof_conf();
    2d22:	4b13      	ldr	r3, [pc, #76]	; (2d70 <udc_next_desc_in_iface+0x5c>)
    2d24:	4798      	blx	r3
    2d26:	1c03      	adds	r3, r0, #0
    2d28:	60fb      	str	r3, [r7, #12]
	// Go to next descriptor
	desc = (UDC_DESC_STORAGE usb_conf_desc_t *) ((uint8_t *) desc +
			desc->bLength);
    2d2a:	687b      	ldr	r3, [r7, #4]
    2d2c:	781b      	ldrb	r3, [r3, #0]
{
	usb_conf_desc_t UDC_DESC_STORAGE *ptr_eof_desc;

	ptr_eof_desc = udc_get_eof_conf();
	// Go to next descriptor
	desc = (UDC_DESC_STORAGE usb_conf_desc_t *) ((uint8_t *) desc +
    2d2e:	1c1a      	adds	r2, r3, #0
    2d30:	687b      	ldr	r3, [r7, #4]
    2d32:	189b      	adds	r3, r3, r2
    2d34:	607b      	str	r3, [r7, #4]
			desc->bLength);
	// Check the end of configuration descriptor
	while (ptr_eof_desc > desc) {
    2d36:	e012      	b.n	2d5e <udc_next_desc_in_iface+0x4a>
		// If new interface descriptor is found,
		// then it is the end of the current global interface descriptor
		if (USB_DT_INTERFACE == desc->bDescriptorType) {
    2d38:	687b      	ldr	r3, [r7, #4]
    2d3a:	785b      	ldrb	r3, [r3, #1]
    2d3c:	2b04      	cmp	r3, #4
    2d3e:	d100      	bne.n	2d42 <udc_next_desc_in_iface+0x2e>
			break; // End of global interface descriptor
    2d40:	e011      	b.n	2d66 <udc_next_desc_in_iface+0x52>
		}
		if (desc_id == desc->bDescriptorType) {
    2d42:	687b      	ldr	r3, [r7, #4]
    2d44:	785b      	ldrb	r3, [r3, #1]
    2d46:	1cfa      	adds	r2, r7, #3
    2d48:	7812      	ldrb	r2, [r2, #0]
    2d4a:	429a      	cmp	r2, r3
    2d4c:	d101      	bne.n	2d52 <udc_next_desc_in_iface+0x3e>
			return desc; // Specific descriptor found
    2d4e:	687b      	ldr	r3, [r7, #4]
    2d50:	e00a      	b.n	2d68 <udc_next_desc_in_iface+0x54>
		}
		// Go to next descriptor
		desc = (UDC_DESC_STORAGE usb_conf_desc_t *) ((uint8_t *) desc +
				desc->bLength);
    2d52:	687b      	ldr	r3, [r7, #4]
    2d54:	781b      	ldrb	r3, [r3, #0]
		}
		if (desc_id == desc->bDescriptorType) {
			return desc; // Specific descriptor found
		}
		// Go to next descriptor
		desc = (UDC_DESC_STORAGE usb_conf_desc_t *) ((uint8_t *) desc +
    2d56:	1c1a      	adds	r2, r3, #0
    2d58:	687b      	ldr	r3, [r7, #4]
    2d5a:	189b      	adds	r3, r3, r2
    2d5c:	607b      	str	r3, [r7, #4]
	ptr_eof_desc = udc_get_eof_conf();
	// Go to next descriptor
	desc = (UDC_DESC_STORAGE usb_conf_desc_t *) ((uint8_t *) desc +
			desc->bLength);
	// Check the end of configuration descriptor
	while (ptr_eof_desc > desc) {
    2d5e:	68fa      	ldr	r2, [r7, #12]
    2d60:	687b      	ldr	r3, [r7, #4]
    2d62:	429a      	cmp	r2, r3
    2d64:	d8e8      	bhi.n	2d38 <udc_next_desc_in_iface+0x24>
		}
		// Go to next descriptor
		desc = (UDC_DESC_STORAGE usb_conf_desc_t *) ((uint8_t *) desc +
				desc->bLength);
	}
	return NULL; // No specific descriptor found
    2d66:	2300      	movs	r3, #0
}
    2d68:	1c18      	adds	r0, r3, #0
    2d6a:	46bd      	mov	sp, r7
    2d6c:	b004      	add	sp, #16
    2d6e:	bd80      	pop	{r7, pc}
    2d70:	00002ced 	.word	0x00002ced

00002d74 <udc_update_iface_desc>:
 * \param setting_num   Setting number of interface to find
 *
 * \return 1 if found or 0 if not found
 */
static bool udc_update_iface_desc(uint8_t iface_num, uint8_t setting_num)
{
    2d74:	b580      	push	{r7, lr}
    2d76:	b084      	sub	sp, #16
    2d78:	af00      	add	r7, sp, #0
    2d7a:	1c02      	adds	r2, r0, #0
    2d7c:	1dfb      	adds	r3, r7, #7
    2d7e:	701a      	strb	r2, [r3, #0]
    2d80:	1dbb      	adds	r3, r7, #6
    2d82:	1c0a      	adds	r2, r1, #0
    2d84:	701a      	strb	r2, [r3, #0]
	usb_conf_desc_t UDC_DESC_STORAGE *ptr_end_desc;

	if (0 == udc_num_configuration) {
    2d86:	4b20      	ldr	r3, [pc, #128]	; (2e08 <udc_update_iface_desc+0x94>)
    2d88:	781b      	ldrb	r3, [r3, #0]
    2d8a:	2b00      	cmp	r3, #0
    2d8c:	d101      	bne.n	2d92 <udc_update_iface_desc+0x1e>
		return false;
    2d8e:	2300      	movs	r3, #0
    2d90:	e036      	b.n	2e00 <udc_update_iface_desc+0x8c>
	}

	if (iface_num >= udc_ptr_conf->desc->bNumInterfaces) {
    2d92:	4b1e      	ldr	r3, [pc, #120]	; (2e0c <udc_update_iface_desc+0x98>)
    2d94:	681b      	ldr	r3, [r3, #0]
    2d96:	681b      	ldr	r3, [r3, #0]
    2d98:	791b      	ldrb	r3, [r3, #4]
    2d9a:	1dfa      	adds	r2, r7, #7
    2d9c:	7812      	ldrb	r2, [r2, #0]
    2d9e:	429a      	cmp	r2, r3
    2da0:	d301      	bcc.n	2da6 <udc_update_iface_desc+0x32>
		return false;
    2da2:	2300      	movs	r3, #0
    2da4:	e02c      	b.n	2e00 <udc_update_iface_desc+0x8c>
	}

	// Start at the beginning of configuration descriptor
	udc_ptr_iface = (UDC_DESC_STORAGE usb_iface_desc_t *)
			udc_ptr_conf->desc;
    2da6:	4b19      	ldr	r3, [pc, #100]	; (2e0c <udc_update_iface_desc+0x98>)
    2da8:	681b      	ldr	r3, [r3, #0]
    2daa:	681a      	ldr	r2, [r3, #0]
	if (iface_num >= udc_ptr_conf->desc->bNumInterfaces) {
		return false;
	}

	// Start at the beginning of configuration descriptor
	udc_ptr_iface = (UDC_DESC_STORAGE usb_iface_desc_t *)
    2dac:	4b18      	ldr	r3, [pc, #96]	; (2e10 <udc_update_iface_desc+0x9c>)
    2dae:	601a      	str	r2, [r3, #0]
			udc_ptr_conf->desc;

	// Check the end of configuration descriptor
	ptr_end_desc = udc_get_eof_conf();
    2db0:	4b18      	ldr	r3, [pc, #96]	; (2e14 <udc_update_iface_desc+0xa0>)
    2db2:	4798      	blx	r3
    2db4:	1c03      	adds	r3, r0, #0
    2db6:	60fb      	str	r3, [r7, #12]
	while (ptr_end_desc >
    2db8:	e01c      	b.n	2df4 <udc_update_iface_desc+0x80>
			(UDC_DESC_STORAGE usb_conf_desc_t *) udc_ptr_iface) {
		if (USB_DT_INTERFACE == udc_ptr_iface->bDescriptorType) {
    2dba:	4b15      	ldr	r3, [pc, #84]	; (2e10 <udc_update_iface_desc+0x9c>)
    2dbc:	681b      	ldr	r3, [r3, #0]
    2dbe:	785b      	ldrb	r3, [r3, #1]
    2dc0:	2b04      	cmp	r3, #4
    2dc2:	d10f      	bne.n	2de4 <udc_update_iface_desc+0x70>
			// A interface descriptor is found
			// Check interface and alternate setting number
			if ((iface_num == udc_ptr_iface->bInterfaceNumber) &&
    2dc4:	4b12      	ldr	r3, [pc, #72]	; (2e10 <udc_update_iface_desc+0x9c>)
    2dc6:	681b      	ldr	r3, [r3, #0]
    2dc8:	789b      	ldrb	r3, [r3, #2]
    2dca:	1dfa      	adds	r2, r7, #7
    2dcc:	7812      	ldrb	r2, [r2, #0]
    2dce:	429a      	cmp	r2, r3
    2dd0:	d108      	bne.n	2de4 <udc_update_iface_desc+0x70>
					(setting_num ==
					udc_ptr_iface->bAlternateSetting)) {
    2dd2:	4b0f      	ldr	r3, [pc, #60]	; (2e10 <udc_update_iface_desc+0x9c>)
    2dd4:	681b      	ldr	r3, [r3, #0]
    2dd6:	78db      	ldrb	r3, [r3, #3]
	while (ptr_end_desc >
			(UDC_DESC_STORAGE usb_conf_desc_t *) udc_ptr_iface) {
		if (USB_DT_INTERFACE == udc_ptr_iface->bDescriptorType) {
			// A interface descriptor is found
			// Check interface and alternate setting number
			if ((iface_num == udc_ptr_iface->bInterfaceNumber) &&
    2dd8:	1dba      	adds	r2, r7, #6
    2dda:	7812      	ldrb	r2, [r2, #0]
    2ddc:	429a      	cmp	r2, r3
    2dde:	d101      	bne.n	2de4 <udc_update_iface_desc+0x70>
					(setting_num ==
					udc_ptr_iface->bAlternateSetting)) {
				return true; // Interface found
    2de0:	2301      	movs	r3, #1
    2de2:	e00d      	b.n	2e00 <udc_update_iface_desc+0x8c>
			}
		}
		// Go to next descriptor
		udc_ptr_iface = (UDC_DESC_STORAGE usb_iface_desc_t *) (
    2de4:	4b0a      	ldr	r3, [pc, #40]	; (2e10 <udc_update_iface_desc+0x9c>)
    2de6:	681a      	ldr	r2, [r3, #0]
				(uint8_t *) udc_ptr_iface +
				udc_ptr_iface->bLength);
    2de8:	4b09      	ldr	r3, [pc, #36]	; (2e10 <udc_update_iface_desc+0x9c>)
    2dea:	681b      	ldr	r3, [r3, #0]
    2dec:	781b      	ldrb	r3, [r3, #0]
					udc_ptr_iface->bAlternateSetting)) {
				return true; // Interface found
			}
		}
		// Go to next descriptor
		udc_ptr_iface = (UDC_DESC_STORAGE usb_iface_desc_t *) (
    2dee:	18d2      	adds	r2, r2, r3
    2df0:	4b07      	ldr	r3, [pc, #28]	; (2e10 <udc_update_iface_desc+0x9c>)
    2df2:	601a      	str	r2, [r3, #0]
			udc_ptr_conf->desc;

	// Check the end of configuration descriptor
	ptr_end_desc = udc_get_eof_conf();
	while (ptr_end_desc >
			(UDC_DESC_STORAGE usb_conf_desc_t *) udc_ptr_iface) {
    2df4:	4b06      	ldr	r3, [pc, #24]	; (2e10 <udc_update_iface_desc+0x9c>)
    2df6:	681b      	ldr	r3, [r3, #0]
	udc_ptr_iface = (UDC_DESC_STORAGE usb_iface_desc_t *)
			udc_ptr_conf->desc;

	// Check the end of configuration descriptor
	ptr_end_desc = udc_get_eof_conf();
	while (ptr_end_desc >
    2df8:	68fa      	ldr	r2, [r7, #12]
    2dfa:	429a      	cmp	r2, r3
    2dfc:	d8dd      	bhi.n	2dba <udc_update_iface_desc+0x46>
		// Go to next descriptor
		udc_ptr_iface = (UDC_DESC_STORAGE usb_iface_desc_t *) (
				(uint8_t *) udc_ptr_iface +
				udc_ptr_iface->bLength);
	}
	return false; // Interface not found
    2dfe:	2300      	movs	r3, #0
}
    2e00:	1c18      	adds	r0, r3, #0
    2e02:	46bd      	mov	sp, r7
    2e04:	b004      	add	sp, #16
    2e06:	bd80      	pop	{r7, pc}
    2e08:	20000130 	.word	0x20000130
    2e0c:	20000134 	.word	0x20000134
    2e10:	20000138 	.word	0x20000138
    2e14:	00002ced 	.word	0x00002ced

00002e18 <udc_iface_disable>:
 * \param iface_num     Interface number to disable
 *
 * \return 1 if it is done or 0 if interface is not found
 */
static bool udc_iface_disable(uint8_t iface_num)
{
    2e18:	b580      	push	{r7, lr}
    2e1a:	b084      	sub	sp, #16
    2e1c:	af00      	add	r7, sp, #0
    2e1e:	1c02      	adds	r2, r0, #0
    2e20:	1dfb      	adds	r3, r7, #7
    2e22:	701a      	strb	r2, [r3, #0]
	udi_api_t UDC_DESC_STORAGE *udi_api;

	// Select first alternate setting of the interface
	// to update udc_ptr_iface before call iface->getsetting()
	if (!udc_update_iface_desc(iface_num, 0)) {
    2e24:	1dfb      	adds	r3, r7, #7
    2e26:	781b      	ldrb	r3, [r3, #0]
    2e28:	1c18      	adds	r0, r3, #0
    2e2a:	2100      	movs	r1, #0
    2e2c:	4b22      	ldr	r3, [pc, #136]	; (2eb8 <udc_iface_disable+0xa0>)
    2e2e:	4798      	blx	r3
    2e30:	1c03      	adds	r3, r0, #0
    2e32:	1c1a      	adds	r2, r3, #0
    2e34:	2301      	movs	r3, #1
    2e36:	4053      	eors	r3, r2
    2e38:	b2db      	uxtb	r3, r3
    2e3a:	2b00      	cmp	r3, #0
    2e3c:	d001      	beq.n	2e42 <udc_iface_disable+0x2a>
		return false;
    2e3e:	2300      	movs	r3, #0
    2e40:	e035      	b.n	2eae <udc_iface_disable+0x96>
	}

	// Select the interface with the current alternate setting
	udi_api = udc_ptr_conf->udi_apis[iface_num];
    2e42:	4b1e      	ldr	r3, [pc, #120]	; (2ebc <udc_iface_disable+0xa4>)
    2e44:	681b      	ldr	r3, [r3, #0]
    2e46:	685a      	ldr	r2, [r3, #4]
    2e48:	1dfb      	adds	r3, r7, #7
    2e4a:	781b      	ldrb	r3, [r3, #0]
    2e4c:	009b      	lsls	r3, r3, #2
    2e4e:	18d3      	adds	r3, r2, r3
    2e50:	681b      	ldr	r3, [r3, #0]
    2e52:	60bb      	str	r3, [r7, #8]

#if (0!=USB_DEVICE_MAX_EP)
	if (!udc_update_iface_desc(iface_num, udi_api->getsetting())) {
    2e54:	68bb      	ldr	r3, [r7, #8]
    2e56:	68db      	ldr	r3, [r3, #12]
    2e58:	4798      	blx	r3
    2e5a:	1c03      	adds	r3, r0, #0
    2e5c:	1c1a      	adds	r2, r3, #0
    2e5e:	1dfb      	adds	r3, r7, #7
    2e60:	781b      	ldrb	r3, [r3, #0]
    2e62:	1c18      	adds	r0, r3, #0
    2e64:	1c11      	adds	r1, r2, #0
    2e66:	4b14      	ldr	r3, [pc, #80]	; (2eb8 <udc_iface_disable+0xa0>)
    2e68:	4798      	blx	r3
    2e6a:	1c03      	adds	r3, r0, #0
    2e6c:	1c1a      	adds	r2, r3, #0
    2e6e:	2301      	movs	r3, #1
    2e70:	4053      	eors	r3, r2
    2e72:	b2db      	uxtb	r3, r3
    2e74:	2b00      	cmp	r3, #0
    2e76:	d001      	beq.n	2e7c <udc_iface_disable+0x64>
		return false;
    2e78:	2300      	movs	r3, #0
    2e7a:	e018      	b.n	2eae <udc_iface_disable+0x96>
	}

	// Start at the beginning of interface descriptor
	{
		usb_ep_desc_t UDC_DESC_STORAGE *ep_desc;
		ep_desc = (UDC_DESC_STORAGE usb_ep_desc_t *) udc_ptr_iface;
    2e7c:	4b10      	ldr	r3, [pc, #64]	; (2ec0 <udc_iface_disable+0xa8>)
    2e7e:	681b      	ldr	r3, [r3, #0]
    2e80:	60fb      	str	r3, [r7, #12]
		while (1) {
			// Search Endpoint descriptor included in global interface descriptor
			ep_desc = (UDC_DESC_STORAGE usb_ep_desc_t *)
    2e82:	68fb      	ldr	r3, [r7, #12]
    2e84:	1c18      	adds	r0, r3, #0
    2e86:	2105      	movs	r1, #5
    2e88:	4b0e      	ldr	r3, [pc, #56]	; (2ec4 <udc_iface_disable+0xac>)
    2e8a:	4798      	blx	r3
    2e8c:	1c03      	adds	r3, r0, #0
    2e8e:	60fb      	str	r3, [r7, #12]
					udc_next_desc_in_iface((UDC_DESC_STORAGE
					usb_conf_desc_t *)
					ep_desc, USB_DT_ENDPOINT);
			if (NULL == ep_desc) {
    2e90:	68fb      	ldr	r3, [r7, #12]
    2e92:	2b00      	cmp	r3, #0
    2e94:	d105      	bne.n	2ea2 <udc_iface_disable+0x8a>
				break;
    2e96:	46c0      	nop			; (mov r8, r8)
		}
	}
#endif

	// Disable interface
	udi_api->disable();
    2e98:	68bb      	ldr	r3, [r7, #8]
    2e9a:	685b      	ldr	r3, [r3, #4]
    2e9c:	4798      	blx	r3
	return true;
    2e9e:	2301      	movs	r3, #1
    2ea0:	e005      	b.n	2eae <udc_iface_disable+0x96>
					ep_desc, USB_DT_ENDPOINT);
			if (NULL == ep_desc) {
				break;
			}
			// Free the endpoint used by the interface
			udd_ep_free(ep_desc->bEndpointAddress);
    2ea2:	68fb      	ldr	r3, [r7, #12]
    2ea4:	789b      	ldrb	r3, [r3, #2]
    2ea6:	1c18      	adds	r0, r3, #0
    2ea8:	4b07      	ldr	r3, [pc, #28]	; (2ec8 <udc_iface_disable+0xb0>)
    2eaa:	4798      	blx	r3
		}
    2eac:	e7e9      	b.n	2e82 <udc_iface_disable+0x6a>
#endif

	// Disable interface
	udi_api->disable();
	return true;
}
    2eae:	1c18      	adds	r0, r3, #0
    2eb0:	46bd      	mov	sp, r7
    2eb2:	b004      	add	sp, #16
    2eb4:	bd80      	pop	{r7, pc}
    2eb6:	46c0      	nop			; (mov r8, r8)
    2eb8:	00002d75 	.word	0x00002d75
    2ebc:	20000134 	.word	0x20000134
    2ec0:	20000138 	.word	0x20000138
    2ec4:	00002d15 	.word	0x00002d15
    2ec8:	00005779 	.word	0x00005779

00002ecc <udc_iface_enable>:
 * \param setting_num   Setting number to enable
 *
 * \return 1 if it is done or 0 if interface is not found
 */
static bool udc_iface_enable(uint8_t iface_num, uint8_t setting_num)
{
    2ecc:	b580      	push	{r7, lr}
    2ece:	b084      	sub	sp, #16
    2ed0:	af00      	add	r7, sp, #0
    2ed2:	1c02      	adds	r2, r0, #0
    2ed4:	1dfb      	adds	r3, r7, #7
    2ed6:	701a      	strb	r2, [r3, #0]
    2ed8:	1dbb      	adds	r3, r7, #6
    2eda:	1c0a      	adds	r2, r1, #0
    2edc:	701a      	strb	r2, [r3, #0]
	// Select the interface descriptor
	if (!udc_update_iface_desc(iface_num, setting_num)) {
    2ede:	1dfb      	adds	r3, r7, #7
    2ee0:	781a      	ldrb	r2, [r3, #0]
    2ee2:	1dbb      	adds	r3, r7, #6
    2ee4:	781b      	ldrb	r3, [r3, #0]
    2ee6:	1c10      	adds	r0, r2, #0
    2ee8:	1c19      	adds	r1, r3, #0
    2eea:	4b20      	ldr	r3, [pc, #128]	; (2f6c <udc_iface_enable+0xa0>)
    2eec:	4798      	blx	r3
    2eee:	1c03      	adds	r3, r0, #0
    2ef0:	1c1a      	adds	r2, r3, #0
    2ef2:	2301      	movs	r3, #1
    2ef4:	4053      	eors	r3, r2
    2ef6:	b2db      	uxtb	r3, r3
    2ef8:	2b00      	cmp	r3, #0
    2efa:	d001      	beq.n	2f00 <udc_iface_enable+0x34>
		return false;
    2efc:	2300      	movs	r3, #0
    2efe:	e030      	b.n	2f62 <udc_iface_enable+0x96>

#if (0!=USB_DEVICE_MAX_EP)
	usb_ep_desc_t UDC_DESC_STORAGE *ep_desc;

	// Start at the beginning of the global interface descriptor
	ep_desc = (UDC_DESC_STORAGE usb_ep_desc_t *) udc_ptr_iface;
    2f00:	4b1b      	ldr	r3, [pc, #108]	; (2f70 <udc_iface_enable+0xa4>)
    2f02:	681b      	ldr	r3, [r3, #0]
    2f04:	60fb      	str	r3, [r7, #12]
	while (1) {
		// Search Endpoint descriptor included in the global interface descriptor
		ep_desc = (UDC_DESC_STORAGE usb_ep_desc_t *)
    2f06:	68fb      	ldr	r3, [r7, #12]
    2f08:	1c18      	adds	r0, r3, #0
    2f0a:	2105      	movs	r1, #5
    2f0c:	4b19      	ldr	r3, [pc, #100]	; (2f74 <udc_iface_enable+0xa8>)
    2f0e:	4798      	blx	r3
    2f10:	1c03      	adds	r3, r0, #0
    2f12:	60fb      	str	r3, [r7, #12]
				udc_next_desc_in_iface((UDC_DESC_STORAGE
						usb_conf_desc_t *) ep_desc,
				USB_DT_ENDPOINT);
		if (NULL == ep_desc)
    2f14:	68fb      	ldr	r3, [r7, #12]
    2f16:	2b00      	cmp	r3, #0
    2f18:	d10c      	bne.n	2f34 <udc_iface_enable+0x68>
			break;
    2f1a:	46c0      	nop			; (mov r8, r8)
			return false;
		}
	}
#endif
	// Enable the interface
	return udc_ptr_conf->udi_apis[iface_num]->enable();
    2f1c:	4b16      	ldr	r3, [pc, #88]	; (2f78 <udc_iface_enable+0xac>)
    2f1e:	681b      	ldr	r3, [r3, #0]
    2f20:	685a      	ldr	r2, [r3, #4]
    2f22:	1dfb      	adds	r3, r7, #7
    2f24:	781b      	ldrb	r3, [r3, #0]
    2f26:	009b      	lsls	r3, r3, #2
    2f28:	18d3      	adds	r3, r2, r3
    2f2a:	681b      	ldr	r3, [r3, #0]
    2f2c:	681b      	ldr	r3, [r3, #0]
    2f2e:	4798      	blx	r3
    2f30:	1c03      	adds	r3, r0, #0
    2f32:	e016      	b.n	2f62 <udc_iface_enable+0x96>
						usb_conf_desc_t *) ep_desc,
				USB_DT_ENDPOINT);
		if (NULL == ep_desc)
			break;
		// Alloc the endpoint used by the interface
		if (!udd_ep_alloc(ep_desc->bEndpointAddress,
    2f34:	68fb      	ldr	r3, [r7, #12]
    2f36:	7898      	ldrb	r0, [r3, #2]
    2f38:	68fb      	ldr	r3, [r7, #12]
    2f3a:	78d9      	ldrb	r1, [r3, #3]
    2f3c:	68fb      	ldr	r3, [r7, #12]
    2f3e:	791a      	ldrb	r2, [r3, #4]
    2f40:	795b      	ldrb	r3, [r3, #5]
    2f42:	021b      	lsls	r3, r3, #8
    2f44:	4313      	orrs	r3, r2
    2f46:	b29b      	uxth	r3, r3
    2f48:	1c1a      	adds	r2, r3, #0
    2f4a:	4b0c      	ldr	r3, [pc, #48]	; (2f7c <udc_iface_enable+0xb0>)
    2f4c:	4798      	blx	r3
    2f4e:	1c03      	adds	r3, r0, #0
    2f50:	1c1a      	adds	r2, r3, #0
    2f52:	2301      	movs	r3, #1
    2f54:	4053      	eors	r3, r2
    2f56:	b2db      	uxtb	r3, r3
    2f58:	2b00      	cmp	r3, #0
    2f5a:	d001      	beq.n	2f60 <udc_iface_enable+0x94>
				ep_desc->bmAttributes,
				le16_to_cpu
				(ep_desc->wMaxPacketSize))) {
			return false;
    2f5c:	2300      	movs	r3, #0
    2f5e:	e000      	b.n	2f62 <udc_iface_enable+0x96>
		}
	}
    2f60:	e7d1      	b.n	2f06 <udc_iface_enable+0x3a>
#endif
	// Enable the interface
	return udc_ptr_conf->udi_apis[iface_num]->enable();
}
    2f62:	1c18      	adds	r0, r3, #0
    2f64:	46bd      	mov	sp, r7
    2f66:	b004      	add	sp, #16
    2f68:	bd80      	pop	{r7, pc}
    2f6a:	46c0      	nop			; (mov r8, r8)
    2f6c:	00002d75 	.word	0x00002d75
    2f70:	20000138 	.word	0x20000138
    2f74:	00002d15 	.word	0x00002d15
    2f78:	20000134 	.word	0x20000134
    2f7c:	00005809 	.word	0x00005809

00002f80 <udc_start>:

/*! \brief Start the USB Device stack
 */
void udc_start(void)
{
    2f80:	b580      	push	{r7, lr}
    2f82:	af00      	add	r7, sp, #0
	udd_enable();
    2f84:	4b01      	ldr	r3, [pc, #4]	; (2f8c <udc_start+0xc>)
    2f86:	4798      	blx	r3
}
    2f88:	46bd      	mov	sp, r7
    2f8a:	bd80      	pop	{r7, pc}
    2f8c:	00006711 	.word	0x00006711

00002f90 <udc_reset>:
/**
 * \brief Reset the current configuration of the USB device,
 * This routines can be called by UDD when a RESET on the USB line occurs.
 */
void udc_reset(void)
{
    2f90:	b580      	push	{r7, lr}
    2f92:	b082      	sub	sp, #8
    2f94:	af00      	add	r7, sp, #0
	uint8_t iface_num;

	if (udc_num_configuration) {
    2f96:	4b16      	ldr	r3, [pc, #88]	; (2ff0 <udc_reset+0x60>)
    2f98:	781b      	ldrb	r3, [r3, #0]
    2f9a:	2b00      	cmp	r3, #0
    2f9c:	d015      	beq.n	2fca <udc_reset+0x3a>
		for (iface_num = 0;
    2f9e:	1dfb      	adds	r3, r7, #7
    2fa0:	2200      	movs	r2, #0
    2fa2:	701a      	strb	r2, [r3, #0]
    2fa4:	e009      	b.n	2fba <udc_reset+0x2a>
				iface_num < udc_ptr_conf->desc->bNumInterfaces;
				iface_num++) {
			udc_iface_disable(iface_num);
    2fa6:	1dfb      	adds	r3, r7, #7
    2fa8:	781b      	ldrb	r3, [r3, #0]
    2faa:	1c18      	adds	r0, r3, #0
    2fac:	4b11      	ldr	r3, [pc, #68]	; (2ff4 <udc_reset+0x64>)
    2fae:	4798      	blx	r3
	uint8_t iface_num;

	if (udc_num_configuration) {
		for (iface_num = 0;
				iface_num < udc_ptr_conf->desc->bNumInterfaces;
				iface_num++) {
    2fb0:	1dfb      	adds	r3, r7, #7
    2fb2:	781a      	ldrb	r2, [r3, #0]
    2fb4:	1dfb      	adds	r3, r7, #7
    2fb6:	3201      	adds	r2, #1
    2fb8:	701a      	strb	r2, [r3, #0]
{
	uint8_t iface_num;

	if (udc_num_configuration) {
		for (iface_num = 0;
				iface_num < udc_ptr_conf->desc->bNumInterfaces;
    2fba:	4b0f      	ldr	r3, [pc, #60]	; (2ff8 <udc_reset+0x68>)
    2fbc:	681b      	ldr	r3, [r3, #0]
    2fbe:	681b      	ldr	r3, [r3, #0]
    2fc0:	791b      	ldrb	r3, [r3, #4]
void udc_reset(void)
{
	uint8_t iface_num;

	if (udc_num_configuration) {
		for (iface_num = 0;
    2fc2:	1dfa      	adds	r2, r7, #7
    2fc4:	7812      	ldrb	r2, [r2, #0]
    2fc6:	429a      	cmp	r2, r3
    2fc8:	d3ed      	bcc.n	2fa6 <udc_reset+0x16>
				iface_num < udc_ptr_conf->desc->bNumInterfaces;
				iface_num++) {
			udc_iface_disable(iface_num);
		}
	}
	udc_num_configuration = 0;
    2fca:	4b09      	ldr	r3, [pc, #36]	; (2ff0 <udc_reset+0x60>)
    2fcc:	2200      	movs	r2, #0
    2fce:	701a      	strb	r2, [r3, #0]
#if (USB_CONFIG_ATTR_REMOTE_WAKEUP \
	== (USB_DEVICE_ATTR & USB_CONFIG_ATTR_REMOTE_WAKEUP))
	if (CPU_TO_LE16(USB_DEV_STATUS_REMOTEWAKEUP) & udc_device_status) {
    2fd0:	4b0a      	ldr	r3, [pc, #40]	; (2ffc <udc_reset+0x6c>)
    2fd2:	881b      	ldrh	r3, [r3, #0]
    2fd4:	2202      	movs	r2, #2
    2fd6:	4013      	ands	r3, r2
    2fd8:	b29b      	uxth	r3, r3
    2fda:	2b00      	cmp	r3, #0
    2fdc:	d001      	beq.n	2fe2 <udc_reset+0x52>
		// Remote wakeup is enabled then disable it
		UDC_REMOTEWAKEUP_DISABLE();
    2fde:	4b08      	ldr	r3, [pc, #32]	; (3000 <udc_reset+0x70>)
    2fe0:	4798      	blx	r3
	}
#endif
	udc_device_status =
    2fe2:	4b06      	ldr	r3, [pc, #24]	; (2ffc <udc_reset+0x6c>)
    2fe4:	2200      	movs	r2, #0
    2fe6:	801a      	strh	r2, [r3, #0]
#if (USB_DEVICE_ATTR & USB_CONFIG_ATTR_SELF_POWERED)
			CPU_TO_LE16(USB_DEV_STATUS_SELF_POWERED);
#else
			CPU_TO_LE16(USB_DEV_STATUS_BUS_POWERED);
#endif
}
    2fe8:	46bd      	mov	sp, r7
    2fea:	b002      	add	sp, #8
    2fec:	bd80      	pop	{r7, pc}
    2fee:	46c0      	nop			; (mov r8, r8)
    2ff0:	20000130 	.word	0x20000130
    2ff4:	00002e19 	.word	0x00002e19
    2ff8:	20000134 	.word	0x20000134
    2ffc:	20000128 	.word	0x20000128
    3000:	000087e9 	.word	0x000087e9

00003004 <udc_sof_notify>:

void udc_sof_notify(void)
{
    3004:	b580      	push	{r7, lr}
    3006:	b082      	sub	sp, #8
    3008:	af00      	add	r7, sp, #0
	uint8_t iface_num;

	if (udc_num_configuration) {
    300a:	4b16      	ldr	r3, [pc, #88]	; (3064 <udc_sof_notify+0x60>)
    300c:	781b      	ldrb	r3, [r3, #0]
    300e:	2b00      	cmp	r3, #0
    3010:	d025      	beq.n	305e <udc_sof_notify+0x5a>
		for (iface_num = 0;
    3012:	1dfb      	adds	r3, r7, #7
    3014:	2200      	movs	r2, #0
    3016:	701a      	strb	r2, [r3, #0]
    3018:	e019      	b.n	304e <udc_sof_notify+0x4a>
				iface_num < udc_ptr_conf->desc->bNumInterfaces;
				iface_num++) {
			if (udc_ptr_conf->udi_apis[iface_num]->sof_notify != NULL) {
    301a:	4b13      	ldr	r3, [pc, #76]	; (3068 <udc_sof_notify+0x64>)
    301c:	681b      	ldr	r3, [r3, #0]
    301e:	685a      	ldr	r2, [r3, #4]
    3020:	1dfb      	adds	r3, r7, #7
    3022:	781b      	ldrb	r3, [r3, #0]
    3024:	009b      	lsls	r3, r3, #2
    3026:	18d3      	adds	r3, r2, r3
    3028:	681b      	ldr	r3, [r3, #0]
    302a:	691b      	ldr	r3, [r3, #16]
    302c:	2b00      	cmp	r3, #0
    302e:	d009      	beq.n	3044 <udc_sof_notify+0x40>
				udc_ptr_conf->udi_apis[iface_num]->sof_notify();
    3030:	4b0d      	ldr	r3, [pc, #52]	; (3068 <udc_sof_notify+0x64>)
    3032:	681b      	ldr	r3, [r3, #0]
    3034:	685a      	ldr	r2, [r3, #4]
    3036:	1dfb      	adds	r3, r7, #7
    3038:	781b      	ldrb	r3, [r3, #0]
    303a:	009b      	lsls	r3, r3, #2
    303c:	18d3      	adds	r3, r2, r3
    303e:	681b      	ldr	r3, [r3, #0]
    3040:	691b      	ldr	r3, [r3, #16]
    3042:	4798      	blx	r3
	uint8_t iface_num;

	if (udc_num_configuration) {
		for (iface_num = 0;
				iface_num < udc_ptr_conf->desc->bNumInterfaces;
				iface_num++) {
    3044:	1dfb      	adds	r3, r7, #7
    3046:	781a      	ldrb	r2, [r3, #0]
    3048:	1dfb      	adds	r3, r7, #7
    304a:	3201      	adds	r2, #1
    304c:	701a      	strb	r2, [r3, #0]
{
	uint8_t iface_num;

	if (udc_num_configuration) {
		for (iface_num = 0;
				iface_num < udc_ptr_conf->desc->bNumInterfaces;
    304e:	4b06      	ldr	r3, [pc, #24]	; (3068 <udc_sof_notify+0x64>)
    3050:	681b      	ldr	r3, [r3, #0]
    3052:	681b      	ldr	r3, [r3, #0]
    3054:	791b      	ldrb	r3, [r3, #4]
void udc_sof_notify(void)
{
	uint8_t iface_num;

	if (udc_num_configuration) {
		for (iface_num = 0;
    3056:	1dfa      	adds	r2, r7, #7
    3058:	7812      	ldrb	r2, [r2, #0]
    305a:	429a      	cmp	r2, r3
    305c:	d3dd      	bcc.n	301a <udc_sof_notify+0x16>
			if (udc_ptr_conf->udi_apis[iface_num]->sof_notify != NULL) {
				udc_ptr_conf->udi_apis[iface_num]->sof_notify();
			}
		}
	}
}
    305e:	46bd      	mov	sp, r7
    3060:	b002      	add	sp, #8
    3062:	bd80      	pop	{r7, pc}
    3064:	20000130 	.word	0x20000130
    3068:	20000134 	.word	0x20000134

0000306c <udc_req_std_dev_get_status>:
 * \brief Standard device request to get device status
 *
 * \return true if success
 */
static bool udc_req_std_dev_get_status(void)
{
    306c:	b580      	push	{r7, lr}
    306e:	af00      	add	r7, sp, #0
	if (udd_g_ctrlreq.req.wLength != sizeof(udc_device_status)) {
    3070:	4b07      	ldr	r3, [pc, #28]	; (3090 <udc_req_std_dev_get_status+0x24>)
    3072:	88db      	ldrh	r3, [r3, #6]
    3074:	2b02      	cmp	r3, #2
    3076:	d001      	beq.n	307c <udc_req_std_dev_get_status+0x10>
		return false;
    3078:	2300      	movs	r3, #0
    307a:	e005      	b.n	3088 <udc_req_std_dev_get_status+0x1c>
	}

	udd_set_setup_payload( (uint8_t *) & udc_device_status,
    307c:	4b05      	ldr	r3, [pc, #20]	; (3094 <udc_req_std_dev_get_status+0x28>)
    307e:	1c18      	adds	r0, r3, #0
    3080:	2102      	movs	r1, #2
    3082:	4b05      	ldr	r3, [pc, #20]	; (3098 <udc_req_std_dev_get_status+0x2c>)
    3084:	4798      	blx	r3
			sizeof(udc_device_status));
	return true;
    3086:	2301      	movs	r3, #1
}
    3088:	1c18      	adds	r0, r3, #0
    308a:	46bd      	mov	sp, r7
    308c:	bd80      	pop	{r7, pc}
    308e:	46c0      	nop			; (mov r8, r8)
    3090:	2000045c 	.word	0x2000045c
    3094:	20000128 	.word	0x20000128
    3098:	00005e25 	.word	0x00005e25

0000309c <udc_req_std_ep_get_status>:
 * \brief Standard endpoint request to get endpoint status
 *
 * \return true if success
 */
static bool udc_req_std_ep_get_status(void)
{
    309c:	b580      	push	{r7, lr}
    309e:	af00      	add	r7, sp, #0
	static le16_t udc_ep_status;

	if (udd_g_ctrlreq.req.wLength != sizeof(udc_ep_status)) {
    30a0:	4b0c      	ldr	r3, [pc, #48]	; (30d4 <udc_req_std_ep_get_status+0x38>)
    30a2:	88db      	ldrh	r3, [r3, #6]
    30a4:	2b02      	cmp	r3, #2
    30a6:	d001      	beq.n	30ac <udc_req_std_ep_get_status+0x10>
		return false;
    30a8:	2300      	movs	r3, #0
    30aa:	e00f      	b.n	30cc <udc_req_std_ep_get_status+0x30>
	}

	udc_ep_status = udd_ep_is_halted(udd_g_ctrlreq.req.
    30ac:	4b09      	ldr	r3, [pc, #36]	; (30d4 <udc_req_std_ep_get_status+0x38>)
    30ae:	889b      	ldrh	r3, [r3, #4]
    30b0:	b2db      	uxtb	r3, r3
    30b2:	1c18      	adds	r0, r3, #0
    30b4:	4b08      	ldr	r3, [pc, #32]	; (30d8 <udc_req_std_ep_get_status+0x3c>)
    30b6:	4798      	blx	r3
    30b8:	1c03      	adds	r3, r0, #0
    30ba:	b29a      	uxth	r2, r3
    30bc:	4b07      	ldr	r3, [pc, #28]	; (30dc <udc_req_std_ep_get_status+0x40>)
    30be:	801a      	strh	r2, [r3, #0]
			wIndex & 0xFF) ? CPU_TO_LE16(USB_EP_STATUS_HALTED) : 0;

	udd_set_setup_payload( (uint8_t *) & udc_ep_status,
    30c0:	4b06      	ldr	r3, [pc, #24]	; (30dc <udc_req_std_ep_get_status+0x40>)
    30c2:	1c18      	adds	r0, r3, #0
    30c4:	2102      	movs	r1, #2
    30c6:	4b06      	ldr	r3, [pc, #24]	; (30e0 <udc_req_std_ep_get_status+0x44>)
    30c8:	4798      	blx	r3
			sizeof(udc_ep_status));
	return true;
    30ca:	2301      	movs	r3, #1
}
    30cc:	1c18      	adds	r0, r3, #0
    30ce:	46bd      	mov	sp, r7
    30d0:	bd80      	pop	{r7, pc}
    30d2:	46c0      	nop			; (mov r8, r8)
    30d4:	2000045c 	.word	0x2000045c
    30d8:	000059b9 	.word	0x000059b9
    30dc:	2000013c 	.word	0x2000013c
    30e0:	00005e25 	.word	0x00005e25

000030e4 <udc_req_std_dev_clear_feature>:
 * \brief Standard device request to change device status
 *
 * \return true if success
 */
static bool udc_req_std_dev_clear_feature(void)
{
    30e4:	b580      	push	{r7, lr}
    30e6:	af00      	add	r7, sp, #0
	if (udd_g_ctrlreq.req.wLength) {
    30e8:	4b0c      	ldr	r3, [pc, #48]	; (311c <udc_req_std_dev_clear_feature+0x38>)
    30ea:	88db      	ldrh	r3, [r3, #6]
    30ec:	2b00      	cmp	r3, #0
    30ee:	d001      	beq.n	30f4 <udc_req_std_dev_clear_feature+0x10>
		return false;
    30f0:	2300      	movs	r3, #0
    30f2:	e00f      	b.n	3114 <udc_req_std_dev_clear_feature+0x30>
	}

	if (udd_g_ctrlreq.req.wValue == USB_DEV_FEATURE_REMOTE_WAKEUP) {
    30f4:	4b09      	ldr	r3, [pc, #36]	; (311c <udc_req_std_dev_clear_feature+0x38>)
    30f6:	885b      	ldrh	r3, [r3, #2]
    30f8:	2b01      	cmp	r3, #1
    30fa:	d10a      	bne.n	3112 <udc_req_std_dev_clear_feature+0x2e>
		udc_device_status &= CPU_TO_LE16(~(uint32_t)USB_DEV_STATUS_REMOTEWAKEUP);
    30fc:	4b08      	ldr	r3, [pc, #32]	; (3120 <udc_req_std_dev_clear_feature+0x3c>)
    30fe:	881b      	ldrh	r3, [r3, #0]
    3100:	2202      	movs	r2, #2
    3102:	4393      	bics	r3, r2
    3104:	b29a      	uxth	r2, r3
    3106:	4b06      	ldr	r3, [pc, #24]	; (3120 <udc_req_std_dev_clear_feature+0x3c>)
    3108:	801a      	strh	r2, [r3, #0]
#if (USB_CONFIG_ATTR_REMOTE_WAKEUP \
	== (USB_DEVICE_ATTR & USB_CONFIG_ATTR_REMOTE_WAKEUP))
		UDC_REMOTEWAKEUP_DISABLE();
    310a:	4b06      	ldr	r3, [pc, #24]	; (3124 <udc_req_std_dev_clear_feature+0x40>)
    310c:	4798      	blx	r3
#endif
		return true;
    310e:	2301      	movs	r3, #1
    3110:	e000      	b.n	3114 <udc_req_std_dev_clear_feature+0x30>
	}
	return false;
    3112:	2300      	movs	r3, #0
}
    3114:	1c18      	adds	r0, r3, #0
    3116:	46bd      	mov	sp, r7
    3118:	bd80      	pop	{r7, pc}
    311a:	46c0      	nop			; (mov r8, r8)
    311c:	2000045c 	.word	0x2000045c
    3120:	20000128 	.word	0x20000128
    3124:	000087e9 	.word	0x000087e9

00003128 <udc_req_std_ep_clear_feature>:
 * \brief Standard endpoint request to clear endpoint feature
 *
 * \return true if success
 */
static bool udc_req_std_ep_clear_feature(void)
{
    3128:	b580      	push	{r7, lr}
    312a:	af00      	add	r7, sp, #0
	if (udd_g_ctrlreq.req.wLength) {
    312c:	4b0a      	ldr	r3, [pc, #40]	; (3158 <udc_req_std_ep_clear_feature+0x30>)
    312e:	88db      	ldrh	r3, [r3, #6]
    3130:	2b00      	cmp	r3, #0
    3132:	d001      	beq.n	3138 <udc_req_std_ep_clear_feature+0x10>
		return false;
    3134:	2300      	movs	r3, #0
    3136:	e00c      	b.n	3152 <udc_req_std_ep_clear_feature+0x2a>
	}

	if (udd_g_ctrlreq.req.wValue == USB_EP_FEATURE_HALT) {
    3138:	4b07      	ldr	r3, [pc, #28]	; (3158 <udc_req_std_ep_clear_feature+0x30>)
    313a:	885b      	ldrh	r3, [r3, #2]
    313c:	2b00      	cmp	r3, #0
    313e:	d107      	bne.n	3150 <udc_req_std_ep_clear_feature+0x28>
		return udd_ep_clear_halt(udd_g_ctrlreq.req.wIndex & 0xFF);
    3140:	4b05      	ldr	r3, [pc, #20]	; (3158 <udc_req_std_ep_clear_feature+0x30>)
    3142:	889b      	ldrh	r3, [r3, #4]
    3144:	b2db      	uxtb	r3, r3
    3146:	1c18      	adds	r0, r3, #0
    3148:	4b04      	ldr	r3, [pc, #16]	; (315c <udc_req_std_ep_clear_feature+0x34>)
    314a:	4798      	blx	r3
    314c:	1c03      	adds	r3, r0, #0
    314e:	e000      	b.n	3152 <udc_req_std_ep_clear_feature+0x2a>
	}
	return false;
    3150:	2300      	movs	r3, #0
}
    3152:	1c18      	adds	r0, r3, #0
    3154:	46bd      	mov	sp, r7
    3156:	bd80      	pop	{r7, pc}
    3158:	2000045c 	.word	0x2000045c
    315c:	00005a3d 	.word	0x00005a3d

00003160 <udc_req_std_dev_set_feature>:
 * \brief Standard device request to set a feature
 *
 * \return true if success
 */
static bool udc_req_std_dev_set_feature(void)
{
    3160:	b580      	push	{r7, lr}
    3162:	af00      	add	r7, sp, #0
	if (udd_g_ctrlreq.req.wLength) {
    3164:	4b0c      	ldr	r3, [pc, #48]	; (3198 <udc_req_std_dev_set_feature+0x38>)
    3166:	88db      	ldrh	r3, [r3, #6]
    3168:	2b00      	cmp	r3, #0
    316a:	d001      	beq.n	3170 <udc_req_std_dev_set_feature+0x10>
		return false;
    316c:	2300      	movs	r3, #0
    316e:	e010      	b.n	3192 <udc_req_std_dev_set_feature+0x32>
	}

	switch (udd_g_ctrlreq.req.wValue) {
    3170:	4b09      	ldr	r3, [pc, #36]	; (3198 <udc_req_std_dev_set_feature+0x38>)
    3172:	885b      	ldrh	r3, [r3, #2]
    3174:	2b01      	cmp	r3, #1
    3176:	d002      	beq.n	317e <udc_req_std_dev_set_feature+0x1e>
			break;
		}
		break;
#endif
	default:
		break;
    3178:	46c0      	nop			; (mov r8, r8)
	}
	return false;
    317a:	2300      	movs	r3, #0
    317c:	e009      	b.n	3192 <udc_req_std_dev_set_feature+0x32>
	switch (udd_g_ctrlreq.req.wValue) {

	case USB_DEV_FEATURE_REMOTE_WAKEUP:
#if (USB_CONFIG_ATTR_REMOTE_WAKEUP \
	== (USB_DEVICE_ATTR & USB_CONFIG_ATTR_REMOTE_WAKEUP))
		udc_device_status |= CPU_TO_LE16(USB_DEV_STATUS_REMOTEWAKEUP);
    317e:	4b07      	ldr	r3, [pc, #28]	; (319c <udc_req_std_dev_set_feature+0x3c>)
    3180:	881b      	ldrh	r3, [r3, #0]
    3182:	2202      	movs	r2, #2
    3184:	4313      	orrs	r3, r2
    3186:	b29a      	uxth	r2, r3
    3188:	4b04      	ldr	r3, [pc, #16]	; (319c <udc_req_std_dev_set_feature+0x3c>)
    318a:	801a      	strh	r2, [r3, #0]
		UDC_REMOTEWAKEUP_ENABLE();
    318c:	4b04      	ldr	r3, [pc, #16]	; (31a0 <udc_req_std_dev_set_feature+0x40>)
    318e:	4798      	blx	r3
		return true;
    3190:	2301      	movs	r3, #1
#endif
	default:
		break;
	}
	return false;
}
    3192:	1c18      	adds	r0, r3, #0
    3194:	46bd      	mov	sp, r7
    3196:	bd80      	pop	{r7, pc}
    3198:	2000045c 	.word	0x2000045c
    319c:	20000128 	.word	0x20000128
    31a0:	000087d9 	.word	0x000087d9

000031a4 <udc_req_std_ep_set_feature>:
 *
 * \return true if success
 */
#if (0!=USB_DEVICE_MAX_EP)
static bool udc_req_std_ep_set_feature(void)
{
    31a4:	b580      	push	{r7, lr}
    31a6:	af00      	add	r7, sp, #0
	if (udd_g_ctrlreq.req.wLength) {
    31a8:	4b0d      	ldr	r3, [pc, #52]	; (31e0 <udc_req_std_ep_set_feature+0x3c>)
    31aa:	88db      	ldrh	r3, [r3, #6]
    31ac:	2b00      	cmp	r3, #0
    31ae:	d001      	beq.n	31b4 <udc_req_std_ep_set_feature+0x10>
		return false;
    31b0:	2300      	movs	r3, #0
    31b2:	e012      	b.n	31da <udc_req_std_ep_set_feature+0x36>
	}
	if (udd_g_ctrlreq.req.wValue == USB_EP_FEATURE_HALT) {
    31b4:	4b0a      	ldr	r3, [pc, #40]	; (31e0 <udc_req_std_ep_set_feature+0x3c>)
    31b6:	885b      	ldrh	r3, [r3, #2]
    31b8:	2b00      	cmp	r3, #0
    31ba:	d10d      	bne.n	31d8 <udc_req_std_ep_set_feature+0x34>
		udd_ep_abort(udd_g_ctrlreq.req.wIndex & 0xFF);
    31bc:	4b08      	ldr	r3, [pc, #32]	; (31e0 <udc_req_std_ep_set_feature+0x3c>)
    31be:	889b      	ldrh	r3, [r3, #4]
    31c0:	b2db      	uxtb	r3, r3
    31c2:	1c18      	adds	r0, r3, #0
    31c4:	4b07      	ldr	r3, [pc, #28]	; (31e4 <udc_req_std_ep_set_feature+0x40>)
    31c6:	4798      	blx	r3
		return udd_ep_set_halt(udd_g_ctrlreq.req.wIndex & 0xFF);
    31c8:	4b05      	ldr	r3, [pc, #20]	; (31e0 <udc_req_std_ep_set_feature+0x3c>)
    31ca:	889b      	ldrh	r3, [r3, #4]
    31cc:	b2db      	uxtb	r3, r3
    31ce:	1c18      	adds	r0, r3, #0
    31d0:	4b05      	ldr	r3, [pc, #20]	; (31e8 <udc_req_std_ep_set_feature+0x44>)
    31d2:	4798      	blx	r3
    31d4:	1c03      	adds	r3, r0, #0
    31d6:	e000      	b.n	31da <udc_req_std_ep_set_feature+0x36>
	}
	return false;
    31d8:	2300      	movs	r3, #0
}
    31da:	1c18      	adds	r0, r3, #0
    31dc:	46bd      	mov	sp, r7
    31de:	bd80      	pop	{r7, pc}
    31e0:	2000045c 	.word	0x2000045c
    31e4:	000056ed 	.word	0x000056ed
    31e8:	000059e5 	.word	0x000059e5

000031ec <udc_valid_address>:
/**
 * \brief Change the address of device
 * Callback called at the end of request set address
 */
static void udc_valid_address(void)
{
    31ec:	b580      	push	{r7, lr}
    31ee:	af00      	add	r7, sp, #0
	udd_set_address(udd_g_ctrlreq.req.wValue & 0x7F);
    31f0:	4b05      	ldr	r3, [pc, #20]	; (3208 <udc_valid_address+0x1c>)
    31f2:	885b      	ldrh	r3, [r3, #2]
    31f4:	b2db      	uxtb	r3, r3
    31f6:	227f      	movs	r2, #127	; 0x7f
    31f8:	4013      	ands	r3, r2
    31fa:	b2db      	uxtb	r3, r3
    31fc:	1c18      	adds	r0, r3, #0
    31fe:	4b03      	ldr	r3, [pc, #12]	; (320c <udc_valid_address+0x20>)
    3200:	4798      	blx	r3
}
    3202:	46bd      	mov	sp, r7
    3204:	bd80      	pop	{r7, pc}
    3206:	46c0      	nop			; (mov r8, r8)
    3208:	2000045c 	.word	0x2000045c
    320c:	00005de1 	.word	0x00005de1

00003210 <udc_req_std_dev_set_address>:
 * \brief Standard device request to set device address
 *
 * \return true if success
 */
static bool udc_req_std_dev_set_address(void)
{
    3210:	b580      	push	{r7, lr}
    3212:	af00      	add	r7, sp, #0
	if (udd_g_ctrlreq.req.wLength) {
    3214:	4b06      	ldr	r3, [pc, #24]	; (3230 <udc_req_std_dev_set_address+0x20>)
    3216:	88db      	ldrh	r3, [r3, #6]
    3218:	2b00      	cmp	r3, #0
    321a:	d001      	beq.n	3220 <udc_req_std_dev_set_address+0x10>
		return false;
    321c:	2300      	movs	r3, #0
    321e:	e003      	b.n	3228 <udc_req_std_dev_set_address+0x18>
	}

	// The address must be changed at the end of setup request after the handshake
	// then we use a callback to change address
	udd_g_ctrlreq.callback = udc_valid_address;
    3220:	4b03      	ldr	r3, [pc, #12]	; (3230 <udc_req_std_dev_set_address+0x20>)
    3222:	4a04      	ldr	r2, [pc, #16]	; (3234 <udc_req_std_dev_set_address+0x24>)
    3224:	611a      	str	r2, [r3, #16]
	return true;
    3226:	2301      	movs	r3, #1
}
    3228:	1c18      	adds	r0, r3, #0
    322a:	46bd      	mov	sp, r7
    322c:	bd80      	pop	{r7, pc}
    322e:	46c0      	nop			; (mov r8, r8)
    3230:	2000045c 	.word	0x2000045c
    3234:	000031ed 	.word	0x000031ed

00003238 <udc_req_std_dev_get_str_desc>:
 * \brief Standard device request to get device string descriptor
 *
 * \return true if success
 */
static bool udc_req_std_dev_get_str_desc(void)
{
    3238:	b580      	push	{r7, lr}
    323a:	b084      	sub	sp, #16
    323c:	af00      	add	r7, sp, #0
	uint8_t i;
	const uint8_t *str;
	uint8_t str_length = 0;
    323e:	1dfb      	adds	r3, r7, #7
    3240:	2200      	movs	r2, #0
    3242:	701a      	strb	r2, [r3, #0]

	// Link payload pointer to the string corresponding at request
	switch (udd_g_ctrlreq.req.wValue & 0xff) {
    3244:	4b2c      	ldr	r3, [pc, #176]	; (32f8 <udc_req_std_dev_get_str_desc+0xc0>)
    3246:	885b      	ldrh	r3, [r3, #2]
    3248:	1c1a      	adds	r2, r3, #0
    324a:	23ff      	movs	r3, #255	; 0xff
    324c:	4013      	ands	r3, r2
    324e:	2b01      	cmp	r3, #1
    3250:	d009      	beq.n	3266 <udc_req_std_dev_get_str_desc+0x2e>
    3252:	2b02      	cmp	r3, #2
    3254:	d00d      	beq.n	3272 <udc_req_std_dev_get_str_desc+0x3a>
    3256:	2b00      	cmp	r3, #0
    3258:	d111      	bne.n	327e <udc_req_std_dev_get_str_desc+0x46>
	case 0:
		udd_set_setup_payload((uint8_t *) &udc_string_desc_languageid,
    325a:	4b28      	ldr	r3, [pc, #160]	; (32fc <udc_req_std_dev_get_str_desc+0xc4>)
    325c:	1c18      	adds	r0, r3, #0
    325e:	2104      	movs	r1, #4
    3260:	4b27      	ldr	r3, [pc, #156]	; (3300 <udc_req_std_dev_get_str_desc+0xc8>)
    3262:	4798      	blx	r3
				sizeof(udc_string_desc_languageid));
		break;
    3264:	e00d      	b.n	3282 <udc_req_std_dev_get_str_desc+0x4a>

#ifdef USB_DEVICE_MANUFACTURE_NAME
	case 1:
		str_length = USB_DEVICE_MANUFACTURE_NAME_SIZE;
    3266:	1dfb      	adds	r3, r7, #7
    3268:	2209      	movs	r2, #9
    326a:	701a      	strb	r2, [r3, #0]
		str = udc_string_manufacturer_name;
    326c:	4b25      	ldr	r3, [pc, #148]	; (3304 <udc_req_std_dev_get_str_desc+0xcc>)
    326e:	60bb      	str	r3, [r7, #8]
		break;
    3270:	e007      	b.n	3282 <udc_req_std_dev_get_str_desc+0x4a>
#endif
#ifdef USB_DEVICE_PRODUCT_NAME
	case 2:
		str_length = USB_DEVICE_PRODUCT_NAME_SIZE;
    3272:	1dfb      	adds	r3, r7, #7
    3274:	2209      	movs	r2, #9
    3276:	701a      	strb	r2, [r3, #0]
		str = udc_string_product_name;
    3278:	4b23      	ldr	r3, [pc, #140]	; (3308 <udc_req_std_dev_get_str_desc+0xd0>)
    327a:	60bb      	str	r3, [r7, #8]
		break;
    327c:	e001      	b.n	3282 <udc_req_std_dev_get_str_desc+0x4a>
#ifdef UDC_GET_EXTRA_STRING
		if (UDC_GET_EXTRA_STRING()) {
			break;
		}
#endif
		return false;
    327e:	2300      	movs	r3, #0
    3280:	e036      	b.n	32f0 <udc_req_std_dev_get_str_desc+0xb8>
	}

	if (str_length) {
    3282:	1dfb      	adds	r3, r7, #7
    3284:	781b      	ldrb	r3, [r3, #0]
    3286:	2b00      	cmp	r3, #0
    3288:	d031      	beq.n	32ee <udc_req_std_dev_get_str_desc+0xb6>
		for(i = 0; i < str_length; i++) {
    328a:	230f      	movs	r3, #15
    328c:	18fb      	adds	r3, r7, r3
    328e:	2200      	movs	r2, #0
    3290:	701a      	strb	r2, [r3, #0]
    3292:	e015      	b.n	32c0 <udc_req_std_dev_get_str_desc+0x88>
			udc_string_desc.string[i] = cpu_to_le16((le16_t)str[i]);
    3294:	230f      	movs	r3, #15
    3296:	18fb      	adds	r3, r7, r3
    3298:	781b      	ldrb	r3, [r3, #0]
    329a:	220f      	movs	r2, #15
    329c:	18ba      	adds	r2, r7, r2
    329e:	7812      	ldrb	r2, [r2, #0]
    32a0:	68b9      	ldr	r1, [r7, #8]
    32a2:	188a      	adds	r2, r1, r2
    32a4:	7812      	ldrb	r2, [r2, #0]
    32a6:	b291      	uxth	r1, r2
    32a8:	4a18      	ldr	r2, [pc, #96]	; (330c <udc_req_std_dev_get_str_desc+0xd4>)
    32aa:	005b      	lsls	r3, r3, #1
    32ac:	18d3      	adds	r3, r2, r3
    32ae:	1c0a      	adds	r2, r1, #0
    32b0:	805a      	strh	r2, [r3, #2]
#endif
		return false;
	}

	if (str_length) {
		for(i = 0; i < str_length; i++) {
    32b2:	230f      	movs	r3, #15
    32b4:	18fb      	adds	r3, r7, r3
    32b6:	781a      	ldrb	r2, [r3, #0]
    32b8:	230f      	movs	r3, #15
    32ba:	18fb      	adds	r3, r7, r3
    32bc:	3201      	adds	r2, #1
    32be:	701a      	strb	r2, [r3, #0]
    32c0:	230f      	movs	r3, #15
    32c2:	18fa      	adds	r2, r7, r3
    32c4:	1dfb      	adds	r3, r7, #7
    32c6:	7812      	ldrb	r2, [r2, #0]
    32c8:	781b      	ldrb	r3, [r3, #0]
    32ca:	429a      	cmp	r2, r3
    32cc:	d3e2      	bcc.n	3294 <udc_req_std_dev_get_str_desc+0x5c>
			udc_string_desc.string[i] = cpu_to_le16((le16_t)str[i]);
		}

		udc_string_desc.header.bLength = 2 + (str_length) * 2;
    32ce:	1dfb      	adds	r3, r7, #7
    32d0:	781b      	ldrb	r3, [r3, #0]
    32d2:	3301      	adds	r3, #1
    32d4:	b2db      	uxtb	r3, r3
    32d6:	18db      	adds	r3, r3, r3
    32d8:	b2da      	uxtb	r2, r3
    32da:	4b0c      	ldr	r3, [pc, #48]	; (330c <udc_req_std_dev_get_str_desc+0xd4>)
    32dc:	701a      	strb	r2, [r3, #0]
		udd_set_setup_payload(
			(uint8_t *) &udc_string_desc,
			udc_string_desc.header.bLength);
    32de:	4b0b      	ldr	r3, [pc, #44]	; (330c <udc_req_std_dev_get_str_desc+0xd4>)
    32e0:	781b      	ldrb	r3, [r3, #0]
		for(i = 0; i < str_length; i++) {
			udc_string_desc.string[i] = cpu_to_le16((le16_t)str[i]);
		}

		udc_string_desc.header.bLength = 2 + (str_length) * 2;
		udd_set_setup_payload(
    32e2:	b29b      	uxth	r3, r3
    32e4:	4a09      	ldr	r2, [pc, #36]	; (330c <udc_req_std_dev_get_str_desc+0xd4>)
    32e6:	1c10      	adds	r0, r2, #0
    32e8:	1c19      	adds	r1, r3, #0
    32ea:	4b05      	ldr	r3, [pc, #20]	; (3300 <udc_req_std_dev_get_str_desc+0xc8>)
    32ec:	4798      	blx	r3
			(uint8_t *) &udc_string_desc,
			udc_string_desc.header.bLength);
	}

	return true;
    32ee:	2301      	movs	r3, #1
}
    32f0:	1c18      	adds	r0, r3, #0
    32f2:	46bd      	mov	sp, r7
    32f4:	b004      	add	sp, #16
    32f6:	bd80      	pop	{r7, pc}
    32f8:	2000045c 	.word	0x2000045c
    32fc:	200000a8 	.word	0x200000a8
    3300:	00005e25 	.word	0x00005e25
    3304:	200000ac 	.word	0x200000ac
    3308:	200000b8 	.word	0x200000b8
    330c:	200000c4 	.word	0x200000c4

00003310 <udc_req_std_dev_get_descriptor>:
 * \brief Standard device request to get descriptors about USB device
 *
 * \return true if success
 */
static bool udc_req_std_dev_get_descriptor(void)
{
    3310:	b580      	push	{r7, lr}
    3312:	b082      	sub	sp, #8
    3314:	af00      	add	r7, sp, #0
	uint8_t conf_num;

	conf_num = udd_g_ctrlreq.req.wValue & 0xff;
    3316:	4b3a      	ldr	r3, [pc, #232]	; (3400 <udc_req_std_dev_get_descriptor+0xf0>)
    3318:	885a      	ldrh	r2, [r3, #2]
    331a:	1dfb      	adds	r3, r7, #7
    331c:	701a      	strb	r2, [r3, #0]

	// Check descriptor ID
	switch ((uint8_t) (udd_g_ctrlreq.req.wValue >> 8)) {
    331e:	4b38      	ldr	r3, [pc, #224]	; (3400 <udc_req_std_dev_get_descriptor+0xf0>)
    3320:	885b      	ldrh	r3, [r3, #2]
    3322:	0a1b      	lsrs	r3, r3, #8
    3324:	b29b      	uxth	r3, r3
    3326:	b2db      	uxtb	r3, r3
    3328:	2b02      	cmp	r3, #2
    332a:	d013      	beq.n	3354 <udc_req_std_dev_get_descriptor+0x44>
    332c:	dc02      	bgt.n	3334 <udc_req_std_dev_get_descriptor+0x24>
    332e:	2b01      	cmp	r3, #1
    3330:	d005      	beq.n	333e <udc_req_std_dev_get_descriptor+0x2e>
    3332:	e054      	b.n	33de <udc_req_std_dev_get_descriptor+0xce>
    3334:	2b03      	cmp	r3, #3
    3336:	d046      	beq.n	33c6 <udc_req_std_dev_get_descriptor+0xb6>
    3338:	2b0f      	cmp	r3, #15
    333a:	d030      	beq.n	339e <udc_req_std_dev_get_descriptor+0x8e>
    333c:	e04f      	b.n	33de <udc_req_std_dev_get_descriptor+0xce>
				udc_config.confdev_hs->bLength);
		} else
#endif
		{
			udd_set_setup_payload(
				(uint8_t *) udc_config.confdev_lsfs,
    333e:	4b31      	ldr	r3, [pc, #196]	; (3404 <udc_req_std_dev_get_descriptor+0xf4>)
    3340:	681a      	ldr	r2, [r3, #0]
				udc_config.confdev_lsfs->bLength);
    3342:	4b30      	ldr	r3, [pc, #192]	; (3404 <udc_req_std_dev_get_descriptor+0xf4>)
    3344:	681b      	ldr	r3, [r3, #0]
    3346:	781b      	ldrb	r3, [r3, #0]
				(uint8_t *) udc_config.confdev_hs,
				udc_config.confdev_hs->bLength);
		} else
#endif
		{
			udd_set_setup_payload(
    3348:	b29b      	uxth	r3, r3
    334a:	1c10      	adds	r0, r2, #0
    334c:	1c19      	adds	r1, r3, #0
    334e:	4b2e      	ldr	r3, [pc, #184]	; (3408 <udc_req_std_dev_get_descriptor+0xf8>)
    3350:	4798      	blx	r3
				(uint8_t *) udc_config.confdev_lsfs,
				udc_config.confdev_lsfs->bLength);
		}
		break;
    3352:	e046      	b.n	33e2 <udc_req_std_dev_get_descriptor+0xd2>
				le16_to_cpu(udc_config.conf_hs[conf_num].desc->wTotalLength));
		} else
#endif
		{
			// FS descriptor
			if (conf_num >= udc_config.confdev_lsfs->
    3354:	4b2b      	ldr	r3, [pc, #172]	; (3404 <udc_req_std_dev_get_descriptor+0xf4>)
    3356:	681b      	ldr	r3, [r3, #0]
    3358:	7c5b      	ldrb	r3, [r3, #17]
    335a:	1dfa      	adds	r2, r7, #7
    335c:	7812      	ldrb	r2, [r2, #0]
    335e:	429a      	cmp	r2, r3
    3360:	d301      	bcc.n	3366 <udc_req_std_dev_get_descriptor+0x56>
					bNumConfigurations) {
				return false;
    3362:	2300      	movs	r3, #0
    3364:	e048      	b.n	33f8 <udc_req_std_dev_get_descriptor+0xe8>
			}
			udd_set_setup_payload(
				(uint8_t *)udc_config.conf_lsfs[conf_num].desc,
    3366:	4b27      	ldr	r3, [pc, #156]	; (3404 <udc_req_std_dev_get_descriptor+0xf4>)
    3368:	685a      	ldr	r2, [r3, #4]
    336a:	1dfb      	adds	r3, r7, #7
    336c:	781b      	ldrb	r3, [r3, #0]
    336e:	00db      	lsls	r3, r3, #3
    3370:	18d3      	adds	r3, r2, r3
    3372:	6819      	ldr	r1, [r3, #0]
				le16_to_cpu(udc_config.conf_lsfs[conf_num].desc->wTotalLength));
    3374:	4b23      	ldr	r3, [pc, #140]	; (3404 <udc_req_std_dev_get_descriptor+0xf4>)
    3376:	685a      	ldr	r2, [r3, #4]
    3378:	1dfb      	adds	r3, r7, #7
    337a:	781b      	ldrb	r3, [r3, #0]
    337c:	00db      	lsls	r3, r3, #3
    337e:	18d3      	adds	r3, r2, r3
    3380:	681b      	ldr	r3, [r3, #0]
			// FS descriptor
			if (conf_num >= udc_config.confdev_lsfs->
					bNumConfigurations) {
				return false;
			}
			udd_set_setup_payload(
    3382:	789a      	ldrb	r2, [r3, #2]
    3384:	78db      	ldrb	r3, [r3, #3]
    3386:	021b      	lsls	r3, r3, #8
    3388:	4313      	orrs	r3, r2
    338a:	b29b      	uxth	r3, r3
    338c:	1c08      	adds	r0, r1, #0
    338e:	1c19      	adds	r1, r3, #0
    3390:	4b1d      	ldr	r3, [pc, #116]	; (3408 <udc_req_std_dev_get_descriptor+0xf8>)
    3392:	4798      	blx	r3
				(uint8_t *)udc_config.conf_lsfs[conf_num].desc,
				le16_to_cpu(udc_config.conf_lsfs[conf_num].desc->wTotalLength));
		}
		((usb_conf_desc_t *) udd_g_ctrlreq.payload)->bDescriptorType =
    3394:	4b1a      	ldr	r3, [pc, #104]	; (3400 <udc_req_std_dev_get_descriptor+0xf0>)
    3396:	689b      	ldr	r3, [r3, #8]
    3398:	2202      	movs	r2, #2
    339a:	705a      	strb	r2, [r3, #1]
				USB_DT_CONFIGURATION;
		break;
    339c:	e021      	b.n	33e2 <udc_req_std_dev_get_descriptor+0xd2>
		break;
#endif

	case USB_DT_BOS:
		// Device BOS descriptor requested
		if (udc_config.conf_bos == NULL) {
    339e:	4b19      	ldr	r3, [pc, #100]	; (3404 <udc_req_std_dev_get_descriptor+0xf4>)
    33a0:	689b      	ldr	r3, [r3, #8]
    33a2:	2b00      	cmp	r3, #0
    33a4:	d101      	bne.n	33aa <udc_req_std_dev_get_descriptor+0x9a>
			return false;
    33a6:	2300      	movs	r3, #0
    33a8:	e026      	b.n	33f8 <udc_req_std_dev_get_descriptor+0xe8>
		}
		udd_set_setup_payload( (uint8_t *) udc_config.conf_bos,
    33aa:	4b16      	ldr	r3, [pc, #88]	; (3404 <udc_req_std_dev_get_descriptor+0xf4>)
    33ac:	6899      	ldr	r1, [r3, #8]
				udc_config.conf_bos->wTotalLength);
    33ae:	4b15      	ldr	r3, [pc, #84]	; (3404 <udc_req_std_dev_get_descriptor+0xf4>)
    33b0:	689b      	ldr	r3, [r3, #8]
	case USB_DT_BOS:
		// Device BOS descriptor requested
		if (udc_config.conf_bos == NULL) {
			return false;
		}
		udd_set_setup_payload( (uint8_t *) udc_config.conf_bos,
    33b2:	789a      	ldrb	r2, [r3, #2]
    33b4:	78db      	ldrb	r3, [r3, #3]
    33b6:	021b      	lsls	r3, r3, #8
    33b8:	4313      	orrs	r3, r2
    33ba:	b29b      	uxth	r3, r3
    33bc:	1c08      	adds	r0, r1, #0
    33be:	1c19      	adds	r1, r3, #0
    33c0:	4b11      	ldr	r3, [pc, #68]	; (3408 <udc_req_std_dev_get_descriptor+0xf8>)
    33c2:	4798      	blx	r3
				udc_config.conf_bos->wTotalLength);
		break;
    33c4:	e00d      	b.n	33e2 <udc_req_std_dev_get_descriptor+0xd2>

	case USB_DT_STRING:
		// String descriptor requested
		if (!udc_req_std_dev_get_str_desc()) {
    33c6:	4b11      	ldr	r3, [pc, #68]	; (340c <udc_req_std_dev_get_descriptor+0xfc>)
    33c8:	4798      	blx	r3
    33ca:	1c03      	adds	r3, r0, #0
    33cc:	1c1a      	adds	r2, r3, #0
    33ce:	2301      	movs	r3, #1
    33d0:	4053      	eors	r3, r2
    33d2:	b2db      	uxtb	r3, r3
    33d4:	2b00      	cmp	r3, #0
    33d6:	d001      	beq.n	33dc <udc_req_std_dev_get_descriptor+0xcc>
			return false;
    33d8:	2300      	movs	r3, #0
    33da:	e00d      	b.n	33f8 <udc_req_std_dev_get_descriptor+0xe8>
		}
		break;
    33dc:	e001      	b.n	33e2 <udc_req_std_dev_get_descriptor+0xd2>

	default:
		// Unknown descriptor requested
		return false;
    33de:	2300      	movs	r3, #0
    33e0:	e00a      	b.n	33f8 <udc_req_std_dev_get_descriptor+0xe8>
	}
	// if the descriptor is larger than length requested, then reduce it
	if (udd_g_ctrlreq.req.wLength < udd_g_ctrlreq.payload_size) {
    33e2:	4b07      	ldr	r3, [pc, #28]	; (3400 <udc_req_std_dev_get_descriptor+0xf0>)
    33e4:	88da      	ldrh	r2, [r3, #6]
    33e6:	4b06      	ldr	r3, [pc, #24]	; (3400 <udc_req_std_dev_get_descriptor+0xf0>)
    33e8:	899b      	ldrh	r3, [r3, #12]
    33ea:	429a      	cmp	r2, r3
    33ec:	d203      	bcs.n	33f6 <udc_req_std_dev_get_descriptor+0xe6>
		udd_g_ctrlreq.payload_size = udd_g_ctrlreq.req.wLength;
    33ee:	4b04      	ldr	r3, [pc, #16]	; (3400 <udc_req_std_dev_get_descriptor+0xf0>)
    33f0:	88da      	ldrh	r2, [r3, #6]
    33f2:	4b03      	ldr	r3, [pc, #12]	; (3400 <udc_req_std_dev_get_descriptor+0xf0>)
    33f4:	819a      	strh	r2, [r3, #12]
	}
	return true;
    33f6:	2301      	movs	r3, #1
}
    33f8:	1c18      	adds	r0, r3, #0
    33fa:	46bd      	mov	sp, r7
    33fc:	b002      	add	sp, #8
    33fe:	bd80      	pop	{r7, pc}
    3400:	2000045c 	.word	0x2000045c
    3404:	2000009c 	.word	0x2000009c
    3408:	00005e25 	.word	0x00005e25
    340c:	00003239 	.word	0x00003239

00003410 <udc_req_std_dev_get_configuration>:
 * \brief Standard device request to get configuration number
 *
 * \return true if success
 */
static bool udc_req_std_dev_get_configuration(void)
{
    3410:	b580      	push	{r7, lr}
    3412:	af00      	add	r7, sp, #0
	if (udd_g_ctrlreq.req.wLength != 1) {
    3414:	4b07      	ldr	r3, [pc, #28]	; (3434 <udc_req_std_dev_get_configuration+0x24>)
    3416:	88db      	ldrh	r3, [r3, #6]
    3418:	2b01      	cmp	r3, #1
    341a:	d001      	beq.n	3420 <udc_req_std_dev_get_configuration+0x10>
		return false;
    341c:	2300      	movs	r3, #0
    341e:	e005      	b.n	342c <udc_req_std_dev_get_configuration+0x1c>
	}

	udd_set_setup_payload(&udc_num_configuration,1);
    3420:	4b05      	ldr	r3, [pc, #20]	; (3438 <udc_req_std_dev_get_configuration+0x28>)
    3422:	1c18      	adds	r0, r3, #0
    3424:	2101      	movs	r1, #1
    3426:	4b05      	ldr	r3, [pc, #20]	; (343c <udc_req_std_dev_get_configuration+0x2c>)
    3428:	4798      	blx	r3
	return true;
    342a:	2301      	movs	r3, #1
}
    342c:	1c18      	adds	r0, r3, #0
    342e:	46bd      	mov	sp, r7
    3430:	bd80      	pop	{r7, pc}
    3432:	46c0      	nop			; (mov r8, r8)
    3434:	2000045c 	.word	0x2000045c
    3438:	20000130 	.word	0x20000130
    343c:	00005e25 	.word	0x00005e25

00003440 <udc_req_std_dev_set_configuration>:
 * \brief Standard device request to enable a configuration
 *
 * \return true if success
 */
static bool udc_req_std_dev_set_configuration(void)
{
    3440:	b580      	push	{r7, lr}
    3442:	b082      	sub	sp, #8
    3444:	af00      	add	r7, sp, #0
	uint8_t iface_num;

	// Check request length
	if (udd_g_ctrlreq.req.wLength) {
    3446:	4b2a      	ldr	r3, [pc, #168]	; (34f0 <udc_req_std_dev_set_configuration+0xb0>)
    3448:	88db      	ldrh	r3, [r3, #6]
    344a:	2b00      	cmp	r3, #0
    344c:	d001      	beq.n	3452 <udc_req_std_dev_set_configuration+0x12>
		return false;
    344e:	2300      	movs	r3, #0
    3450:	e04a      	b.n	34e8 <udc_req_std_dev_set_configuration+0xa8>
	}
	// Authorize configuration only if the address is valid
	if (!udd_getaddress()) {
    3452:	4b28      	ldr	r3, [pc, #160]	; (34f4 <udc_req_std_dev_set_configuration+0xb4>)
    3454:	4798      	blx	r3
    3456:	1e03      	subs	r3, r0, #0
    3458:	d101      	bne.n	345e <udc_req_std_dev_set_configuration+0x1e>
		return false;
    345a:	2300      	movs	r3, #0
    345c:	e044      	b.n	34e8 <udc_req_std_dev_set_configuration+0xa8>
		}
	} else
#endif
	{
		// FS descriptor
		if ((udd_g_ctrlreq.req.wValue & 0xFF) >
    345e:	4b24      	ldr	r3, [pc, #144]	; (34f0 <udc_req_std_dev_set_configuration+0xb0>)
    3460:	885b      	ldrh	r3, [r3, #2]
    3462:	1c1a      	adds	r2, r3, #0
    3464:	23ff      	movs	r3, #255	; 0xff
    3466:	401a      	ands	r2, r3
				udc_config.confdev_lsfs->bNumConfigurations) {
    3468:	4b23      	ldr	r3, [pc, #140]	; (34f8 <udc_req_std_dev_set_configuration+0xb8>)
    346a:	681b      	ldr	r3, [r3, #0]
    346c:	7c5b      	ldrb	r3, [r3, #17]
		}
	} else
#endif
	{
		// FS descriptor
		if ((udd_g_ctrlreq.req.wValue & 0xFF) >
    346e:	429a      	cmp	r2, r3
    3470:	dd01      	ble.n	3476 <udc_req_std_dev_set_configuration+0x36>
				udc_config.confdev_lsfs->bNumConfigurations) {
			return false;
    3472:	2300      	movs	r3, #0
    3474:	e038      	b.n	34e8 <udc_req_std_dev_set_configuration+0xa8>
		}
	}

	// Reset current configuration
	udc_reset();
    3476:	4b21      	ldr	r3, [pc, #132]	; (34fc <udc_req_std_dev_set_configuration+0xbc>)
    3478:	4798      	blx	r3

	// Enable new configuration
	udc_num_configuration = udd_g_ctrlreq.req.wValue & 0xFF;
    347a:	4b1d      	ldr	r3, [pc, #116]	; (34f0 <udc_req_std_dev_set_configuration+0xb0>)
    347c:	885b      	ldrh	r3, [r3, #2]
    347e:	b2da      	uxtb	r2, r3
    3480:	4b1f      	ldr	r3, [pc, #124]	; (3500 <udc_req_std_dev_set_configuration+0xc0>)
    3482:	701a      	strb	r2, [r3, #0]
	if (udc_num_configuration == 0) {
    3484:	4b1e      	ldr	r3, [pc, #120]	; (3500 <udc_req_std_dev_set_configuration+0xc0>)
    3486:	781b      	ldrb	r3, [r3, #0]
    3488:	2b00      	cmp	r3, #0
    348a:	d101      	bne.n	3490 <udc_req_std_dev_set_configuration+0x50>
		return true; // Default empty configuration requested
    348c:	2301      	movs	r3, #1
    348e:	e02b      	b.n	34e8 <udc_req_std_dev_set_configuration+0xa8>
		udc_ptr_conf = &udc_config.conf_hs[udc_num_configuration - 1];
	} else
#endif
	{
		// FS descriptor
		udc_ptr_conf = &udc_config.conf_lsfs[udc_num_configuration - 1];
    3490:	4b19      	ldr	r3, [pc, #100]	; (34f8 <udc_req_std_dev_set_configuration+0xb8>)
    3492:	685a      	ldr	r2, [r3, #4]
    3494:	4b1a      	ldr	r3, [pc, #104]	; (3500 <udc_req_std_dev_set_configuration+0xc0>)
    3496:	781b      	ldrb	r3, [r3, #0]
    3498:	491a      	ldr	r1, [pc, #104]	; (3504 <udc_req_std_dev_set_configuration+0xc4>)
    349a:	468c      	mov	ip, r1
    349c:	4463      	add	r3, ip
    349e:	00db      	lsls	r3, r3, #3
    34a0:	18d2      	adds	r2, r2, r3
    34a2:	4b19      	ldr	r3, [pc, #100]	; (3508 <udc_req_std_dev_set_configuration+0xc8>)
    34a4:	601a      	str	r2, [r3, #0]
	}
	// Enable all interfaces of the selected configuration
	for (iface_num = 0; iface_num < udc_ptr_conf->desc->bNumInterfaces;
    34a6:	1dfb      	adds	r3, r7, #7
    34a8:	2200      	movs	r2, #0
    34aa:	701a      	strb	r2, [r3, #0]
    34ac:	e013      	b.n	34d6 <udc_req_std_dev_set_configuration+0x96>
			iface_num++) {
		if (!udc_iface_enable(iface_num, 0)) {
    34ae:	1dfb      	adds	r3, r7, #7
    34b0:	781b      	ldrb	r3, [r3, #0]
    34b2:	1c18      	adds	r0, r3, #0
    34b4:	2100      	movs	r1, #0
    34b6:	4b15      	ldr	r3, [pc, #84]	; (350c <udc_req_std_dev_set_configuration+0xcc>)
    34b8:	4798      	blx	r3
    34ba:	1c03      	adds	r3, r0, #0
    34bc:	1c1a      	adds	r2, r3, #0
    34be:	2301      	movs	r3, #1
    34c0:	4053      	eors	r3, r2
    34c2:	b2db      	uxtb	r3, r3
    34c4:	2b00      	cmp	r3, #0
    34c6:	d001      	beq.n	34cc <udc_req_std_dev_set_configuration+0x8c>
			return false;
    34c8:	2300      	movs	r3, #0
    34ca:	e00d      	b.n	34e8 <udc_req_std_dev_set_configuration+0xa8>
		// FS descriptor
		udc_ptr_conf = &udc_config.conf_lsfs[udc_num_configuration - 1];
	}
	// Enable all interfaces of the selected configuration
	for (iface_num = 0; iface_num < udc_ptr_conf->desc->bNumInterfaces;
			iface_num++) {
    34cc:	1dfb      	adds	r3, r7, #7
    34ce:	781a      	ldrb	r2, [r3, #0]
    34d0:	1dfb      	adds	r3, r7, #7
    34d2:	3201      	adds	r2, #1
    34d4:	701a      	strb	r2, [r3, #0]
	{
		// FS descriptor
		udc_ptr_conf = &udc_config.conf_lsfs[udc_num_configuration - 1];
	}
	// Enable all interfaces of the selected configuration
	for (iface_num = 0; iface_num < udc_ptr_conf->desc->bNumInterfaces;
    34d6:	4b0c      	ldr	r3, [pc, #48]	; (3508 <udc_req_std_dev_set_configuration+0xc8>)
    34d8:	681b      	ldr	r3, [r3, #0]
    34da:	681b      	ldr	r3, [r3, #0]
    34dc:	791b      	ldrb	r3, [r3, #4]
    34de:	1dfa      	adds	r2, r7, #7
    34e0:	7812      	ldrb	r2, [r2, #0]
    34e2:	429a      	cmp	r2, r3
    34e4:	d3e3      	bcc.n	34ae <udc_req_std_dev_set_configuration+0x6e>
			iface_num++) {
		if (!udc_iface_enable(iface_num, 0)) {
			return false;
		}
	}
	return true;
    34e6:	2301      	movs	r3, #1
}
    34e8:	1c18      	adds	r0, r3, #0
    34ea:	46bd      	mov	sp, r7
    34ec:	b002      	add	sp, #8
    34ee:	bd80      	pop	{r7, pc}
    34f0:	2000045c 	.word	0x2000045c
    34f4:	00005e09 	.word	0x00005e09
    34f8:	2000009c 	.word	0x2000009c
    34fc:	00002f91 	.word	0x00002f91
    3500:	20000130 	.word	0x20000130
    3504:	1fffffff 	.word	0x1fffffff
    3508:	20000134 	.word	0x20000134
    350c:	00002ecd 	.word	0x00002ecd

00003510 <udc_req_std_iface_get_setting>:
 * to get the alternate setting number of an interface
 *
 * \return true if success
 */
static bool udc_req_std_iface_get_setting(void)
{
    3510:	b580      	push	{r7, lr}
    3512:	b082      	sub	sp, #8
    3514:	af00      	add	r7, sp, #0
	uint8_t iface_num;
	udi_api_t UDC_DESC_STORAGE *udi_api;

	if (udd_g_ctrlreq.req.wLength != 1) {
    3516:	4b21      	ldr	r3, [pc, #132]	; (359c <udc_req_std_iface_get_setting+0x8c>)
    3518:	88db      	ldrh	r3, [r3, #6]
    351a:	2b01      	cmp	r3, #1
    351c:	d001      	beq.n	3522 <udc_req_std_iface_get_setting+0x12>
		return false; // Error in request
    351e:	2300      	movs	r3, #0
    3520:	e038      	b.n	3594 <udc_req_std_iface_get_setting+0x84>
	}
	if (!udc_num_configuration) {
    3522:	4b1f      	ldr	r3, [pc, #124]	; (35a0 <udc_req_std_iface_get_setting+0x90>)
    3524:	781b      	ldrb	r3, [r3, #0]
    3526:	2b00      	cmp	r3, #0
    3528:	d101      	bne.n	352e <udc_req_std_iface_get_setting+0x1e>
		return false; // The device is not is configured state yet
    352a:	2300      	movs	r3, #0
    352c:	e032      	b.n	3594 <udc_req_std_iface_get_setting+0x84>
	}

	// Check the interface number included in the request
	iface_num = udd_g_ctrlreq.req.wIndex & 0xFF;
    352e:	4b1b      	ldr	r3, [pc, #108]	; (359c <udc_req_std_iface_get_setting+0x8c>)
    3530:	889a      	ldrh	r2, [r3, #4]
    3532:	1dfb      	adds	r3, r7, #7
    3534:	701a      	strb	r2, [r3, #0]
	if (iface_num >= udc_ptr_conf->desc->bNumInterfaces) {
    3536:	4b1b      	ldr	r3, [pc, #108]	; (35a4 <udc_req_std_iface_get_setting+0x94>)
    3538:	681b      	ldr	r3, [r3, #0]
    353a:	681b      	ldr	r3, [r3, #0]
    353c:	791b      	ldrb	r3, [r3, #4]
    353e:	1dfa      	adds	r2, r7, #7
    3540:	7812      	ldrb	r2, [r2, #0]
    3542:	429a      	cmp	r2, r3
    3544:	d301      	bcc.n	354a <udc_req_std_iface_get_setting+0x3a>
		return false;
    3546:	2300      	movs	r3, #0
    3548:	e024      	b.n	3594 <udc_req_std_iface_get_setting+0x84>
	}

	// Select first alternate setting of the interface to update udc_ptr_iface
	// before call iface->getsetting()
	if (!udc_update_iface_desc(iface_num, 0)) {
    354a:	1dfb      	adds	r3, r7, #7
    354c:	781b      	ldrb	r3, [r3, #0]
    354e:	1c18      	adds	r0, r3, #0
    3550:	2100      	movs	r1, #0
    3552:	4b15      	ldr	r3, [pc, #84]	; (35a8 <udc_req_std_iface_get_setting+0x98>)
    3554:	4798      	blx	r3
    3556:	1c03      	adds	r3, r0, #0
    3558:	1c1a      	adds	r2, r3, #0
    355a:	2301      	movs	r3, #1
    355c:	4053      	eors	r3, r2
    355e:	b2db      	uxtb	r3, r3
    3560:	2b00      	cmp	r3, #0
    3562:	d001      	beq.n	3568 <udc_req_std_iface_get_setting+0x58>
		return false;
    3564:	2300      	movs	r3, #0
    3566:	e015      	b.n	3594 <udc_req_std_iface_get_setting+0x84>
	}
	// Get alternate setting from UDI
	udi_api = udc_ptr_conf->udi_apis[iface_num];
    3568:	4b0e      	ldr	r3, [pc, #56]	; (35a4 <udc_req_std_iface_get_setting+0x94>)
    356a:	681b      	ldr	r3, [r3, #0]
    356c:	685a      	ldr	r2, [r3, #4]
    356e:	1dfb      	adds	r3, r7, #7
    3570:	781b      	ldrb	r3, [r3, #0]
    3572:	009b      	lsls	r3, r3, #2
    3574:	18d3      	adds	r3, r2, r3
    3576:	681b      	ldr	r3, [r3, #0]
    3578:	603b      	str	r3, [r7, #0]
	udc_iface_setting = udi_api->getsetting();
    357a:	683b      	ldr	r3, [r7, #0]
    357c:	68db      	ldr	r3, [r3, #12]
    357e:	4798      	blx	r3
    3580:	1c03      	adds	r3, r0, #0
    3582:	1c1a      	adds	r2, r3, #0
    3584:	4b09      	ldr	r3, [pc, #36]	; (35ac <udc_req_std_iface_get_setting+0x9c>)
    3586:	701a      	strb	r2, [r3, #0]

	// Link value to payload pointer of request
	udd_set_setup_payload(&udc_iface_setting,1);
    3588:	4b08      	ldr	r3, [pc, #32]	; (35ac <udc_req_std_iface_get_setting+0x9c>)
    358a:	1c18      	adds	r0, r3, #0
    358c:	2101      	movs	r1, #1
    358e:	4b08      	ldr	r3, [pc, #32]	; (35b0 <udc_req_std_iface_get_setting+0xa0>)
    3590:	4798      	blx	r3
	return true;
    3592:	2301      	movs	r3, #1
}
    3594:	1c18      	adds	r0, r3, #0
    3596:	46bd      	mov	sp, r7
    3598:	b002      	add	sp, #8
    359a:	bd80      	pop	{r7, pc}
    359c:	2000045c 	.word	0x2000045c
    35a0:	20000130 	.word	0x20000130
    35a4:	20000134 	.word	0x20000134
    35a8:	00002d75 	.word	0x00002d75
    35ac:	2000012c 	.word	0x2000012c
    35b0:	00005e25 	.word	0x00005e25

000035b4 <udc_req_std_iface_set_setting>:
 * to set an alternate setting of an interface
 *
 * \return true if success
 */
static bool udc_req_std_iface_set_setting(void)
{
    35b4:	b580      	push	{r7, lr}
    35b6:	b082      	sub	sp, #8
    35b8:	af00      	add	r7, sp, #0
	uint8_t iface_num, setting_num;

	if (udd_g_ctrlreq.req.wLength) {
    35ba:	4b17      	ldr	r3, [pc, #92]	; (3618 <udc_req_std_iface_set_setting+0x64>)
    35bc:	88db      	ldrh	r3, [r3, #6]
    35be:	2b00      	cmp	r3, #0
    35c0:	d001      	beq.n	35c6 <udc_req_std_iface_set_setting+0x12>
		return false; // Error in request
    35c2:	2300      	movs	r3, #0
    35c4:	e024      	b.n	3610 <udc_req_std_iface_set_setting+0x5c>
	}
	if (!udc_num_configuration) {
    35c6:	4b15      	ldr	r3, [pc, #84]	; (361c <udc_req_std_iface_set_setting+0x68>)
    35c8:	781b      	ldrb	r3, [r3, #0]
    35ca:	2b00      	cmp	r3, #0
    35cc:	d101      	bne.n	35d2 <udc_req_std_iface_set_setting+0x1e>
		return false; // The device is not is configured state yet
    35ce:	2300      	movs	r3, #0
    35d0:	e01e      	b.n	3610 <udc_req_std_iface_set_setting+0x5c>
	}

	iface_num = udd_g_ctrlreq.req.wIndex & 0xFF;
    35d2:	4b11      	ldr	r3, [pc, #68]	; (3618 <udc_req_std_iface_set_setting+0x64>)
    35d4:	889a      	ldrh	r2, [r3, #4]
    35d6:	1dfb      	adds	r3, r7, #7
    35d8:	701a      	strb	r2, [r3, #0]
	setting_num = udd_g_ctrlreq.req.wValue & 0xFF;
    35da:	4b0f      	ldr	r3, [pc, #60]	; (3618 <udc_req_std_iface_set_setting+0x64>)
    35dc:	885a      	ldrh	r2, [r3, #2]
    35de:	1dbb      	adds	r3, r7, #6
    35e0:	701a      	strb	r2, [r3, #0]

	// Disable current setting
	if (!udc_iface_disable(iface_num)) {
    35e2:	1dfb      	adds	r3, r7, #7
    35e4:	781b      	ldrb	r3, [r3, #0]
    35e6:	1c18      	adds	r0, r3, #0
    35e8:	4b0d      	ldr	r3, [pc, #52]	; (3620 <udc_req_std_iface_set_setting+0x6c>)
    35ea:	4798      	blx	r3
    35ec:	1c03      	adds	r3, r0, #0
    35ee:	1c1a      	adds	r2, r3, #0
    35f0:	2301      	movs	r3, #1
    35f2:	4053      	eors	r3, r2
    35f4:	b2db      	uxtb	r3, r3
    35f6:	2b00      	cmp	r3, #0
    35f8:	d001      	beq.n	35fe <udc_req_std_iface_set_setting+0x4a>
		return false;
    35fa:	2300      	movs	r3, #0
    35fc:	e008      	b.n	3610 <udc_req_std_iface_set_setting+0x5c>
	}

	// Enable new setting
	return udc_iface_enable(iface_num, setting_num);
    35fe:	1dfb      	adds	r3, r7, #7
    3600:	781a      	ldrb	r2, [r3, #0]
    3602:	1dbb      	adds	r3, r7, #6
    3604:	781b      	ldrb	r3, [r3, #0]
    3606:	1c10      	adds	r0, r2, #0
    3608:	1c19      	adds	r1, r3, #0
    360a:	4b06      	ldr	r3, [pc, #24]	; (3624 <udc_req_std_iface_set_setting+0x70>)
    360c:	4798      	blx	r3
    360e:	1c03      	adds	r3, r0, #0
}
    3610:	1c18      	adds	r0, r3, #0
    3612:	46bd      	mov	sp, r7
    3614:	b002      	add	sp, #8
    3616:	bd80      	pop	{r7, pc}
    3618:	2000045c 	.word	0x2000045c
    361c:	20000130 	.word	0x20000130
    3620:	00002e19 	.word	0x00002e19
    3624:	00002ecd 	.word	0x00002ecd

00003628 <udc_reqstd>:
 * \brief Main routine to manage the standard USB SETUP request
 *
 * \return true if the request is supported
 */
static bool udc_reqstd(void)
{
    3628:	b580      	push	{r7, lr}
    362a:	af00      	add	r7, sp, #0
	if (Udd_setup_is_in()) {
    362c:	4b48      	ldr	r3, [pc, #288]	; (3750 <udc_reqstd+0x128>)
    362e:	781b      	ldrb	r3, [r3, #0]
    3630:	b2db      	uxtb	r3, r3
    3632:	b25b      	sxtb	r3, r3
    3634:	2b00      	cmp	r3, #0
    3636:	da41      	bge.n	36bc <udc_reqstd+0x94>
		// GET Standard Requests
		if (udd_g_ctrlreq.req.wLength == 0) {
    3638:	4b45      	ldr	r3, [pc, #276]	; (3750 <udc_reqstd+0x128>)
    363a:	88db      	ldrh	r3, [r3, #6]
    363c:	2b00      	cmp	r3, #0
    363e:	d101      	bne.n	3644 <udc_reqstd+0x1c>
			return false; // Error for USB host
    3640:	2300      	movs	r3, #0
    3642:	e082      	b.n	374a <udc_reqstd+0x122>
		}

		if (USB_REQ_RECIP_DEVICE == Udd_setup_recipient()) {
    3644:	4b42      	ldr	r3, [pc, #264]	; (3750 <udc_reqstd+0x128>)
    3646:	781b      	ldrb	r3, [r3, #0]
    3648:	1c1a      	adds	r2, r3, #0
    364a:	231f      	movs	r3, #31
    364c:	4013      	ands	r3, r2
    364e:	d114      	bne.n	367a <udc_reqstd+0x52>
			// Standard Get Device request
			switch (udd_g_ctrlreq.req.bRequest) {
    3650:	4b3f      	ldr	r3, [pc, #252]	; (3750 <udc_reqstd+0x128>)
    3652:	785b      	ldrb	r3, [r3, #1]
    3654:	2b06      	cmp	r3, #6
    3656:	d008      	beq.n	366a <udc_reqstd+0x42>
    3658:	2b08      	cmp	r3, #8
    365a:	d00a      	beq.n	3672 <udc_reqstd+0x4a>
    365c:	2b00      	cmp	r3, #0
    365e:	d000      	beq.n	3662 <udc_reqstd+0x3a>
			case USB_REQ_GET_DESCRIPTOR:
				return udc_req_std_dev_get_descriptor();
			case USB_REQ_GET_CONFIGURATION:
				return udc_req_std_dev_get_configuration();
			default:
				break;
    3660:	e00b      	b.n	367a <udc_reqstd+0x52>

		if (USB_REQ_RECIP_DEVICE == Udd_setup_recipient()) {
			// Standard Get Device request
			switch (udd_g_ctrlreq.req.bRequest) {
			case USB_REQ_GET_STATUS:
				return udc_req_std_dev_get_status();
    3662:	4b3c      	ldr	r3, [pc, #240]	; (3754 <udc_reqstd+0x12c>)
    3664:	4798      	blx	r3
    3666:	1c03      	adds	r3, r0, #0
    3668:	e06f      	b.n	374a <udc_reqstd+0x122>
			case USB_REQ_GET_DESCRIPTOR:
				return udc_req_std_dev_get_descriptor();
    366a:	4b3b      	ldr	r3, [pc, #236]	; (3758 <udc_reqstd+0x130>)
    366c:	4798      	blx	r3
    366e:	1c03      	adds	r3, r0, #0
    3670:	e06b      	b.n	374a <udc_reqstd+0x122>
			case USB_REQ_GET_CONFIGURATION:
				return udc_req_std_dev_get_configuration();
    3672:	4b3a      	ldr	r3, [pc, #232]	; (375c <udc_reqstd+0x134>)
    3674:	4798      	blx	r3
    3676:	1c03      	adds	r3, r0, #0
    3678:	e067      	b.n	374a <udc_reqstd+0x122>
			default:
				break;
			}
		}

		if (USB_REQ_RECIP_INTERFACE == Udd_setup_recipient()) {
    367a:	4b35      	ldr	r3, [pc, #212]	; (3750 <udc_reqstd+0x128>)
    367c:	781b      	ldrb	r3, [r3, #0]
    367e:	1c1a      	adds	r2, r3, #0
    3680:	231f      	movs	r3, #31
    3682:	4013      	ands	r3, r2
    3684:	2b01      	cmp	r3, #1
    3686:	d108      	bne.n	369a <udc_reqstd+0x72>
			// Standard Get Interface request
			switch (udd_g_ctrlreq.req.bRequest) {
    3688:	4b31      	ldr	r3, [pc, #196]	; (3750 <udc_reqstd+0x128>)
    368a:	785b      	ldrb	r3, [r3, #1]
    368c:	2b0a      	cmp	r3, #10
    368e:	d000      	beq.n	3692 <udc_reqstd+0x6a>
			case USB_REQ_GET_INTERFACE:
				return udc_req_std_iface_get_setting();
			default:
				break;
    3690:	e003      	b.n	369a <udc_reqstd+0x72>

		if (USB_REQ_RECIP_INTERFACE == Udd_setup_recipient()) {
			// Standard Get Interface request
			switch (udd_g_ctrlreq.req.bRequest) {
			case USB_REQ_GET_INTERFACE:
				return udc_req_std_iface_get_setting();
    3692:	4b33      	ldr	r3, [pc, #204]	; (3760 <udc_reqstd+0x138>)
    3694:	4798      	blx	r3
    3696:	1c03      	adds	r3, r0, #0
    3698:	e057      	b.n	374a <udc_reqstd+0x122>
			default:
				break;
			}
		}
#if (0!=USB_DEVICE_MAX_EP)
		if (USB_REQ_RECIP_ENDPOINT == Udd_setup_recipient()) {
    369a:	4b2d      	ldr	r3, [pc, #180]	; (3750 <udc_reqstd+0x128>)
    369c:	781b      	ldrb	r3, [r3, #0]
    369e:	1c1a      	adds	r2, r3, #0
    36a0:	231f      	movs	r3, #31
    36a2:	4013      	ands	r3, r2
    36a4:	2b02      	cmp	r3, #2
    36a6:	d14f      	bne.n	3748 <udc_reqstd+0x120>
			// Standard Get Endpoint request
			switch (udd_g_ctrlreq.req.bRequest) {
    36a8:	4b29      	ldr	r3, [pc, #164]	; (3750 <udc_reqstd+0x128>)
    36aa:	785b      	ldrb	r3, [r3, #1]
    36ac:	2b00      	cmp	r3, #0
    36ae:	d001      	beq.n	36b4 <udc_reqstd+0x8c>
			case USB_REQ_GET_STATUS:
				return udc_req_std_ep_get_status();
			default:
				break;
    36b0:	46c0      	nop			; (mov r8, r8)
    36b2:	e049      	b.n	3748 <udc_reqstd+0x120>
#if (0!=USB_DEVICE_MAX_EP)
		if (USB_REQ_RECIP_ENDPOINT == Udd_setup_recipient()) {
			// Standard Get Endpoint request
			switch (udd_g_ctrlreq.req.bRequest) {
			case USB_REQ_GET_STATUS:
				return udc_req_std_ep_get_status();
    36b4:	4b2b      	ldr	r3, [pc, #172]	; (3764 <udc_reqstd+0x13c>)
    36b6:	4798      	blx	r3
    36b8:	1c03      	adds	r3, r0, #0
    36ba:	e046      	b.n	374a <udc_reqstd+0x122>
			}
		}
#endif
	} else {
		// SET Standard Requests
		if (USB_REQ_RECIP_DEVICE == Udd_setup_recipient()) {
    36bc:	4b24      	ldr	r3, [pc, #144]	; (3750 <udc_reqstd+0x128>)
    36be:	781b      	ldrb	r3, [r3, #0]
    36c0:	1c1a      	adds	r2, r3, #0
    36c2:	231f      	movs	r3, #31
    36c4:	4013      	ands	r3, r2
    36c6:	d119      	bne.n	36fc <udc_reqstd+0xd4>
			// Standard Set Device request
			switch (udd_g_ctrlreq.req.bRequest) {
    36c8:	4b21      	ldr	r3, [pc, #132]	; (3750 <udc_reqstd+0x128>)
    36ca:	785b      	ldrb	r3, [r3, #1]
    36cc:	2b09      	cmp	r3, #9
    36ce:	d814      	bhi.n	36fa <udc_reqstd+0xd2>
    36d0:	009a      	lsls	r2, r3, #2
    36d2:	4b25      	ldr	r3, [pc, #148]	; (3768 <udc_reqstd+0x140>)
    36d4:	18d3      	adds	r3, r2, r3
    36d6:	681b      	ldr	r3, [r3, #0]
    36d8:	469f      	mov	pc, r3
			case USB_REQ_SET_ADDRESS:
				return udc_req_std_dev_set_address();
    36da:	4b24      	ldr	r3, [pc, #144]	; (376c <udc_reqstd+0x144>)
    36dc:	4798      	blx	r3
    36de:	1c03      	adds	r3, r0, #0
    36e0:	e033      	b.n	374a <udc_reqstd+0x122>
			case USB_REQ_CLEAR_FEATURE:
				return udc_req_std_dev_clear_feature();
    36e2:	4b23      	ldr	r3, [pc, #140]	; (3770 <udc_reqstd+0x148>)
    36e4:	4798      	blx	r3
    36e6:	1c03      	adds	r3, r0, #0
    36e8:	e02f      	b.n	374a <udc_reqstd+0x122>
			case USB_REQ_SET_FEATURE:
				return udc_req_std_dev_set_feature();
    36ea:	4b22      	ldr	r3, [pc, #136]	; (3774 <udc_reqstd+0x14c>)
    36ec:	4798      	blx	r3
    36ee:	1c03      	adds	r3, r0, #0
    36f0:	e02b      	b.n	374a <udc_reqstd+0x122>
			case USB_REQ_SET_CONFIGURATION:
				return udc_req_std_dev_set_configuration();
    36f2:	4b21      	ldr	r3, [pc, #132]	; (3778 <udc_reqstd+0x150>)
    36f4:	4798      	blx	r3
    36f6:	1c03      	adds	r3, r0, #0
    36f8:	e027      	b.n	374a <udc_reqstd+0x122>
			case USB_REQ_SET_DESCRIPTOR:
				/* Not supported (defined as optional by the USB 2.0 spec) */
				break;
			default:
				break;
    36fa:	46c0      	nop			; (mov r8, r8)
			}
		}

		if (USB_REQ_RECIP_INTERFACE == Udd_setup_recipient()) {
    36fc:	4b14      	ldr	r3, [pc, #80]	; (3750 <udc_reqstd+0x128>)
    36fe:	781b      	ldrb	r3, [r3, #0]
    3700:	1c1a      	adds	r2, r3, #0
    3702:	231f      	movs	r3, #31
    3704:	4013      	ands	r3, r2
    3706:	2b01      	cmp	r3, #1
    3708:	d108      	bne.n	371c <udc_reqstd+0xf4>
			// Standard Set Interface request
			switch (udd_g_ctrlreq.req.bRequest) {
    370a:	4b11      	ldr	r3, [pc, #68]	; (3750 <udc_reqstd+0x128>)
    370c:	785b      	ldrb	r3, [r3, #1]
    370e:	2b0b      	cmp	r3, #11
    3710:	d000      	beq.n	3714 <udc_reqstd+0xec>
			case USB_REQ_SET_INTERFACE:
				return udc_req_std_iface_set_setting();
			default:
				break;
    3712:	e003      	b.n	371c <udc_reqstd+0xf4>

		if (USB_REQ_RECIP_INTERFACE == Udd_setup_recipient()) {
			// Standard Set Interface request
			switch (udd_g_ctrlreq.req.bRequest) {
			case USB_REQ_SET_INTERFACE:
				return udc_req_std_iface_set_setting();
    3714:	4b19      	ldr	r3, [pc, #100]	; (377c <udc_reqstd+0x154>)
    3716:	4798      	blx	r3
    3718:	1c03      	adds	r3, r0, #0
    371a:	e016      	b.n	374a <udc_reqstd+0x122>
			default:
				break;
			}
		}
#if (0!=USB_DEVICE_MAX_EP)
		if (USB_REQ_RECIP_ENDPOINT == Udd_setup_recipient()) {
    371c:	4b0c      	ldr	r3, [pc, #48]	; (3750 <udc_reqstd+0x128>)
    371e:	781b      	ldrb	r3, [r3, #0]
    3720:	1c1a      	adds	r2, r3, #0
    3722:	231f      	movs	r3, #31
    3724:	4013      	ands	r3, r2
    3726:	2b02      	cmp	r3, #2
    3728:	d10e      	bne.n	3748 <udc_reqstd+0x120>
			// Standard Set Endpoint request
			switch (udd_g_ctrlreq.req.bRequest) {
    372a:	4b09      	ldr	r3, [pc, #36]	; (3750 <udc_reqstd+0x128>)
    372c:	785b      	ldrb	r3, [r3, #1]
    372e:	2b01      	cmp	r3, #1
    3730:	d002      	beq.n	3738 <udc_reqstd+0x110>
    3732:	2b03      	cmp	r3, #3
    3734:	d004      	beq.n	3740 <udc_reqstd+0x118>
			case USB_REQ_CLEAR_FEATURE:
				return udc_req_std_ep_clear_feature();
			case USB_REQ_SET_FEATURE:
				return udc_req_std_ep_set_feature();
			default:
				break;
    3736:	e007      	b.n	3748 <udc_reqstd+0x120>
#if (0!=USB_DEVICE_MAX_EP)
		if (USB_REQ_RECIP_ENDPOINT == Udd_setup_recipient()) {
			// Standard Set Endpoint request
			switch (udd_g_ctrlreq.req.bRequest) {
			case USB_REQ_CLEAR_FEATURE:
				return udc_req_std_ep_clear_feature();
    3738:	4b11      	ldr	r3, [pc, #68]	; (3780 <udc_reqstd+0x158>)
    373a:	4798      	blx	r3
    373c:	1c03      	adds	r3, r0, #0
    373e:	e004      	b.n	374a <udc_reqstd+0x122>
			case USB_REQ_SET_FEATURE:
				return udc_req_std_ep_set_feature();
    3740:	4b10      	ldr	r3, [pc, #64]	; (3784 <udc_reqstd+0x15c>)
    3742:	4798      	blx	r3
    3744:	1c03      	adds	r3, r0, #0
    3746:	e000      	b.n	374a <udc_reqstd+0x122>
				break;
			}
		}
#endif
	}
	return false;
    3748:	2300      	movs	r3, #0
}
    374a:	1c18      	adds	r0, r3, #0
    374c:	46bd      	mov	sp, r7
    374e:	bd80      	pop	{r7, pc}
    3750:	2000045c 	.word	0x2000045c
    3754:	0000306d 	.word	0x0000306d
    3758:	00003311 	.word	0x00003311
    375c:	00003411 	.word	0x00003411
    3760:	00003511 	.word	0x00003511
    3764:	0000309d 	.word	0x0000309d
    3768:	00008c48 	.word	0x00008c48
    376c:	00003211 	.word	0x00003211
    3770:	000030e5 	.word	0x000030e5
    3774:	00003161 	.word	0x00003161
    3778:	00003441 	.word	0x00003441
    377c:	000035b5 	.word	0x000035b5
    3780:	00003129 	.word	0x00003129
    3784:	000031a5 	.word	0x000031a5

00003788 <udc_req_iface>:
 * \brief Send the SETUP interface request to UDI
 *
 * \return true if the request is supported
 */
static bool udc_req_iface(void)
{
    3788:	b580      	push	{r7, lr}
    378a:	b082      	sub	sp, #8
    378c:	af00      	add	r7, sp, #0
	uint8_t iface_num;
	udi_api_t UDC_DESC_STORAGE *udi_api;

	if (0 == udc_num_configuration) {
    378e:	4b24      	ldr	r3, [pc, #144]	; (3820 <udc_req_iface+0x98>)
    3790:	781b      	ldrb	r3, [r3, #0]
    3792:	2b00      	cmp	r3, #0
    3794:	d101      	bne.n	379a <udc_req_iface+0x12>
		return false; // The device is not is configured state yet
    3796:	2300      	movs	r3, #0
    3798:	e03d      	b.n	3816 <udc_req_iface+0x8e>
	}
	// Check interface number
	iface_num = udd_g_ctrlreq.req.wIndex & 0xFF;
    379a:	4b22      	ldr	r3, [pc, #136]	; (3824 <udc_req_iface+0x9c>)
    379c:	889a      	ldrh	r2, [r3, #4]
    379e:	1dfb      	adds	r3, r7, #7
    37a0:	701a      	strb	r2, [r3, #0]
	if (iface_num >= udc_ptr_conf->desc->bNumInterfaces) {
    37a2:	4b21      	ldr	r3, [pc, #132]	; (3828 <udc_req_iface+0xa0>)
    37a4:	681b      	ldr	r3, [r3, #0]
    37a6:	681b      	ldr	r3, [r3, #0]
    37a8:	791b      	ldrb	r3, [r3, #4]
    37aa:	1dfa      	adds	r2, r7, #7
    37ac:	7812      	ldrb	r2, [r2, #0]
    37ae:	429a      	cmp	r2, r3
    37b0:	d301      	bcc.n	37b6 <udc_req_iface+0x2e>
		return false;
    37b2:	2300      	movs	r3, #0
    37b4:	e02f      	b.n	3816 <udc_req_iface+0x8e>
	}

	//* To update udc_ptr_iface with the selected interface in request
	// Select first alternate setting of interface to update udc_ptr_iface
	// before calling udi_api->getsetting()
	if (!udc_update_iface_desc(iface_num, 0)) {
    37b6:	1dfb      	adds	r3, r7, #7
    37b8:	781b      	ldrb	r3, [r3, #0]
    37ba:	1c18      	adds	r0, r3, #0
    37bc:	2100      	movs	r1, #0
    37be:	4b1b      	ldr	r3, [pc, #108]	; (382c <udc_req_iface+0xa4>)
    37c0:	4798      	blx	r3
    37c2:	1c03      	adds	r3, r0, #0
    37c4:	1c1a      	adds	r2, r3, #0
    37c6:	2301      	movs	r3, #1
    37c8:	4053      	eors	r3, r2
    37ca:	b2db      	uxtb	r3, r3
    37cc:	2b00      	cmp	r3, #0
    37ce:	d001      	beq.n	37d4 <udc_req_iface+0x4c>
		return false;
    37d0:	2300      	movs	r3, #0
    37d2:	e020      	b.n	3816 <udc_req_iface+0x8e>
	}
	// Select the interface with the current alternate setting
	udi_api = udc_ptr_conf->udi_apis[iface_num];
    37d4:	4b14      	ldr	r3, [pc, #80]	; (3828 <udc_req_iface+0xa0>)
    37d6:	681b      	ldr	r3, [r3, #0]
    37d8:	685a      	ldr	r2, [r3, #4]
    37da:	1dfb      	adds	r3, r7, #7
    37dc:	781b      	ldrb	r3, [r3, #0]
    37de:	009b      	lsls	r3, r3, #2
    37e0:	18d3      	adds	r3, r2, r3
    37e2:	681b      	ldr	r3, [r3, #0]
    37e4:	603b      	str	r3, [r7, #0]
	if (!udc_update_iface_desc(iface_num, udi_api->getsetting())) {
    37e6:	683b      	ldr	r3, [r7, #0]
    37e8:	68db      	ldr	r3, [r3, #12]
    37ea:	4798      	blx	r3
    37ec:	1c03      	adds	r3, r0, #0
    37ee:	1c1a      	adds	r2, r3, #0
    37f0:	1dfb      	adds	r3, r7, #7
    37f2:	781b      	ldrb	r3, [r3, #0]
    37f4:	1c18      	adds	r0, r3, #0
    37f6:	1c11      	adds	r1, r2, #0
    37f8:	4b0c      	ldr	r3, [pc, #48]	; (382c <udc_req_iface+0xa4>)
    37fa:	4798      	blx	r3
    37fc:	1c03      	adds	r3, r0, #0
    37fe:	1c1a      	adds	r2, r3, #0
    3800:	2301      	movs	r3, #1
    3802:	4053      	eors	r3, r2
    3804:	b2db      	uxtb	r3, r3
    3806:	2b00      	cmp	r3, #0
    3808:	d001      	beq.n	380e <udc_req_iface+0x86>
		return false;
    380a:	2300      	movs	r3, #0
    380c:	e003      	b.n	3816 <udc_req_iface+0x8e>
	}

	// Send the SETUP request to the UDI corresponding to the interface number
	return udi_api->setup();
    380e:	683b      	ldr	r3, [r7, #0]
    3810:	689b      	ldr	r3, [r3, #8]
    3812:	4798      	blx	r3
    3814:	1c03      	adds	r3, r0, #0
}
    3816:	1c18      	adds	r0, r3, #0
    3818:	46bd      	mov	sp, r7
    381a:	b002      	add	sp, #8
    381c:	bd80      	pop	{r7, pc}
    381e:	46c0      	nop			; (mov r8, r8)
    3820:	20000130 	.word	0x20000130
    3824:	2000045c 	.word	0x2000045c
    3828:	20000134 	.word	0x20000134
    382c:	00002d75 	.word	0x00002d75

00003830 <udc_req_ep>:
 * \brief Send the SETUP interface request to UDI
 *
 * \return true if the request is supported
 */
static bool udc_req_ep(void)
{
    3830:	b580      	push	{r7, lr}
    3832:	b082      	sub	sp, #8
    3834:	af00      	add	r7, sp, #0
	uint8_t iface_num;
	udi_api_t UDC_DESC_STORAGE *udi_api;

	if (0 == udc_num_configuration) {
    3836:	4b22      	ldr	r3, [pc, #136]	; (38c0 <udc_req_ep+0x90>)
    3838:	781b      	ldrb	r3, [r3, #0]
    383a:	2b00      	cmp	r3, #0
    383c:	d101      	bne.n	3842 <udc_req_ep+0x12>
		return false; // The device is not is configured state yet
    383e:	2300      	movs	r3, #0
    3840:	e039      	b.n	38b6 <udc_req_ep+0x86>
	}
	// Send this request on all enabled interfaces
	iface_num = udd_g_ctrlreq.req.wIndex & 0xFF;
    3842:	4b20      	ldr	r3, [pc, #128]	; (38c4 <udc_req_ep+0x94>)
    3844:	889a      	ldrh	r2, [r3, #4]
    3846:	1dfb      	adds	r3, r7, #7
    3848:	701a      	strb	r2, [r3, #0]
	for (iface_num = 0; iface_num < udc_ptr_conf->desc->bNumInterfaces;
    384a:	1dfb      	adds	r3, r7, #7
    384c:	2200      	movs	r2, #0
    384e:	701a      	strb	r2, [r3, #0]
    3850:	e028      	b.n	38a4 <udc_req_ep+0x74>
			iface_num++) {
		// Select the interface with the current alternate setting
		udi_api = udc_ptr_conf->udi_apis[iface_num];
    3852:	4b1d      	ldr	r3, [pc, #116]	; (38c8 <udc_req_ep+0x98>)
    3854:	681b      	ldr	r3, [r3, #0]
    3856:	685a      	ldr	r2, [r3, #4]
    3858:	1dfb      	adds	r3, r7, #7
    385a:	781b      	ldrb	r3, [r3, #0]
    385c:	009b      	lsls	r3, r3, #2
    385e:	18d3      	adds	r3, r2, r3
    3860:	681b      	ldr	r3, [r3, #0]
    3862:	603b      	str	r3, [r7, #0]
		if (!udc_update_iface_desc(iface_num, udi_api->getsetting())) {
    3864:	683b      	ldr	r3, [r7, #0]
    3866:	68db      	ldr	r3, [r3, #12]
    3868:	4798      	blx	r3
    386a:	1c03      	adds	r3, r0, #0
    386c:	1c1a      	adds	r2, r3, #0
    386e:	1dfb      	adds	r3, r7, #7
    3870:	781b      	ldrb	r3, [r3, #0]
    3872:	1c18      	adds	r0, r3, #0
    3874:	1c11      	adds	r1, r2, #0
    3876:	4b15      	ldr	r3, [pc, #84]	; (38cc <udc_req_ep+0x9c>)
    3878:	4798      	blx	r3
    387a:	1c03      	adds	r3, r0, #0
    387c:	1c1a      	adds	r2, r3, #0
    387e:	2301      	movs	r3, #1
    3880:	4053      	eors	r3, r2
    3882:	b2db      	uxtb	r3, r3
    3884:	2b00      	cmp	r3, #0
    3886:	d001      	beq.n	388c <udc_req_ep+0x5c>
			return false;
    3888:	2300      	movs	r3, #0
    388a:	e014      	b.n	38b6 <udc_req_ep+0x86>
		}

		// Send the SETUP request to the UDI
		if (udi_api->setup()) {
    388c:	683b      	ldr	r3, [r7, #0]
    388e:	689b      	ldr	r3, [r3, #8]
    3890:	4798      	blx	r3
    3892:	1e03      	subs	r3, r0, #0
    3894:	d001      	beq.n	389a <udc_req_ep+0x6a>
			return true;
    3896:	2301      	movs	r3, #1
    3898:	e00d      	b.n	38b6 <udc_req_ep+0x86>
		return false; // The device is not is configured state yet
	}
	// Send this request on all enabled interfaces
	iface_num = udd_g_ctrlreq.req.wIndex & 0xFF;
	for (iface_num = 0; iface_num < udc_ptr_conf->desc->bNumInterfaces;
			iface_num++) {
    389a:	1dfb      	adds	r3, r7, #7
    389c:	781a      	ldrb	r2, [r3, #0]
    389e:	1dfb      	adds	r3, r7, #7
    38a0:	3201      	adds	r2, #1
    38a2:	701a      	strb	r2, [r3, #0]
	if (0 == udc_num_configuration) {
		return false; // The device is not is configured state yet
	}
	// Send this request on all enabled interfaces
	iface_num = udd_g_ctrlreq.req.wIndex & 0xFF;
	for (iface_num = 0; iface_num < udc_ptr_conf->desc->bNumInterfaces;
    38a4:	4b08      	ldr	r3, [pc, #32]	; (38c8 <udc_req_ep+0x98>)
    38a6:	681b      	ldr	r3, [r3, #0]
    38a8:	681b      	ldr	r3, [r3, #0]
    38aa:	791b      	ldrb	r3, [r3, #4]
    38ac:	1dfa      	adds	r2, r7, #7
    38ae:	7812      	ldrb	r2, [r2, #0]
    38b0:	429a      	cmp	r2, r3
    38b2:	d3ce      	bcc.n	3852 <udc_req_ep+0x22>
		// Send the SETUP request to the UDI
		if (udi_api->setup()) {
			return true;
		}
	}
	return false;
    38b4:	2300      	movs	r3, #0
}
    38b6:	1c18      	adds	r0, r3, #0
    38b8:	46bd      	mov	sp, r7
    38ba:	b002      	add	sp, #8
    38bc:	bd80      	pop	{r7, pc}
    38be:	46c0      	nop			; (mov r8, r8)
    38c0:	20000130 	.word	0x20000130
    38c4:	2000045c 	.word	0x2000045c
    38c8:	20000134 	.word	0x20000134
    38cc:	00002d75 	.word	0x00002d75

000038d0 <udc_process_setup>:
 * sent to a specific application callback.
 *
 * \return true if the request is supported, else the request is stalled by UDD
 */
bool udc_process_setup(void)
{
    38d0:	b580      	push	{r7, lr}
    38d2:	af00      	add	r7, sp, #0
	// By default no data (receive/send) and no callbacks registered
	udd_g_ctrlreq.payload_size = 0;
    38d4:	4b1f      	ldr	r3, [pc, #124]	; (3954 <udc_process_setup+0x84>)
    38d6:	2200      	movs	r2, #0
    38d8:	819a      	strh	r2, [r3, #12]
	udd_g_ctrlreq.callback = NULL;
    38da:	4b1e      	ldr	r3, [pc, #120]	; (3954 <udc_process_setup+0x84>)
    38dc:	2200      	movs	r2, #0
    38de:	611a      	str	r2, [r3, #16]
	udd_g_ctrlreq.over_under_run = NULL;
    38e0:	4b1c      	ldr	r3, [pc, #112]	; (3954 <udc_process_setup+0x84>)
    38e2:	2200      	movs	r2, #0
    38e4:	615a      	str	r2, [r3, #20]

	if (Udd_setup_is_in()) {
    38e6:	4b1b      	ldr	r3, [pc, #108]	; (3954 <udc_process_setup+0x84>)
    38e8:	781b      	ldrb	r3, [r3, #0]
    38ea:	b2db      	uxtb	r3, r3
    38ec:	b25b      	sxtb	r3, r3
    38ee:	2b00      	cmp	r3, #0
    38f0:	da05      	bge.n	38fe <udc_process_setup+0x2e>
		if (udd_g_ctrlreq.req.wLength == 0) {
    38f2:	4b18      	ldr	r3, [pc, #96]	; (3954 <udc_process_setup+0x84>)
    38f4:	88db      	ldrh	r3, [r3, #6]
    38f6:	2b00      	cmp	r3, #0
    38f8:	d101      	bne.n	38fe <udc_process_setup+0x2e>
			return false; // Error from USB host
    38fa:	2300      	movs	r3, #0
    38fc:	e026      	b.n	394c <udc_process_setup+0x7c>
		}
	}

	// If standard request then try to decode it in UDC
	if (Udd_setup_type() == USB_REQ_TYPE_STANDARD) {
    38fe:	4b15      	ldr	r3, [pc, #84]	; (3954 <udc_process_setup+0x84>)
    3900:	781b      	ldrb	r3, [r3, #0]
    3902:	1c1a      	adds	r2, r3, #0
    3904:	2360      	movs	r3, #96	; 0x60
    3906:	4013      	ands	r3, r2
    3908:	d105      	bne.n	3916 <udc_process_setup+0x46>
		if (udc_reqstd()) {
    390a:	4b13      	ldr	r3, [pc, #76]	; (3958 <udc_process_setup+0x88>)
    390c:	4798      	blx	r3
    390e:	1e03      	subs	r3, r0, #0
    3910:	d001      	beq.n	3916 <udc_process_setup+0x46>
			return true;
    3912:	2301      	movs	r3, #1
    3914:	e01a      	b.n	394c <udc_process_setup+0x7c>
		}
	}

	// If interface request then try to decode it in UDI
	if (Udd_setup_recipient() == USB_REQ_RECIP_INTERFACE) {
    3916:	4b0f      	ldr	r3, [pc, #60]	; (3954 <udc_process_setup+0x84>)
    3918:	781b      	ldrb	r3, [r3, #0]
    391a:	1c1a      	adds	r2, r3, #0
    391c:	231f      	movs	r3, #31
    391e:	4013      	ands	r3, r2
    3920:	2b01      	cmp	r3, #1
    3922:	d105      	bne.n	3930 <udc_process_setup+0x60>
		if (udc_req_iface()) {
    3924:	4b0d      	ldr	r3, [pc, #52]	; (395c <udc_process_setup+0x8c>)
    3926:	4798      	blx	r3
    3928:	1e03      	subs	r3, r0, #0
    392a:	d001      	beq.n	3930 <udc_process_setup+0x60>
			return true;
    392c:	2301      	movs	r3, #1
    392e:	e00d      	b.n	394c <udc_process_setup+0x7c>
		}
	}

	// If endpoint request then try to decode it in UDI
	if (Udd_setup_recipient() == USB_REQ_RECIP_ENDPOINT) {
    3930:	4b08      	ldr	r3, [pc, #32]	; (3954 <udc_process_setup+0x84>)
    3932:	781b      	ldrb	r3, [r3, #0]
    3934:	1c1a      	adds	r2, r3, #0
    3936:	231f      	movs	r3, #31
    3938:	4013      	ands	r3, r2
    393a:	2b02      	cmp	r3, #2
    393c:	d105      	bne.n	394a <udc_process_setup+0x7a>
		if (udc_req_ep()) {
    393e:	4b08      	ldr	r3, [pc, #32]	; (3960 <udc_process_setup+0x90>)
    3940:	4798      	blx	r3
    3942:	1e03      	subs	r3, r0, #0
    3944:	d001      	beq.n	394a <udc_process_setup+0x7a>
			return true;
    3946:	2301      	movs	r3, #1
    3948:	e000      	b.n	394c <udc_process_setup+0x7c>
	// Here SETUP request unknown by UDC and UDIs
#ifdef USB_DEVICE_SPECIFIC_REQUEST
	// Try to decode it in specific callback
	return USB_DEVICE_SPECIFIC_REQUEST(); // Ex: Vendor request,...
#else
	return false;
    394a:	2300      	movs	r3, #0
#endif
}
    394c:	1c18      	adds	r0, r3, #0
    394e:	46bd      	mov	sp, r7
    3950:	bd80      	pop	{r7, pc}
    3952:	46c0      	nop			; (mov r8, r8)
    3954:	2000045c 	.word	0x2000045c
    3958:	00003629 	.word	0x00003629
    395c:	00003789 	.word	0x00003789
    3960:	00003831 	.word	0x00003831

00003964 <cpu_irq_enter_critical>:
 */
volatile bool g_interrupt_enabled = true;
#endif

void cpu_irq_enter_critical(void)
{
    3964:	b580      	push	{r7, lr}
    3966:	b082      	sub	sp, #8
    3968:	af00      	add	r7, sp, #0
	if (cpu_irq_critical_section_counter == 0) {
    396a:	4b0f      	ldr	r3, [pc, #60]	; (39a8 <cpu_irq_enter_critical+0x44>)
    396c:	681b      	ldr	r3, [r3, #0]
    396e:	2b00      	cmp	r3, #0
    3970:	d112      	bne.n	3998 <cpu_irq_enter_critical+0x34>
 */
__attribute__( ( always_inline ) ) __STATIC_INLINE uint32_t __get_PRIMASK(void)
{
  uint32_t result;

  __ASM volatile ("MRS %0, primask" : "=r" (result) );
    3972:	f3ef 8310 	mrs	r3, PRIMASK
    3976:	607b      	str	r3, [r7, #4]
  return(result);
    3978:	687b      	ldr	r3, [r7, #4]
		if (cpu_irq_is_enabled()) {
    397a:	2b00      	cmp	r3, #0
    397c:	d109      	bne.n	3992 <cpu_irq_enter_critical+0x2e>
  This function disables IRQ interrupts by setting the I-bit in the CPSR.
  Can only be executed in Privileged modes.
 */
__attribute__( ( always_inline ) ) __STATIC_INLINE void __disable_irq(void)
{
  __ASM volatile ("cpsid i" : : : "memory");
    397e:	b672      	cpsid	i
    3980:	f3bf 8f5f 	dmb	sy
			cpu_irq_disable();
    3984:	4b09      	ldr	r3, [pc, #36]	; (39ac <cpu_irq_enter_critical+0x48>)
    3986:	2200      	movs	r2, #0
    3988:	701a      	strb	r2, [r3, #0]
			cpu_irq_prev_interrupt_state = true;
    398a:	4b09      	ldr	r3, [pc, #36]	; (39b0 <cpu_irq_enter_critical+0x4c>)
    398c:	2201      	movs	r2, #1
    398e:	701a      	strb	r2, [r3, #0]
    3990:	e002      	b.n	3998 <cpu_irq_enter_critical+0x34>
		} else {
			/* Make sure the to save the prev state as false */
			cpu_irq_prev_interrupt_state = false;
    3992:	4b07      	ldr	r3, [pc, #28]	; (39b0 <cpu_irq_enter_critical+0x4c>)
    3994:	2200      	movs	r2, #0
    3996:	701a      	strb	r2, [r3, #0]
		}

	}

	cpu_irq_critical_section_counter++;
    3998:	4b03      	ldr	r3, [pc, #12]	; (39a8 <cpu_irq_enter_critical+0x44>)
    399a:	681b      	ldr	r3, [r3, #0]
    399c:	1c5a      	adds	r2, r3, #1
    399e:	4b02      	ldr	r3, [pc, #8]	; (39a8 <cpu_irq_enter_critical+0x44>)
    39a0:	601a      	str	r2, [r3, #0]
}
    39a2:	46bd      	mov	sp, r7
    39a4:	b002      	add	sp, #8
    39a6:	bd80      	pop	{r7, pc}
    39a8:	20000140 	.word	0x20000140
    39ac:	200000d8 	.word	0x200000d8
    39b0:	20000144 	.word	0x20000144

000039b4 <cpu_irq_leave_critical>:

void cpu_irq_leave_critical(void)
{
    39b4:	b580      	push	{r7, lr}
    39b6:	af00      	add	r7, sp, #0
	/* Check if the user is trying to leave a critical section when not in a critical section */
	Assert(cpu_irq_critical_section_counter > 0);

	cpu_irq_critical_section_counter--;
    39b8:	4b0a      	ldr	r3, [pc, #40]	; (39e4 <cpu_irq_leave_critical+0x30>)
    39ba:	681b      	ldr	r3, [r3, #0]
    39bc:	1e5a      	subs	r2, r3, #1
    39be:	4b09      	ldr	r3, [pc, #36]	; (39e4 <cpu_irq_leave_critical+0x30>)
    39c0:	601a      	str	r2, [r3, #0]

	/* Only enable global interrupts when the counter reaches 0 and the state of the global interrupt flag
	   was enabled when entering critical state */
	if ((cpu_irq_critical_section_counter == 0) && (cpu_irq_prev_interrupt_state)) {
    39c2:	4b08      	ldr	r3, [pc, #32]	; (39e4 <cpu_irq_leave_critical+0x30>)
    39c4:	681b      	ldr	r3, [r3, #0]
    39c6:	2b00      	cmp	r3, #0
    39c8:	d10a      	bne.n	39e0 <cpu_irq_leave_critical+0x2c>
    39ca:	4b07      	ldr	r3, [pc, #28]	; (39e8 <cpu_irq_leave_critical+0x34>)
    39cc:	781b      	ldrb	r3, [r3, #0]
    39ce:	b2db      	uxtb	r3, r3
    39d0:	2b00      	cmp	r3, #0
    39d2:	d005      	beq.n	39e0 <cpu_irq_leave_critical+0x2c>
		cpu_irq_enable();
    39d4:	4b05      	ldr	r3, [pc, #20]	; (39ec <cpu_irq_leave_critical+0x38>)
    39d6:	2201      	movs	r2, #1
    39d8:	701a      	strb	r2, [r3, #0]
    39da:	f3bf 8f5f 	dmb	sy
  This function enables IRQ interrupts by clearing the I-bit in the CPSR.
  Can only be executed in Privileged modes.
 */
__attribute__( ( always_inline ) ) __STATIC_INLINE void __enable_irq(void)
{
  __ASM volatile ("cpsie i" : : : "memory");
    39de:	b662      	cpsie	i
	}
}
    39e0:	46bd      	mov	sp, r7
    39e2:	bd80      	pop	{r7, pc}
    39e4:	20000140 	.word	0x20000140
    39e8:	20000144 	.word	0x20000144
    39ec:	200000d8 	.word	0x200000d8

000039f0 <system_pinmux_get_group_from_gpio_pin>:
 *
 * \return Base address of the associated PORT module.
 */
static inline PortGroup* system_pinmux_get_group_from_gpio_pin(
		const uint8_t gpio_pin)
{
    39f0:	b580      	push	{r7, lr}
    39f2:	b084      	sub	sp, #16
    39f4:	af00      	add	r7, sp, #0
    39f6:	1c02      	adds	r2, r0, #0
    39f8:	1dfb      	adds	r3, r7, #7
    39fa:	701a      	strb	r2, [r3, #0]
	uint8_t port_index  = (gpio_pin / 128);
    39fc:	230f      	movs	r3, #15
    39fe:	18fb      	adds	r3, r7, r3
    3a00:	1dfa      	adds	r2, r7, #7
    3a02:	7812      	ldrb	r2, [r2, #0]
    3a04:	09d2      	lsrs	r2, r2, #7
    3a06:	701a      	strb	r2, [r3, #0]
	uint8_t group_index = (gpio_pin / 32);
    3a08:	230e      	movs	r3, #14
    3a0a:	18fb      	adds	r3, r7, r3
    3a0c:	1dfa      	adds	r2, r7, #7
    3a0e:	7812      	ldrb	r2, [r2, #0]
    3a10:	0952      	lsrs	r2, r2, #5
    3a12:	701a      	strb	r2, [r3, #0]

	/* Array of available ports */
	Port *const ports[PORT_INST_NUM] = PORT_INSTS;
    3a14:	4b0d      	ldr	r3, [pc, #52]	; (3a4c <system_pinmux_get_group_from_gpio_pin+0x5c>)
    3a16:	60bb      	str	r3, [r7, #8]

	if (port_index < PORT_INST_NUM) {
    3a18:	230f      	movs	r3, #15
    3a1a:	18fb      	adds	r3, r7, r3
    3a1c:	781b      	ldrb	r3, [r3, #0]
    3a1e:	2b00      	cmp	r3, #0
    3a20:	d10f      	bne.n	3a42 <system_pinmux_get_group_from_gpio_pin+0x52>
		return &(ports[port_index]->Group[group_index]);
    3a22:	230f      	movs	r3, #15
    3a24:	18fb      	adds	r3, r7, r3
    3a26:	781b      	ldrb	r3, [r3, #0]
    3a28:	009b      	lsls	r3, r3, #2
    3a2a:	2210      	movs	r2, #16
    3a2c:	4694      	mov	ip, r2
    3a2e:	44bc      	add	ip, r7
    3a30:	4463      	add	r3, ip
    3a32:	3b08      	subs	r3, #8
    3a34:	681a      	ldr	r2, [r3, #0]
    3a36:	230e      	movs	r3, #14
    3a38:	18fb      	adds	r3, r7, r3
    3a3a:	781b      	ldrb	r3, [r3, #0]
    3a3c:	01db      	lsls	r3, r3, #7
    3a3e:	18d3      	adds	r3, r2, r3
    3a40:	e000      	b.n	3a44 <system_pinmux_get_group_from_gpio_pin+0x54>
	} else {
		Assert(false);
		return NULL;
    3a42:	2300      	movs	r3, #0
	}
}
    3a44:	1c18      	adds	r0, r3, #0
    3a46:	46bd      	mov	sp, r7
    3a48:	b004      	add	sp, #16
    3a4a:	bd80      	pop	{r7, pc}
    3a4c:	41004400 	.word	0x41004400

00003a50 <port_get_group_from_gpio_pin>:
 *
 *  \return Base address of the associated PORT module.
 */
static inline PortGroup* port_get_group_from_gpio_pin(
		const uint8_t gpio_pin)
{
    3a50:	b580      	push	{r7, lr}
    3a52:	b082      	sub	sp, #8
    3a54:	af00      	add	r7, sp, #0
    3a56:	1c02      	adds	r2, r0, #0
    3a58:	1dfb      	adds	r3, r7, #7
    3a5a:	701a      	strb	r2, [r3, #0]
	return system_pinmux_get_group_from_gpio_pin(gpio_pin);
    3a5c:	1dfb      	adds	r3, r7, #7
    3a5e:	781b      	ldrb	r3, [r3, #0]
    3a60:	1c18      	adds	r0, r3, #0
    3a62:	4b03      	ldr	r3, [pc, #12]	; (3a70 <port_get_group_from_gpio_pin+0x20>)
    3a64:	4798      	blx	r3
    3a66:	1c03      	adds	r3, r0, #0
}
    3a68:	1c18      	adds	r0, r3, #0
    3a6a:	46bd      	mov	sp, r7
    3a6c:	b002      	add	sp, #8
    3a6e:	bd80      	pop	{r7, pc}
    3a70:	000039f1 	.word	0x000039f1

00003a74 <port_get_config_defaults>:
 *
 *  \param[out] config  Configuration structure to initialize to default values
 */
static inline void port_get_config_defaults(
		struct port_config *const config)
{
    3a74:	b580      	push	{r7, lr}
    3a76:	b082      	sub	sp, #8
    3a78:	af00      	add	r7, sp, #0
    3a7a:	6078      	str	r0, [r7, #4]
	/* Sanity check arguments */
	Assert(config);

	/* Default configuration values */
	config->direction  = PORT_PIN_DIR_INPUT;
    3a7c:	687b      	ldr	r3, [r7, #4]
    3a7e:	2200      	movs	r2, #0
    3a80:	701a      	strb	r2, [r3, #0]
	config->input_pull = PORT_PIN_PULL_UP;
    3a82:	687b      	ldr	r3, [r7, #4]
    3a84:	2201      	movs	r2, #1
    3a86:	705a      	strb	r2, [r3, #1]
	config->powersave  = false;
    3a88:	687b      	ldr	r3, [r7, #4]
    3a8a:	2200      	movs	r2, #0
    3a8c:	709a      	strb	r2, [r3, #2]
}
    3a8e:	46bd      	mov	sp, r7
    3a90:	b002      	add	sp, #8
    3a92:	bd80      	pop	{r7, pc}

00003a94 <port_pin_set_output_level>:
 *  \param[in] level     Logical level to set the given pin to
 */
static inline void port_pin_set_output_level(
		const uint8_t gpio_pin,
		const bool level)
{
    3a94:	b580      	push	{r7, lr}
    3a96:	b084      	sub	sp, #16
    3a98:	af00      	add	r7, sp, #0
    3a9a:	1c02      	adds	r2, r0, #0
    3a9c:	1dfb      	adds	r3, r7, #7
    3a9e:	701a      	strb	r2, [r3, #0]
    3aa0:	1dbb      	adds	r3, r7, #6
    3aa2:	1c0a      	adds	r2, r1, #0
    3aa4:	701a      	strb	r2, [r3, #0]
	PortGroup *const port_base = port_get_group_from_gpio_pin(gpio_pin);
    3aa6:	1dfb      	adds	r3, r7, #7
    3aa8:	781b      	ldrb	r3, [r3, #0]
    3aaa:	1c18      	adds	r0, r3, #0
    3aac:	4b0c      	ldr	r3, [pc, #48]	; (3ae0 <port_pin_set_output_level+0x4c>)
    3aae:	4798      	blx	r3
    3ab0:	1c03      	adds	r3, r0, #0
    3ab2:	60fb      	str	r3, [r7, #12]
	uint32_t pin_mask  = (1UL << (gpio_pin % 32));
    3ab4:	1dfb      	adds	r3, r7, #7
    3ab6:	781b      	ldrb	r3, [r3, #0]
    3ab8:	221f      	movs	r2, #31
    3aba:	4013      	ands	r3, r2
    3abc:	2201      	movs	r2, #1
    3abe:	409a      	lsls	r2, r3
    3ac0:	1c13      	adds	r3, r2, #0
    3ac2:	60bb      	str	r3, [r7, #8]

	/* Set the pin to high or low atomically based on the requested level */
	if (level) {
    3ac4:	1dbb      	adds	r3, r7, #6
    3ac6:	781b      	ldrb	r3, [r3, #0]
    3ac8:	2b00      	cmp	r3, #0
    3aca:	d003      	beq.n	3ad4 <port_pin_set_output_level+0x40>
		port_base->OUTSET.reg = pin_mask;
    3acc:	68fb      	ldr	r3, [r7, #12]
    3ace:	68ba      	ldr	r2, [r7, #8]
    3ad0:	619a      	str	r2, [r3, #24]
    3ad2:	e002      	b.n	3ada <port_pin_set_output_level+0x46>
	} else {
		port_base->OUTCLR.reg = pin_mask;
    3ad4:	68fb      	ldr	r3, [r7, #12]
    3ad6:	68ba      	ldr	r2, [r7, #8]
    3ad8:	615a      	str	r2, [r3, #20]
	}
}
    3ada:	46bd      	mov	sp, r7
    3adc:	b004      	add	sp, #16
    3ade:	bd80      	pop	{r7, pc}
    3ae0:	00003a51 	.word	0x00003a51

00003ae4 <system_board_init>:
void board_init(void);
#  pragma weak board_init=system_board_init
#endif

void system_board_init(void)
{
    3ae4:	b580      	push	{r7, lr}
    3ae6:	b082      	sub	sp, #8
    3ae8:	af00      	add	r7, sp, #0
	struct port_config pin_conf;
	port_get_config_defaults(&pin_conf);
    3aea:	1d3b      	adds	r3, r7, #4
    3aec:	1c18      	adds	r0, r3, #0
    3aee:	4b0e      	ldr	r3, [pc, #56]	; (3b28 <system_board_init+0x44>)
    3af0:	4798      	blx	r3

	/* Configure LEDs as outputs, turn them off */
	pin_conf.direction  = PORT_PIN_DIR_OUTPUT;
    3af2:	1d3b      	adds	r3, r7, #4
    3af4:	2201      	movs	r2, #1
    3af6:	701a      	strb	r2, [r3, #0]
	port_pin_set_config(LED_0_PIN, &pin_conf);
    3af8:	1d3b      	adds	r3, r7, #4
    3afa:	2011      	movs	r0, #17
    3afc:	1c19      	adds	r1, r3, #0
    3afe:	4b0b      	ldr	r3, [pc, #44]	; (3b2c <system_board_init+0x48>)
    3b00:	4798      	blx	r3
	port_pin_set_output_level(LED_0_PIN, LED_0_INACTIVE);
    3b02:	2011      	movs	r0, #17
    3b04:	2101      	movs	r1, #1
    3b06:	4b0a      	ldr	r3, [pc, #40]	; (3b30 <system_board_init+0x4c>)
    3b08:	4798      	blx	r3

	/* Set buttons as inputs */
	pin_conf.direction  = PORT_PIN_DIR_INPUT;
    3b0a:	1d3b      	adds	r3, r7, #4
    3b0c:	2200      	movs	r2, #0
    3b0e:	701a      	strb	r2, [r3, #0]
	pin_conf.input_pull = PORT_PIN_PULL_UP;
    3b10:	1d3b      	adds	r3, r7, #4
    3b12:	2201      	movs	r2, #1
    3b14:	705a      	strb	r2, [r3, #1]
	port_pin_set_config(BUTTON_0_PIN, &pin_conf);
    3b16:	1d3b      	adds	r3, r7, #4
    3b18:	200f      	movs	r0, #15
    3b1a:	1c19      	adds	r1, r3, #0
    3b1c:	4b03      	ldr	r3, [pc, #12]	; (3b2c <system_board_init+0x48>)
    3b1e:	4798      	blx	r3
	port_pin_set_output_level(AT86RFX_RST_PIN, true);
	port_pin_set_output_level(AT86RFX_SLP_PIN, true);
	pin_conf.direction  = PORT_PIN_DIR_INPUT;
	port_pin_set_config(AT86RFX_SPI_MISO, &pin_conf);
#endif	
}
    3b20:	46bd      	mov	sp, r7
    3b22:	b002      	add	sp, #8
    3b24:	bd80      	pop	{r7, pc}
    3b26:	46c0      	nop			; (mov r8, r8)
    3b28:	00003a75 	.word	0x00003a75
    3b2c:	00004151 	.word	0x00004151
    3b30:	00003a95 	.word	0x00003a95

00003b34 <_extint_get_eic_from_channel>:
 *
 * \return Base address of the associated EIC module.
 */
static inline Eic * _extint_get_eic_from_channel(
		const uint8_t channel)
{
    3b34:	b580      	push	{r7, lr}
    3b36:	b084      	sub	sp, #16
    3b38:	af00      	add	r7, sp, #0
    3b3a:	1c02      	adds	r2, r0, #0
    3b3c:	1dfb      	adds	r3, r7, #7
    3b3e:	701a      	strb	r2, [r3, #0]
	uint8_t eic_index = (channel / 32);
    3b40:	230f      	movs	r3, #15
    3b42:	18fb      	adds	r3, r7, r3
    3b44:	1dfa      	adds	r2, r7, #7
    3b46:	7812      	ldrb	r2, [r2, #0]
    3b48:	0952      	lsrs	r2, r2, #5
    3b4a:	701a      	strb	r2, [r3, #0]

	if (eic_index < EIC_INST_NUM) {
    3b4c:	230f      	movs	r3, #15
    3b4e:	18fb      	adds	r3, r7, r3
    3b50:	781b      	ldrb	r3, [r3, #0]
    3b52:	2b00      	cmp	r3, #0
    3b54:	d10c      	bne.n	3b70 <_extint_get_eic_from_channel+0x3c>
		/* Array of available EICs */
		Eic *const eics[EIC_INST_NUM] = EIC_INSTS;
    3b56:	4b09      	ldr	r3, [pc, #36]	; (3b7c <_extint_get_eic_from_channel+0x48>)
    3b58:	60bb      	str	r3, [r7, #8]

		return eics[eic_index];
    3b5a:	230f      	movs	r3, #15
    3b5c:	18fb      	adds	r3, r7, r3
    3b5e:	781b      	ldrb	r3, [r3, #0]
    3b60:	009b      	lsls	r3, r3, #2
    3b62:	2210      	movs	r2, #16
    3b64:	4694      	mov	ip, r2
    3b66:	44bc      	add	ip, r7
    3b68:	4463      	add	r3, ip
    3b6a:	3b08      	subs	r3, #8
    3b6c:	681b      	ldr	r3, [r3, #0]
    3b6e:	e000      	b.n	3b72 <_extint_get_eic_from_channel+0x3e>
	} else {
		Assert(false);
		return NULL;
    3b70:	2300      	movs	r3, #0
	}
}
    3b72:	1c18      	adds	r0, r3, #0
    3b74:	46bd      	mov	sp, r7
    3b76:	b004      	add	sp, #16
    3b78:	bd80      	pop	{r7, pc}
    3b7a:	46c0      	nop			; (mov r8, r8)
    3b7c:	40001800 	.word	0x40001800

00003b80 <extint_chan_is_detected>:
 *  \retval true   If the channel's edge/level detection criteria was met
 *  \retval false  If the channel has not detected its configured criteria
 */
static inline bool extint_chan_is_detected(
		const uint8_t channel)
{
    3b80:	b580      	push	{r7, lr}
    3b82:	b084      	sub	sp, #16
    3b84:	af00      	add	r7, sp, #0
    3b86:	1c02      	adds	r2, r0, #0
    3b88:	1dfb      	adds	r3, r7, #7
    3b8a:	701a      	strb	r2, [r3, #0]
	Eic *const eic_module = _extint_get_eic_from_channel(channel);
    3b8c:	1dfb      	adds	r3, r7, #7
    3b8e:	781b      	ldrb	r3, [r3, #0]
    3b90:	1c18      	adds	r0, r3, #0
    3b92:	4b0b      	ldr	r3, [pc, #44]	; (3bc0 <extint_chan_is_detected+0x40>)
    3b94:	4798      	blx	r3
    3b96:	1c03      	adds	r3, r0, #0
    3b98:	60fb      	str	r3, [r7, #12]
	uint32_t eic_mask   = (1UL << (channel % 32));
    3b9a:	1dfb      	adds	r3, r7, #7
    3b9c:	781b      	ldrb	r3, [r3, #0]
    3b9e:	221f      	movs	r2, #31
    3ba0:	4013      	ands	r3, r2
    3ba2:	2201      	movs	r2, #1
    3ba4:	409a      	lsls	r2, r3
    3ba6:	1c13      	adds	r3, r2, #0
    3ba8:	60bb      	str	r3, [r7, #8]

	return (eic_module->INTFLAG.reg & eic_mask);
    3baa:	68fb      	ldr	r3, [r7, #12]
    3bac:	691b      	ldr	r3, [r3, #16]
    3bae:	68ba      	ldr	r2, [r7, #8]
    3bb0:	4013      	ands	r3, r2
    3bb2:	1e5a      	subs	r2, r3, #1
    3bb4:	4193      	sbcs	r3, r2
    3bb6:	b2db      	uxtb	r3, r3
}
    3bb8:	1c18      	adds	r0, r3, #0
    3bba:	46bd      	mov	sp, r7
    3bbc:	b004      	add	sp, #16
    3bbe:	bd80      	pop	{r7, pc}
    3bc0:	00003b35 	.word	0x00003b35

00003bc4 <extint_chan_clear_detected>:
 *
 *  \param[in] channel  External Interrupt channel index to check
 */
static inline void extint_chan_clear_detected(
		const uint8_t channel)
{
    3bc4:	b580      	push	{r7, lr}
    3bc6:	b084      	sub	sp, #16
    3bc8:	af00      	add	r7, sp, #0
    3bca:	1c02      	adds	r2, r0, #0
    3bcc:	1dfb      	adds	r3, r7, #7
    3bce:	701a      	strb	r2, [r3, #0]
	Eic *const eic_module = _extint_get_eic_from_channel(channel);
    3bd0:	1dfb      	adds	r3, r7, #7
    3bd2:	781b      	ldrb	r3, [r3, #0]
    3bd4:	1c18      	adds	r0, r3, #0
    3bd6:	4b09      	ldr	r3, [pc, #36]	; (3bfc <extint_chan_clear_detected+0x38>)
    3bd8:	4798      	blx	r3
    3bda:	1c03      	adds	r3, r0, #0
    3bdc:	60fb      	str	r3, [r7, #12]
	uint32_t eic_mask   = (1UL << (channel % 32));
    3bde:	1dfb      	adds	r3, r7, #7
    3be0:	781b      	ldrb	r3, [r3, #0]
    3be2:	221f      	movs	r2, #31
    3be4:	4013      	ands	r3, r2
    3be6:	2201      	movs	r2, #1
    3be8:	409a      	lsls	r2, r3
    3bea:	1c13      	adds	r3, r2, #0
    3bec:	60bb      	str	r3, [r7, #8]

	eic_module->INTFLAG.reg = eic_mask;
    3bee:	68fb      	ldr	r3, [r7, #12]
    3bf0:	68ba      	ldr	r2, [r7, #8]
    3bf2:	611a      	str	r2, [r3, #16]
}
    3bf4:	46bd      	mov	sp, r7
    3bf6:	b004      	add	sp, #16
    3bf8:	bd80      	pop	{r7, pc}
    3bfa:	46c0      	nop			; (mov r8, r8)
    3bfc:	00003b35 	.word	0x00003b35

00003c00 <extint_register_callback>:
 */
enum status_code extint_register_callback(
	const extint_callback_t callback,
	const uint8_t channel,
	const enum extint_callback_type type)
{
    3c00:	b580      	push	{r7, lr}
    3c02:	b082      	sub	sp, #8
    3c04:	af00      	add	r7, sp, #0
    3c06:	6078      	str	r0, [r7, #4]
    3c08:	1c08      	adds	r0, r1, #0
    3c0a:	1c11      	adds	r1, r2, #0
    3c0c:	1cfb      	adds	r3, r7, #3
    3c0e:	1c02      	adds	r2, r0, #0
    3c10:	701a      	strb	r2, [r3, #0]
    3c12:	1cbb      	adds	r3, r7, #2
    3c14:	1c0a      	adds	r2, r1, #0
    3c16:	701a      	strb	r2, [r3, #0]
	/* Sanity check arguments */
	Assert(callback);

	if (type != EXTINT_CALLBACK_TYPE_DETECT) {
    3c18:	1cbb      	adds	r3, r7, #2
    3c1a:	781b      	ldrb	r3, [r3, #0]
    3c1c:	2b00      	cmp	r3, #0
    3c1e:	d001      	beq.n	3c24 <extint_register_callback+0x24>
		Assert(false);
		return STATUS_ERR_INVALID_ARG;
    3c20:	2317      	movs	r3, #23
    3c22:	e019      	b.n	3c58 <extint_register_callback+0x58>
	}

	if (_extint_dev.callbacks[channel] == NULL) {
    3c24:	1cfb      	adds	r3, r7, #3
    3c26:	781a      	ldrb	r2, [r3, #0]
    3c28:	4b0d      	ldr	r3, [pc, #52]	; (3c60 <extint_register_callback+0x60>)
    3c2a:	0092      	lsls	r2, r2, #2
    3c2c:	58d3      	ldr	r3, [r2, r3]
    3c2e:	2b00      	cmp	r3, #0
    3c30:	d107      	bne.n	3c42 <extint_register_callback+0x42>
		_extint_dev.callbacks[channel] = callback;
    3c32:	1cfb      	adds	r3, r7, #3
    3c34:	781a      	ldrb	r2, [r3, #0]
    3c36:	4b0a      	ldr	r3, [pc, #40]	; (3c60 <extint_register_callback+0x60>)
    3c38:	0092      	lsls	r2, r2, #2
    3c3a:	6879      	ldr	r1, [r7, #4]
    3c3c:	50d1      	str	r1, [r2, r3]
		return STATUS_OK;
    3c3e:	2300      	movs	r3, #0
    3c40:	e00a      	b.n	3c58 <extint_register_callback+0x58>
	} else if (_extint_dev.callbacks[channel] == callback) {
    3c42:	1cfb      	adds	r3, r7, #3
    3c44:	781a      	ldrb	r2, [r3, #0]
    3c46:	4b06      	ldr	r3, [pc, #24]	; (3c60 <extint_register_callback+0x60>)
    3c48:	0092      	lsls	r2, r2, #2
    3c4a:	58d2      	ldr	r2, [r2, r3]
    3c4c:	687b      	ldr	r3, [r7, #4]
    3c4e:	429a      	cmp	r2, r3
    3c50:	d101      	bne.n	3c56 <extint_register_callback+0x56>
		return STATUS_OK;
    3c52:	2300      	movs	r3, #0
    3c54:	e000      	b.n	3c58 <extint_register_callback+0x58>
	}

	return STATUS_ERR_ALREADY_INITIALIZED;
    3c56:	231d      	movs	r3, #29
}
    3c58:	1c18      	adds	r0, r3, #0
    3c5a:	46bd      	mov	sp, r7
    3c5c:	b002      	add	sp, #8
    3c5e:	bd80      	pop	{r7, pc}
    3c60:	20000274 	.word	0x20000274

00003c64 <extint_chan_enable_callback>:
 * \retval STATUS_ERR_INVALID_ARG  If an invalid callback type was supplied
 */
enum status_code extint_chan_enable_callback(
	const uint8_t channel,
	const enum extint_callback_type type)
{
    3c64:	b580      	push	{r7, lr}
    3c66:	b084      	sub	sp, #16
    3c68:	af00      	add	r7, sp, #0
    3c6a:	1c02      	adds	r2, r0, #0
    3c6c:	1dfb      	adds	r3, r7, #7
    3c6e:	701a      	strb	r2, [r3, #0]
    3c70:	1dbb      	adds	r3, r7, #6
    3c72:	1c0a      	adds	r2, r1, #0
    3c74:	701a      	strb	r2, [r3, #0]
	if (type == EXTINT_CALLBACK_TYPE_DETECT) {
    3c76:	1dbb      	adds	r3, r7, #6
    3c78:	781b      	ldrb	r3, [r3, #0]
    3c7a:	2b00      	cmp	r3, #0
    3c7c:	d10e      	bne.n	3c9c <extint_chan_enable_callback+0x38>
		Eic *const eic = _extint_get_eic_from_channel(channel);
    3c7e:	1dfb      	adds	r3, r7, #7
    3c80:	781b      	ldrb	r3, [r3, #0]
    3c82:	1c18      	adds	r0, r3, #0
    3c84:	4b08      	ldr	r3, [pc, #32]	; (3ca8 <extint_chan_enable_callback+0x44>)
    3c86:	4798      	blx	r3
    3c88:	1c03      	adds	r3, r0, #0
    3c8a:	60fb      	str	r3, [r7, #12]

		eic->INTENSET.reg = (1UL << channel);
    3c8c:	1dfb      	adds	r3, r7, #7
    3c8e:	781b      	ldrb	r3, [r3, #0]
    3c90:	2201      	movs	r2, #1
    3c92:	409a      	lsls	r2, r3
    3c94:	68fb      	ldr	r3, [r7, #12]
    3c96:	60da      	str	r2, [r3, #12]
	else {
		Assert(false);
		return STATUS_ERR_INVALID_ARG;
	}

	return STATUS_OK;
    3c98:	2300      	movs	r3, #0
    3c9a:	e000      	b.n	3c9e <extint_chan_enable_callback+0x3a>

		eic->INTENSET.reg = (1UL << channel);
	}
	else {
		Assert(false);
		return STATUS_ERR_INVALID_ARG;
    3c9c:	2317      	movs	r3, #23
	}

	return STATUS_OK;
}
    3c9e:	1c18      	adds	r0, r3, #0
    3ca0:	46bd      	mov	sp, r7
    3ca2:	b004      	add	sp, #16
    3ca4:	bd80      	pop	{r7, pc}
    3ca6:	46c0      	nop			; (mov r8, r8)
    3ca8:	00003b35 	.word	0x00003b35

00003cac <extint_chan_disable_callback>:
 * \retval STATUS_ERR_INVALID_ARG  If an invalid callback type was supplied
 */
enum status_code extint_chan_disable_callback(
	const uint8_t channel,
	const enum extint_callback_type type)
{
    3cac:	b580      	push	{r7, lr}
    3cae:	b084      	sub	sp, #16
    3cb0:	af00      	add	r7, sp, #0
    3cb2:	1c02      	adds	r2, r0, #0
    3cb4:	1dfb      	adds	r3, r7, #7
    3cb6:	701a      	strb	r2, [r3, #0]
    3cb8:	1dbb      	adds	r3, r7, #6
    3cba:	1c0a      	adds	r2, r1, #0
    3cbc:	701a      	strb	r2, [r3, #0]
	if (type == EXTINT_CALLBACK_TYPE_DETECT) {
    3cbe:	1dbb      	adds	r3, r7, #6
    3cc0:	781b      	ldrb	r3, [r3, #0]
    3cc2:	2b00      	cmp	r3, #0
    3cc4:	d10e      	bne.n	3ce4 <extint_chan_disable_callback+0x38>
		Eic *const eic = _extint_get_eic_from_channel(channel);
    3cc6:	1dfb      	adds	r3, r7, #7
    3cc8:	781b      	ldrb	r3, [r3, #0]
    3cca:	1c18      	adds	r0, r3, #0
    3ccc:	4b08      	ldr	r3, [pc, #32]	; (3cf0 <extint_chan_disable_callback+0x44>)
    3cce:	4798      	blx	r3
    3cd0:	1c03      	adds	r3, r0, #0
    3cd2:	60fb      	str	r3, [r7, #12]

		eic->INTENCLR.reg = (1UL << channel);
    3cd4:	1dfb      	adds	r3, r7, #7
    3cd6:	781b      	ldrb	r3, [r3, #0]
    3cd8:	2201      	movs	r2, #1
    3cda:	409a      	lsls	r2, r3
    3cdc:	68fb      	ldr	r3, [r7, #12]
    3cde:	609a      	str	r2, [r3, #8]
	else {
		Assert(false);
		return STATUS_ERR_INVALID_ARG;
	}

	return STATUS_OK;
    3ce0:	2300      	movs	r3, #0
    3ce2:	e000      	b.n	3ce6 <extint_chan_disable_callback+0x3a>

		eic->INTENCLR.reg = (1UL << channel);
	}
	else {
		Assert(false);
		return STATUS_ERR_INVALID_ARG;
    3ce4:	2317      	movs	r3, #23
	}

	return STATUS_OK;
}
    3ce6:	1c18      	adds	r0, r3, #0
    3ce8:	46bd      	mov	sp, r7
    3cea:	b004      	add	sp, #16
    3cec:	bd80      	pop	{r7, pc}
    3cee:	46c0      	nop			; (mov r8, r8)
    3cf0:	00003b35 	.word	0x00003b35

00003cf4 <EIC_Handler>:
	return _current_channel;
}

/** Handler for the EXTINT hardware module interrupt. */
void EIC_Handler(void)
{
    3cf4:	b580      	push	{r7, lr}
    3cf6:	af00      	add	r7, sp, #0
	/* Find any triggered channels, run associated callback handlers */
	for (_current_channel = 0; _current_channel < EIC_NUMBER_OF_INTERRUPTS ; _current_channel++) {
    3cf8:	4b15      	ldr	r3, [pc, #84]	; (3d50 <EIC_Handler+0x5c>)
    3cfa:	2200      	movs	r2, #0
    3cfc:	701a      	strb	r2, [r3, #0]
    3cfe:	e020      	b.n	3d42 <EIC_Handler+0x4e>
		if (extint_chan_is_detected(_current_channel)) {
    3d00:	4b13      	ldr	r3, [pc, #76]	; (3d50 <EIC_Handler+0x5c>)
    3d02:	781b      	ldrb	r3, [r3, #0]
    3d04:	1c18      	adds	r0, r3, #0
    3d06:	4b13      	ldr	r3, [pc, #76]	; (3d54 <EIC_Handler+0x60>)
    3d08:	4798      	blx	r3
    3d0a:	1e03      	subs	r3, r0, #0
    3d0c:	d013      	beq.n	3d36 <EIC_Handler+0x42>
			/* Clear flag */
			extint_chan_clear_detected(_current_channel);
    3d0e:	4b10      	ldr	r3, [pc, #64]	; (3d50 <EIC_Handler+0x5c>)
    3d10:	781b      	ldrb	r3, [r3, #0]
    3d12:	1c18      	adds	r0, r3, #0
    3d14:	4b10      	ldr	r3, [pc, #64]	; (3d58 <EIC_Handler+0x64>)
    3d16:	4798      	blx	r3
			/* Find any associated callback entries in the callback table */
			if (_extint_dev.callbacks[_current_channel] != NULL) {
    3d18:	4b0d      	ldr	r3, [pc, #52]	; (3d50 <EIC_Handler+0x5c>)
    3d1a:	781b      	ldrb	r3, [r3, #0]
    3d1c:	1c1a      	adds	r2, r3, #0
    3d1e:	4b0f      	ldr	r3, [pc, #60]	; (3d5c <EIC_Handler+0x68>)
    3d20:	0092      	lsls	r2, r2, #2
    3d22:	58d3      	ldr	r3, [r2, r3]
    3d24:	2b00      	cmp	r3, #0
    3d26:	d006      	beq.n	3d36 <EIC_Handler+0x42>
				/* Run the registered callback */
				_extint_dev.callbacks[_current_channel]();
    3d28:	4b09      	ldr	r3, [pc, #36]	; (3d50 <EIC_Handler+0x5c>)
    3d2a:	781b      	ldrb	r3, [r3, #0]
    3d2c:	1c1a      	adds	r2, r3, #0
    3d2e:	4b0b      	ldr	r3, [pc, #44]	; (3d5c <EIC_Handler+0x68>)
    3d30:	0092      	lsls	r2, r2, #2
    3d32:	58d3      	ldr	r3, [r2, r3]
    3d34:	4798      	blx	r3

/** Handler for the EXTINT hardware module interrupt. */
void EIC_Handler(void)
{
	/* Find any triggered channels, run associated callback handlers */
	for (_current_channel = 0; _current_channel < EIC_NUMBER_OF_INTERRUPTS ; _current_channel++) {
    3d36:	4b06      	ldr	r3, [pc, #24]	; (3d50 <EIC_Handler+0x5c>)
    3d38:	781b      	ldrb	r3, [r3, #0]
    3d3a:	3301      	adds	r3, #1
    3d3c:	b2da      	uxtb	r2, r3
    3d3e:	4b04      	ldr	r3, [pc, #16]	; (3d50 <EIC_Handler+0x5c>)
    3d40:	701a      	strb	r2, [r3, #0]
    3d42:	4b03      	ldr	r3, [pc, #12]	; (3d50 <EIC_Handler+0x5c>)
    3d44:	781b      	ldrb	r3, [r3, #0]
    3d46:	2b0f      	cmp	r3, #15
    3d48:	d9da      	bls.n	3d00 <EIC_Handler+0xc>
				/* Run the registered callback */
				_extint_dev.callbacks[_current_channel]();
			}
		}
	}
}
    3d4a:	46bd      	mov	sp, r7
    3d4c:	bd80      	pop	{r7, pc}
    3d4e:	46c0      	nop			; (mov r8, r8)
    3d50:	20000271 	.word	0x20000271
    3d54:	00003b81 	.word	0x00003b81
    3d58:	00003bc5 	.word	0x00003bc5
    3d5c:	20000274 	.word	0x20000274

00003d60 <system_gclk_chan_get_config_defaults>:
 *
 * \param[out] config  Configuration structure to initialize to default values
 */
static inline void system_gclk_chan_get_config_defaults(
		struct system_gclk_chan_config *const config)
{
    3d60:	b580      	push	{r7, lr}
    3d62:	b082      	sub	sp, #8
    3d64:	af00      	add	r7, sp, #0
    3d66:	6078      	str	r0, [r7, #4]
	/* Sanity check arguments */
	Assert(config);

	/* Default configuration values */
	config->source_generator = GCLK_GENERATOR_0;
    3d68:	687b      	ldr	r3, [r7, #4]
    3d6a:	2200      	movs	r2, #0
    3d6c:	701a      	strb	r2, [r3, #0]
}
    3d6e:	46bd      	mov	sp, r7
    3d70:	b002      	add	sp, #8
    3d72:	bd80      	pop	{r7, pc}

00003d74 <system_apb_clock_set_mask>:
 * \retval STATUS_OK               The clock mask was set successfully
 */
static inline enum status_code system_apb_clock_set_mask(
		const enum system_clock_apb_bus bus,
		const uint32_t mask)
{
    3d74:	b580      	push	{r7, lr}
    3d76:	b082      	sub	sp, #8
    3d78:	af00      	add	r7, sp, #0
    3d7a:	1c02      	adds	r2, r0, #0
    3d7c:	6039      	str	r1, [r7, #0]
    3d7e:	1dfb      	adds	r3, r7, #7
    3d80:	701a      	strb	r2, [r3, #0]
	switch (bus) {
    3d82:	1dfb      	adds	r3, r7, #7
    3d84:	781b      	ldrb	r3, [r3, #0]
    3d86:	2b01      	cmp	r3, #1
    3d88:	d00a      	beq.n	3da0 <system_apb_clock_set_mask+0x2c>
    3d8a:	2b02      	cmp	r3, #2
    3d8c:	d00f      	beq.n	3dae <system_apb_clock_set_mask+0x3a>
    3d8e:	2b00      	cmp	r3, #0
    3d90:	d114      	bne.n	3dbc <system_apb_clock_set_mask+0x48>
		case SYSTEM_CLOCK_APB_APBA:
			PM->APBAMASK.reg |= mask;
    3d92:	4b0e      	ldr	r3, [pc, #56]	; (3dcc <system_apb_clock_set_mask+0x58>)
    3d94:	4a0d      	ldr	r2, [pc, #52]	; (3dcc <system_apb_clock_set_mask+0x58>)
    3d96:	6991      	ldr	r1, [r2, #24]
    3d98:	683a      	ldr	r2, [r7, #0]
    3d9a:	430a      	orrs	r2, r1
    3d9c:	619a      	str	r2, [r3, #24]
			break;
    3d9e:	e00f      	b.n	3dc0 <system_apb_clock_set_mask+0x4c>

		case SYSTEM_CLOCK_APB_APBB:
			PM->APBBMASK.reg |= mask;
    3da0:	4b0a      	ldr	r3, [pc, #40]	; (3dcc <system_apb_clock_set_mask+0x58>)
    3da2:	4a0a      	ldr	r2, [pc, #40]	; (3dcc <system_apb_clock_set_mask+0x58>)
    3da4:	69d1      	ldr	r1, [r2, #28]
    3da6:	683a      	ldr	r2, [r7, #0]
    3da8:	430a      	orrs	r2, r1
    3daa:	61da      	str	r2, [r3, #28]
			break;
    3dac:	e008      	b.n	3dc0 <system_apb_clock_set_mask+0x4c>

		case SYSTEM_CLOCK_APB_APBC:
			PM->APBCMASK.reg |= mask;
    3dae:	4b07      	ldr	r3, [pc, #28]	; (3dcc <system_apb_clock_set_mask+0x58>)
    3db0:	4a06      	ldr	r2, [pc, #24]	; (3dcc <system_apb_clock_set_mask+0x58>)
    3db2:	6a11      	ldr	r1, [r2, #32]
    3db4:	683a      	ldr	r2, [r7, #0]
    3db6:	430a      	orrs	r2, r1
    3db8:	621a      	str	r2, [r3, #32]
			break;
    3dba:	e001      	b.n	3dc0 <system_apb_clock_set_mask+0x4c>

		default:
			Assert(false);
			return STATUS_ERR_INVALID_ARG;
    3dbc:	2317      	movs	r3, #23
    3dbe:	e000      	b.n	3dc2 <system_apb_clock_set_mask+0x4e>

	}

	return STATUS_OK;
    3dc0:	2300      	movs	r3, #0
}
    3dc2:	1c18      	adds	r0, r3, #0
    3dc4:	46bd      	mov	sp, r7
    3dc6:	b002      	add	sp, #8
    3dc8:	bd80      	pop	{r7, pc}
    3dca:	46c0      	nop			; (mov r8, r8)
    3dcc:	40000400 	.word	0x40000400

00003dd0 <system_pinmux_get_config_defaults>:
 *
 * \param[out] config  Configuration structure to initialize to default values
 */
static inline void system_pinmux_get_config_defaults(
		struct system_pinmux_config *const config)
{
    3dd0:	b580      	push	{r7, lr}
    3dd2:	b082      	sub	sp, #8
    3dd4:	af00      	add	r7, sp, #0
    3dd6:	6078      	str	r0, [r7, #4]
	/* Sanity check arguments */
	Assert(config);

	/* Default configuration values */
	config->mux_position = SYSTEM_PINMUX_GPIO;
    3dd8:	687b      	ldr	r3, [r7, #4]
    3dda:	2280      	movs	r2, #128	; 0x80
    3ddc:	701a      	strb	r2, [r3, #0]
	config->direction    = SYSTEM_PINMUX_PIN_DIR_INPUT;
    3dde:	687b      	ldr	r3, [r7, #4]
    3de0:	2200      	movs	r2, #0
    3de2:	705a      	strb	r2, [r3, #1]
	config->input_pull   = SYSTEM_PINMUX_PIN_PULL_UP;
    3de4:	687b      	ldr	r3, [r7, #4]
    3de6:	2201      	movs	r2, #1
    3de8:	709a      	strb	r2, [r3, #2]
	config->powersave    = false;
    3dea:	687b      	ldr	r3, [r7, #4]
    3dec:	2200      	movs	r2, #0
    3dee:	70da      	strb	r2, [r3, #3]
}
    3df0:	46bd      	mov	sp, r7
    3df2:	b002      	add	sp, #8
    3df4:	bd80      	pop	{r7, pc}
    3df6:	46c0      	nop			; (mov r8, r8)

00003df8 <system_interrupt_enable>:
 *
 * \param[in] vector Interrupt vector to enable
 */
static inline void system_interrupt_enable(
		const enum system_interrupt_vector vector)
{
    3df8:	b580      	push	{r7, lr}
    3dfa:	b082      	sub	sp, #8
    3dfc:	af00      	add	r7, sp, #0
    3dfe:	1c02      	adds	r2, r0, #0
    3e00:	1dfb      	adds	r3, r7, #7
    3e02:	701a      	strb	r2, [r3, #0]
	NVIC->ISER[0] = (uint32_t)(1 << ((uint32_t)vector & 0x0000001f));
    3e04:	4b06      	ldr	r3, [pc, #24]	; (3e20 <system_interrupt_enable+0x28>)
    3e06:	1dfa      	adds	r2, r7, #7
    3e08:	7812      	ldrb	r2, [r2, #0]
    3e0a:	1c11      	adds	r1, r2, #0
    3e0c:	221f      	movs	r2, #31
    3e0e:	400a      	ands	r2, r1
    3e10:	2101      	movs	r1, #1
    3e12:	4091      	lsls	r1, r2
    3e14:	1c0a      	adds	r2, r1, #0
    3e16:	601a      	str	r2, [r3, #0]
}
    3e18:	46bd      	mov	sp, r7
    3e1a:	b002      	add	sp, #8
    3e1c:	bd80      	pop	{r7, pc}
    3e1e:	46c0      	nop			; (mov r8, r8)
    3e20:	e000e100 	.word	0xe000e100

00003e24 <_extint_get_eic_from_channel>:
 *
 * \return Base address of the associated EIC module.
 */
static inline Eic * _extint_get_eic_from_channel(
		const uint8_t channel)
{
    3e24:	b580      	push	{r7, lr}
    3e26:	b084      	sub	sp, #16
    3e28:	af00      	add	r7, sp, #0
    3e2a:	1c02      	adds	r2, r0, #0
    3e2c:	1dfb      	adds	r3, r7, #7
    3e2e:	701a      	strb	r2, [r3, #0]
	uint8_t eic_index = (channel / 32);
    3e30:	230f      	movs	r3, #15
    3e32:	18fb      	adds	r3, r7, r3
    3e34:	1dfa      	adds	r2, r7, #7
    3e36:	7812      	ldrb	r2, [r2, #0]
    3e38:	0952      	lsrs	r2, r2, #5
    3e3a:	701a      	strb	r2, [r3, #0]

	if (eic_index < EIC_INST_NUM) {
    3e3c:	230f      	movs	r3, #15
    3e3e:	18fb      	adds	r3, r7, r3
    3e40:	781b      	ldrb	r3, [r3, #0]
    3e42:	2b00      	cmp	r3, #0
    3e44:	d10c      	bne.n	3e60 <_extint_get_eic_from_channel+0x3c>
		/* Array of available EICs */
		Eic *const eics[EIC_INST_NUM] = EIC_INSTS;
    3e46:	4b09      	ldr	r3, [pc, #36]	; (3e6c <_extint_get_eic_from_channel+0x48>)
    3e48:	60bb      	str	r3, [r7, #8]

		return eics[eic_index];
    3e4a:	230f      	movs	r3, #15
    3e4c:	18fb      	adds	r3, r7, r3
    3e4e:	781b      	ldrb	r3, [r3, #0]
    3e50:	009b      	lsls	r3, r3, #2
    3e52:	2210      	movs	r2, #16
    3e54:	4694      	mov	ip, r2
    3e56:	44bc      	add	ip, r7
    3e58:	4463      	add	r3, ip
    3e5a:	3b08      	subs	r3, #8
    3e5c:	681b      	ldr	r3, [r3, #0]
    3e5e:	e000      	b.n	3e62 <_extint_get_eic_from_channel+0x3e>
	} else {
		Assert(false);
		return NULL;
    3e60:	2300      	movs	r3, #0
	}
}
    3e62:	1c18      	adds	r0, r3, #0
    3e64:	46bd      	mov	sp, r7
    3e66:	b004      	add	sp, #16
    3e68:	bd80      	pop	{r7, pc}
    3e6a:	46c0      	nop			; (mov r8, r8)
    3e6c:	40001800 	.word	0x40001800

00003e70 <extint_is_syncing>:
 *
 * \retval true  If the module synchronization is ongoing
 * \retval false If the module has completed synchronization
 */
static inline bool extint_is_syncing(void)
{
    3e70:	b580      	push	{r7, lr}
    3e72:	b082      	sub	sp, #8
    3e74:	af00      	add	r7, sp, #0
	Eic *const eics[EIC_INST_NUM] = EIC_INSTS;
    3e76:	4b10      	ldr	r3, [pc, #64]	; (3eb8 <extint_is_syncing+0x48>)
    3e78:	603b      	str	r3, [r7, #0]

	for (uint32_t i = 0; i < EIC_INST_NUM; i++) {
    3e7a:	2300      	movs	r3, #0
    3e7c:	607b      	str	r3, [r7, #4]
    3e7e:	e012      	b.n	3ea6 <extint_is_syncing+0x36>
		if (eics[i]->STATUS.reg & EIC_STATUS_SYNCBUSY) {
    3e80:	687b      	ldr	r3, [r7, #4]
    3e82:	009b      	lsls	r3, r3, #2
    3e84:	2208      	movs	r2, #8
    3e86:	4694      	mov	ip, r2
    3e88:	44bc      	add	ip, r7
    3e8a:	4463      	add	r3, ip
    3e8c:	3b08      	subs	r3, #8
    3e8e:	681b      	ldr	r3, [r3, #0]
    3e90:	785b      	ldrb	r3, [r3, #1]
    3e92:	b2db      	uxtb	r3, r3
    3e94:	b2db      	uxtb	r3, r3
    3e96:	b25b      	sxtb	r3, r3
    3e98:	2b00      	cmp	r3, #0
    3e9a:	da01      	bge.n	3ea0 <extint_is_syncing+0x30>
			return true;
    3e9c:	2301      	movs	r3, #1
    3e9e:	e006      	b.n	3eae <extint_is_syncing+0x3e>
 */
static inline bool extint_is_syncing(void)
{
	Eic *const eics[EIC_INST_NUM] = EIC_INSTS;

	for (uint32_t i = 0; i < EIC_INST_NUM; i++) {
    3ea0:	687b      	ldr	r3, [r7, #4]
    3ea2:	3301      	adds	r3, #1
    3ea4:	607b      	str	r3, [r7, #4]
    3ea6:	687b      	ldr	r3, [r7, #4]
    3ea8:	2b00      	cmp	r3, #0
    3eaa:	d0e9      	beq.n	3e80 <extint_is_syncing+0x10>
		if (eics[i]->STATUS.reg & EIC_STATUS_SYNCBUSY) {
			return true;
		}
	}
	return false;
    3eac:	2300      	movs	r3, #0
}
    3eae:	1c18      	adds	r0, r3, #0
    3eb0:	46bd      	mov	sp, r7
    3eb2:	b002      	add	sp, #8
    3eb4:	bd80      	pop	{r7, pc}
    3eb6:	46c0      	nop			; (mov r8, r8)
    3eb8:	40001800 	.word	0x40001800

00003ebc <_system_extint_init>:
 * \note When SYSTEM module is used, this function will be invoked by
 * \ref system_init() automatically if the module is included.
 */
void _system_extint_init(void);
void _system_extint_init(void)
{
    3ebc:	b580      	push	{r7, lr}
    3ebe:	b084      	sub	sp, #16
    3ec0:	af00      	add	r7, sp, #0
	Eic *const eics[EIC_INST_NUM] = EIC_INSTS;
    3ec2:	4b2c      	ldr	r3, [pc, #176]	; (3f74 <_system_extint_init+0xb8>)
    3ec4:	607b      	str	r3, [r7, #4]

	/* Turn on the digital interface clock */
	system_apb_clock_set_mask(SYSTEM_CLOCK_APB_APBA, PM_APBAMASK_EIC);
    3ec6:	2000      	movs	r0, #0
    3ec8:	2140      	movs	r1, #64	; 0x40
    3eca:	4b2b      	ldr	r3, [pc, #172]	; (3f78 <_system_extint_init+0xbc>)
    3ecc:	4798      	blx	r3

	/* Configure the generic clock for the module and enable it */
	struct system_gclk_chan_config gclk_chan_conf;
	system_gclk_chan_get_config_defaults(&gclk_chan_conf);
    3ece:	1c3b      	adds	r3, r7, #0
    3ed0:	1c18      	adds	r0, r3, #0
    3ed2:	4b2a      	ldr	r3, [pc, #168]	; (3f7c <_system_extint_init+0xc0>)
    3ed4:	4798      	blx	r3
	gclk_chan_conf.source_generator = EXTINT_CLOCK_SOURCE;
    3ed6:	1c3b      	adds	r3, r7, #0
    3ed8:	2200      	movs	r2, #0
    3eda:	701a      	strb	r2, [r3, #0]
	system_gclk_chan_set_config(EIC_GCLK_ID, &gclk_chan_conf);
    3edc:	1c3b      	adds	r3, r7, #0
    3ede:	2005      	movs	r0, #5
    3ee0:	1c19      	adds	r1, r3, #0
    3ee2:	4b27      	ldr	r3, [pc, #156]	; (3f80 <_system_extint_init+0xc4>)
    3ee4:	4798      	blx	r3

	/* Enable the clock anyway, since when needed it will be requested
	 * by External Interrupt driver */
	system_gclk_chan_enable(EIC_GCLK_ID);
    3ee6:	2005      	movs	r0, #5
    3ee8:	4b26      	ldr	r3, [pc, #152]	; (3f84 <_system_extint_init+0xc8>)
    3eea:	4798      	blx	r3

	/* Reset all EIC hardware modules. */
	for (uint32_t i = 0; i < EIC_INST_NUM; i++) {
    3eec:	2300      	movs	r3, #0
    3eee:	60fb      	str	r3, [r7, #12]
    3ef0:	e018      	b.n	3f24 <_system_extint_init+0x68>
		eics[i]->CTRL.reg |= EIC_CTRL_SWRST;
    3ef2:	68fb      	ldr	r3, [r7, #12]
    3ef4:	009b      	lsls	r3, r3, #2
    3ef6:	2210      	movs	r2, #16
    3ef8:	4694      	mov	ip, r2
    3efa:	44bc      	add	ip, r7
    3efc:	4463      	add	r3, ip
    3efe:	3b0c      	subs	r3, #12
    3f00:	681a      	ldr	r2, [r3, #0]
    3f02:	68fb      	ldr	r3, [r7, #12]
    3f04:	009b      	lsls	r3, r3, #2
    3f06:	2110      	movs	r1, #16
    3f08:	468c      	mov	ip, r1
    3f0a:	44bc      	add	ip, r7
    3f0c:	4463      	add	r3, ip
    3f0e:	3b0c      	subs	r3, #12
    3f10:	681b      	ldr	r3, [r3, #0]
    3f12:	781b      	ldrb	r3, [r3, #0]
    3f14:	b2db      	uxtb	r3, r3
    3f16:	2101      	movs	r1, #1
    3f18:	430b      	orrs	r3, r1
    3f1a:	b2db      	uxtb	r3, r3
    3f1c:	7013      	strb	r3, [r2, #0]
	/* Enable the clock anyway, since when needed it will be requested
	 * by External Interrupt driver */
	system_gclk_chan_enable(EIC_GCLK_ID);

	/* Reset all EIC hardware modules. */
	for (uint32_t i = 0; i < EIC_INST_NUM; i++) {
    3f1e:	68fb      	ldr	r3, [r7, #12]
    3f20:	3301      	adds	r3, #1
    3f22:	60fb      	str	r3, [r7, #12]
    3f24:	68fb      	ldr	r3, [r7, #12]
    3f26:	2b00      	cmp	r3, #0
    3f28:	d0e3      	beq.n	3ef2 <_system_extint_init+0x36>
		eics[i]->CTRL.reg |= EIC_CTRL_SWRST;
	}

	while (extint_is_syncing()) {
    3f2a:	46c0      	nop			; (mov r8, r8)
    3f2c:	4b16      	ldr	r3, [pc, #88]	; (3f88 <_system_extint_init+0xcc>)
    3f2e:	4798      	blx	r3
    3f30:	1e03      	subs	r3, r0, #0
    3f32:	d1fb      	bne.n	3f2c <_system_extint_init+0x70>
	}

	/* Reset the software module */
#if EXTINT_CALLBACK_MODE == true
	/* Clear callback registration table */
	for (uint8_t j = 0; j < EIC_NUMBER_OF_INTERRUPTS; j++) {
    3f34:	230b      	movs	r3, #11
    3f36:	18fb      	adds	r3, r7, r3
    3f38:	2200      	movs	r2, #0
    3f3a:	701a      	strb	r2, [r3, #0]
    3f3c:	e00d      	b.n	3f5a <_system_extint_init+0x9e>
		_extint_dev.callbacks[j] = NULL;
    3f3e:	230b      	movs	r3, #11
    3f40:	18fb      	adds	r3, r7, r3
    3f42:	781a      	ldrb	r2, [r3, #0]
    3f44:	4b11      	ldr	r3, [pc, #68]	; (3f8c <_system_extint_init+0xd0>)
    3f46:	0092      	lsls	r2, r2, #2
    3f48:	2100      	movs	r1, #0
    3f4a:	50d1      	str	r1, [r2, r3]
	}

	/* Reset the software module */
#if EXTINT_CALLBACK_MODE == true
	/* Clear callback registration table */
	for (uint8_t j = 0; j < EIC_NUMBER_OF_INTERRUPTS; j++) {
    3f4c:	230b      	movs	r3, #11
    3f4e:	18fb      	adds	r3, r7, r3
    3f50:	781a      	ldrb	r2, [r3, #0]
    3f52:	230b      	movs	r3, #11
    3f54:	18fb      	adds	r3, r7, r3
    3f56:	3201      	adds	r2, #1
    3f58:	701a      	strb	r2, [r3, #0]
    3f5a:	230b      	movs	r3, #11
    3f5c:	18fb      	adds	r3, r7, r3
    3f5e:	781b      	ldrb	r3, [r3, #0]
    3f60:	2b0f      	cmp	r3, #15
    3f62:	d9ec      	bls.n	3f3e <_system_extint_init+0x82>
		_extint_dev.callbacks[j] = NULL;
	}
	system_interrupt_enable(SYSTEM_INTERRUPT_MODULE_EIC);
    3f64:	2004      	movs	r0, #4
    3f66:	4b0a      	ldr	r3, [pc, #40]	; (3f90 <_system_extint_init+0xd4>)
    3f68:	4798      	blx	r3
#endif

	/* Enables the driver for further use */
	_extint_enable();
    3f6a:	4b0a      	ldr	r3, [pc, #40]	; (3f94 <_system_extint_init+0xd8>)
    3f6c:	4798      	blx	r3
}
    3f6e:	46bd      	mov	sp, r7
    3f70:	b004      	add	sp, #16
    3f72:	bd80      	pop	{r7, pc}
    3f74:	40001800 	.word	0x40001800
    3f78:	00003d75 	.word	0x00003d75
    3f7c:	00003d61 	.word	0x00003d61
    3f80:	00004c01 	.word	0x00004c01
    3f84:	00004c45 	.word	0x00004c45
    3f88:	00003e71 	.word	0x00003e71
    3f8c:	20000274 	.word	0x20000274
    3f90:	00003df9 	.word	0x00003df9
    3f94:	00003f99 	.word	0x00003f99

00003f98 <_extint_enable>:
 *
 * Enables EIC modules.
 * Registered callback list will not be affected if callback mode is used.
 */
void _extint_enable(void)
{
    3f98:	b580      	push	{r7, lr}
    3f9a:	b082      	sub	sp, #8
    3f9c:	af00      	add	r7, sp, #0
	Eic *const eics[EIC_INST_NUM] = EIC_INSTS;
    3f9e:	4b14      	ldr	r3, [pc, #80]	; (3ff0 <_extint_enable+0x58>)
    3fa0:	603b      	str	r3, [r7, #0]

	/* Enable all EIC hardware modules. */
	for (uint32_t i = 0; i < EIC_INST_NUM; i++) {
    3fa2:	2300      	movs	r3, #0
    3fa4:	607b      	str	r3, [r7, #4]
    3fa6:	e018      	b.n	3fda <_extint_enable+0x42>
		eics[i]->CTRL.reg |= EIC_CTRL_ENABLE;
    3fa8:	687b      	ldr	r3, [r7, #4]
    3faa:	009b      	lsls	r3, r3, #2
    3fac:	2208      	movs	r2, #8
    3fae:	4694      	mov	ip, r2
    3fb0:	44bc      	add	ip, r7
    3fb2:	4463      	add	r3, ip
    3fb4:	3b08      	subs	r3, #8
    3fb6:	681a      	ldr	r2, [r3, #0]
    3fb8:	687b      	ldr	r3, [r7, #4]
    3fba:	009b      	lsls	r3, r3, #2
    3fbc:	2108      	movs	r1, #8
    3fbe:	468c      	mov	ip, r1
    3fc0:	44bc      	add	ip, r7
    3fc2:	4463      	add	r3, ip
    3fc4:	3b08      	subs	r3, #8
    3fc6:	681b      	ldr	r3, [r3, #0]
    3fc8:	781b      	ldrb	r3, [r3, #0]
    3fca:	b2db      	uxtb	r3, r3
    3fcc:	2102      	movs	r1, #2
    3fce:	430b      	orrs	r3, r1
    3fd0:	b2db      	uxtb	r3, r3
    3fd2:	7013      	strb	r3, [r2, #0]
void _extint_enable(void)
{
	Eic *const eics[EIC_INST_NUM] = EIC_INSTS;

	/* Enable all EIC hardware modules. */
	for (uint32_t i = 0; i < EIC_INST_NUM; i++) {
    3fd4:	687b      	ldr	r3, [r7, #4]
    3fd6:	3301      	adds	r3, #1
    3fd8:	607b      	str	r3, [r7, #4]
    3fda:	687b      	ldr	r3, [r7, #4]
    3fdc:	2b00      	cmp	r3, #0
    3fde:	d0e3      	beq.n	3fa8 <_extint_enable+0x10>
		eics[i]->CTRL.reg |= EIC_CTRL_ENABLE;
	}

	while (extint_is_syncing()) {
    3fe0:	46c0      	nop			; (mov r8, r8)
    3fe2:	4b04      	ldr	r3, [pc, #16]	; (3ff4 <_extint_enable+0x5c>)
    3fe4:	4798      	blx	r3
    3fe6:	1e03      	subs	r3, r0, #0
    3fe8:	d1fb      	bne.n	3fe2 <_extint_enable+0x4a>
		/* Wait for all hardware modules to complete synchronization */
	}
}
    3fea:	46bd      	mov	sp, r7
    3fec:	b002      	add	sp, #8
    3fee:	bd80      	pop	{r7, pc}
    3ff0:	40001800 	.word	0x40001800
    3ff4:	00003e71 	.word	0x00003e71

00003ff8 <extint_chan_get_config_defaults>:
 *
 * \param[out] config  Configuration structure to initialize to default values
 */
void extint_chan_get_config_defaults(
		struct extint_chan_conf *const config)
{
    3ff8:	b580      	push	{r7, lr}
    3ffa:	b082      	sub	sp, #8
    3ffc:	af00      	add	r7, sp, #0
    3ffe:	6078      	str	r0, [r7, #4]
	/* Sanity check arguments */
	Assert(config);

	/* Default configuration values */
	config->gpio_pin            = 0;
    4000:	687b      	ldr	r3, [r7, #4]
    4002:	2200      	movs	r2, #0
    4004:	601a      	str	r2, [r3, #0]
	config->gpio_pin_mux        = 0;
    4006:	687b      	ldr	r3, [r7, #4]
    4008:	2200      	movs	r2, #0
    400a:	605a      	str	r2, [r3, #4]
	config->gpio_pin_pull       = EXTINT_PULL_UP;
    400c:	687b      	ldr	r3, [r7, #4]
    400e:	2201      	movs	r2, #1
    4010:	721a      	strb	r2, [r3, #8]
	config->wake_if_sleeping    = true;
    4012:	687b      	ldr	r3, [r7, #4]
    4014:	2201      	movs	r2, #1
    4016:	725a      	strb	r2, [r3, #9]
	config->filter_input_signal = false;
    4018:	687b      	ldr	r3, [r7, #4]
    401a:	2200      	movs	r2, #0
    401c:	729a      	strb	r2, [r3, #10]
	config->detection_criteria  = EXTINT_DETECT_FALLING;
    401e:	687b      	ldr	r3, [r7, #4]
    4020:	2202      	movs	r2, #2
    4022:	72da      	strb	r2, [r3, #11]
}
    4024:	46bd      	mov	sp, r7
    4026:	b002      	add	sp, #8
    4028:	bd80      	pop	{r7, pc}
    402a:	46c0      	nop			; (mov r8, r8)

0000402c <extint_chan_set_config>:

 */
void extint_chan_set_config(
		const uint8_t channel,
		const struct extint_chan_conf *const config)
{
    402c:	b580      	push	{r7, lr}
    402e:	b086      	sub	sp, #24
    4030:	af00      	add	r7, sp, #0
    4032:	1c02      	adds	r2, r0, #0
    4034:	6039      	str	r1, [r7, #0]
    4036:	1dfb      	adds	r3, r7, #7
    4038:	701a      	strb	r2, [r3, #0]
	Assert(!(!system_gclk_gen_is_enabled(EXTINT_CLOCK_SOURCE) &&
		_extint_is_gclk_required(config->filter_input_signal,
			config->detection_criteria)));

	struct system_pinmux_config pinmux_config;
	system_pinmux_get_config_defaults(&pinmux_config);
    403a:	2308      	movs	r3, #8
    403c:	18fb      	adds	r3, r7, r3
    403e:	1c18      	adds	r0, r3, #0
    4040:	4b36      	ldr	r3, [pc, #216]	; (411c <extint_chan_set_config+0xf0>)
    4042:	4798      	blx	r3

	pinmux_config.mux_position = config->gpio_pin_mux;
    4044:	683b      	ldr	r3, [r7, #0]
    4046:	685b      	ldr	r3, [r3, #4]
    4048:	b2da      	uxtb	r2, r3
    404a:	2308      	movs	r3, #8
    404c:	18fb      	adds	r3, r7, r3
    404e:	701a      	strb	r2, [r3, #0]
	pinmux_config.direction    = SYSTEM_PINMUX_PIN_DIR_INPUT;
    4050:	2308      	movs	r3, #8
    4052:	18fb      	adds	r3, r7, r3
    4054:	2200      	movs	r2, #0
    4056:	705a      	strb	r2, [r3, #1]
	pinmux_config.input_pull   = (enum system_pinmux_pin_pull)config->gpio_pin_pull;
    4058:	683b      	ldr	r3, [r7, #0]
    405a:	7a1a      	ldrb	r2, [r3, #8]
    405c:	2308      	movs	r3, #8
    405e:	18fb      	adds	r3, r7, r3
    4060:	709a      	strb	r2, [r3, #2]
	system_pinmux_pin_set_config(config->gpio_pin, &pinmux_config);
    4062:	683b      	ldr	r3, [r7, #0]
    4064:	681b      	ldr	r3, [r3, #0]
    4066:	b2da      	uxtb	r2, r3
    4068:	2308      	movs	r3, #8
    406a:	18fb      	adds	r3, r7, r3
    406c:	1c10      	adds	r0, r2, #0
    406e:	1c19      	adds	r1, r3, #0
    4070:	4b2b      	ldr	r3, [pc, #172]	; (4120 <extint_chan_set_config+0xf4>)
    4072:	4798      	blx	r3

	/* Get a pointer to the module hardware instance */
	Eic *const EIC_module = _extint_get_eic_from_channel(channel);
    4074:	1dfb      	adds	r3, r7, #7
    4076:	781b      	ldrb	r3, [r3, #0]
    4078:	1c18      	adds	r0, r3, #0
    407a:	4b2a      	ldr	r3, [pc, #168]	; (4124 <extint_chan_set_config+0xf8>)
    407c:	4798      	blx	r3
    407e:	1c03      	adds	r3, r0, #0
    4080:	613b      	str	r3, [r7, #16]

	uint32_t config_pos = (4 * (channel % 8));
    4082:	1dfb      	adds	r3, r7, #7
    4084:	781b      	ldrb	r3, [r3, #0]
    4086:	2207      	movs	r2, #7
    4088:	4013      	ands	r3, r2
    408a:	009b      	lsls	r3, r3, #2
    408c:	60fb      	str	r3, [r7, #12]
	uint32_t new_config;

	/* Determine the channel's new edge detection configuration */
	new_config = (config->detection_criteria << EIC_CONFIG_SENSE0_Pos);
    408e:	683b      	ldr	r3, [r7, #0]
    4090:	7adb      	ldrb	r3, [r3, #11]
    4092:	617b      	str	r3, [r7, #20]

	/* Enable the hardware signal filter if requested in the config */
	if (config->filter_input_signal) {
    4094:	683b      	ldr	r3, [r7, #0]
    4096:	7a9b      	ldrb	r3, [r3, #10]
    4098:	2b00      	cmp	r3, #0
    409a:	d003      	beq.n	40a4 <extint_chan_set_config+0x78>
		new_config |= EIC_CONFIG_FILTEN0;
    409c:	697b      	ldr	r3, [r7, #20]
    409e:	2208      	movs	r2, #8
    40a0:	4313      	orrs	r3, r2
    40a2:	617b      	str	r3, [r7, #20]
	}

	/* Clear the existing and set the new channel configuration */
	EIC_module->CONFIG[channel / 8].reg
    40a4:	1dfb      	adds	r3, r7, #7
    40a6:	781b      	ldrb	r3, [r3, #0]
    40a8:	08db      	lsrs	r3, r3, #3
    40aa:	b2db      	uxtb	r3, r3
    40ac:	1c18      	adds	r0, r3, #0
		= (EIC_module->CONFIG[channel / 8].reg &
    40ae:	1dfb      	adds	r3, r7, #7
    40b0:	781b      	ldrb	r3, [r3, #0]
    40b2:	08db      	lsrs	r3, r3, #3
    40b4:	b2db      	uxtb	r3, r3
    40b6:	1c1a      	adds	r2, r3, #0
    40b8:	693b      	ldr	r3, [r7, #16]
    40ba:	3206      	adds	r2, #6
    40bc:	0092      	lsls	r2, r2, #2
    40be:	58d3      	ldr	r3, [r2, r3]
			~((EIC_CONFIG_SENSE0_Msk | EIC_CONFIG_FILTEN0) << config_pos)) |
    40c0:	68fa      	ldr	r2, [r7, #12]
    40c2:	210f      	movs	r1, #15
    40c4:	4091      	lsls	r1, r2
    40c6:	1c0a      	adds	r2, r1, #0
    40c8:	43d2      	mvns	r2, r2
		new_config |= EIC_CONFIG_FILTEN0;
	}

	/* Clear the existing and set the new channel configuration */
	EIC_module->CONFIG[channel / 8].reg
		= (EIC_module->CONFIG[channel / 8].reg &
    40ca:	401a      	ands	r2, r3
			~((EIC_CONFIG_SENSE0_Msk | EIC_CONFIG_FILTEN0) << config_pos)) |
			(new_config << config_pos);
    40cc:	68fb      	ldr	r3, [r7, #12]
    40ce:	6979      	ldr	r1, [r7, #20]
    40d0:	4099      	lsls	r1, r3
    40d2:	1c0b      	adds	r3, r1, #0
	}

	/* Clear the existing and set the new channel configuration */
	EIC_module->CONFIG[channel / 8].reg
		= (EIC_module->CONFIG[channel / 8].reg &
			~((EIC_CONFIG_SENSE0_Msk | EIC_CONFIG_FILTEN0) << config_pos)) |
    40d4:	431a      	orrs	r2, r3
    40d6:	1c11      	adds	r1, r2, #0
		new_config |= EIC_CONFIG_FILTEN0;
	}

	/* Clear the existing and set the new channel configuration */
	EIC_module->CONFIG[channel / 8].reg
		= (EIC_module->CONFIG[channel / 8].reg &
    40d8:	693b      	ldr	r3, [r7, #16]
    40da:	1d82      	adds	r2, r0, #6
    40dc:	0092      	lsls	r2, r2, #2
    40de:	50d1      	str	r1, [r2, r3]
			~((EIC_CONFIG_SENSE0_Msk | EIC_CONFIG_FILTEN0) << config_pos)) |
			(new_config << config_pos);

	/* Set the channel's new wake up mode setting */
	if (config->wake_if_sleeping) {
    40e0:	683b      	ldr	r3, [r7, #0]
    40e2:	7a5b      	ldrb	r3, [r3, #9]
    40e4:	2b00      	cmp	r3, #0
    40e6:	d00a      	beq.n	40fe <extint_chan_set_config+0xd2>
		EIC_module->WAKEUP.reg |=  (1UL << channel);
    40e8:	693b      	ldr	r3, [r7, #16]
    40ea:	695a      	ldr	r2, [r3, #20]
    40ec:	1dfb      	adds	r3, r7, #7
    40ee:	781b      	ldrb	r3, [r3, #0]
    40f0:	2101      	movs	r1, #1
    40f2:	4099      	lsls	r1, r3
    40f4:	1c0b      	adds	r3, r1, #0
    40f6:	431a      	orrs	r2, r3
    40f8:	693b      	ldr	r3, [r7, #16]
    40fa:	615a      	str	r2, [r3, #20]
    40fc:	e00a      	b.n	4114 <extint_chan_set_config+0xe8>
	} else {
		EIC_module->WAKEUP.reg &= ~(1UL << channel);
    40fe:	693b      	ldr	r3, [r7, #16]
    4100:	695b      	ldr	r3, [r3, #20]
    4102:	1dfa      	adds	r2, r7, #7
    4104:	7812      	ldrb	r2, [r2, #0]
    4106:	2101      	movs	r1, #1
    4108:	4091      	lsls	r1, r2
    410a:	1c0a      	adds	r2, r1, #0
    410c:	43d2      	mvns	r2, r2
    410e:	401a      	ands	r2, r3
    4110:	693b      	ldr	r3, [r7, #16]
    4112:	615a      	str	r2, [r3, #20]
	}
}
    4114:	46bd      	mov	sp, r7
    4116:	b006      	add	sp, #24
    4118:	bd80      	pop	{r7, pc}
    411a:	46c0      	nop			; (mov r8, r8)
    411c:	00003dd1 	.word	0x00003dd1
    4120:	00004eed 	.word	0x00004eed
    4124:	00003e25 	.word	0x00003e25

00004128 <system_pinmux_get_config_defaults>:
 *
 * \param[out] config  Configuration structure to initialize to default values
 */
static inline void system_pinmux_get_config_defaults(
		struct system_pinmux_config *const config)
{
    4128:	b580      	push	{r7, lr}
    412a:	b082      	sub	sp, #8
    412c:	af00      	add	r7, sp, #0
    412e:	6078      	str	r0, [r7, #4]
	/* Sanity check arguments */
	Assert(config);

	/* Default configuration values */
	config->mux_position = SYSTEM_PINMUX_GPIO;
    4130:	687b      	ldr	r3, [r7, #4]
    4132:	2280      	movs	r2, #128	; 0x80
    4134:	701a      	strb	r2, [r3, #0]
	config->direction    = SYSTEM_PINMUX_PIN_DIR_INPUT;
    4136:	687b      	ldr	r3, [r7, #4]
    4138:	2200      	movs	r2, #0
    413a:	705a      	strb	r2, [r3, #1]
	config->input_pull   = SYSTEM_PINMUX_PIN_PULL_UP;
    413c:	687b      	ldr	r3, [r7, #4]
    413e:	2201      	movs	r2, #1
    4140:	709a      	strb	r2, [r3, #2]
	config->powersave    = false;
    4142:	687b      	ldr	r3, [r7, #4]
    4144:	2200      	movs	r2, #0
    4146:	70da      	strb	r2, [r3, #3]
}
    4148:	46bd      	mov	sp, r7
    414a:	b002      	add	sp, #8
    414c:	bd80      	pop	{r7, pc}
    414e:	46c0      	nop			; (mov r8, r8)

00004150 <port_pin_set_config>:
 *  \param[in] config    Configuration settings for the pin
 */
void port_pin_set_config(
		const uint8_t gpio_pin,
		const struct port_config *const config)
{
    4150:	b580      	push	{r7, lr}
    4152:	b084      	sub	sp, #16
    4154:	af00      	add	r7, sp, #0
    4156:	1c02      	adds	r2, r0, #0
    4158:	6039      	str	r1, [r7, #0]
    415a:	1dfb      	adds	r3, r7, #7
    415c:	701a      	strb	r2, [r3, #0]
	/* Sanity check arguments */
	Assert(config);

	struct system_pinmux_config pinmux_config;
	system_pinmux_get_config_defaults(&pinmux_config);
    415e:	230c      	movs	r3, #12
    4160:	18fb      	adds	r3, r7, r3
    4162:	1c18      	adds	r0, r3, #0
    4164:	4b0f      	ldr	r3, [pc, #60]	; (41a4 <port_pin_set_config+0x54>)
    4166:	4798      	blx	r3

	pinmux_config.mux_position = SYSTEM_PINMUX_GPIO;
    4168:	230c      	movs	r3, #12
    416a:	18fb      	adds	r3, r7, r3
    416c:	2280      	movs	r2, #128	; 0x80
    416e:	701a      	strb	r2, [r3, #0]
	pinmux_config.direction    = (enum system_pinmux_pin_dir)config->direction;
    4170:	683b      	ldr	r3, [r7, #0]
    4172:	781a      	ldrb	r2, [r3, #0]
    4174:	230c      	movs	r3, #12
    4176:	18fb      	adds	r3, r7, r3
    4178:	705a      	strb	r2, [r3, #1]
	pinmux_config.input_pull   = (enum system_pinmux_pin_pull)config->input_pull;
    417a:	683b      	ldr	r3, [r7, #0]
    417c:	785a      	ldrb	r2, [r3, #1]
    417e:	230c      	movs	r3, #12
    4180:	18fb      	adds	r3, r7, r3
    4182:	709a      	strb	r2, [r3, #2]
	pinmux_config.powersave    = config->powersave;
    4184:	683b      	ldr	r3, [r7, #0]
    4186:	789a      	ldrb	r2, [r3, #2]
    4188:	230c      	movs	r3, #12
    418a:	18fb      	adds	r3, r7, r3
    418c:	70da      	strb	r2, [r3, #3]

	system_pinmux_pin_set_config(gpio_pin, &pinmux_config);
    418e:	1dfb      	adds	r3, r7, #7
    4190:	781a      	ldrb	r2, [r3, #0]
    4192:	230c      	movs	r3, #12
    4194:	18fb      	adds	r3, r7, r3
    4196:	1c10      	adds	r0, r2, #0
    4198:	1c19      	adds	r1, r3, #0
    419a:	4b03      	ldr	r3, [pc, #12]	; (41a8 <port_pin_set_config+0x58>)
    419c:	4798      	blx	r3
}
    419e:	46bd      	mov	sp, r7
    41a0:	b004      	add	sp, #16
    41a2:	bd80      	pop	{r7, pc}
    41a4:	00004129 	.word	0x00004129
    41a8:	00004eed 	.word	0x00004eed

000041ac <system_gclk_gen_get_config_defaults>:
 *
 * \param[out] config  Configuration structure to initialize to default values
 */
static inline void system_gclk_gen_get_config_defaults(
		struct system_gclk_gen_config *const config)
{
    41ac:	b580      	push	{r7, lr}
    41ae:	b082      	sub	sp, #8
    41b0:	af00      	add	r7, sp, #0
    41b2:	6078      	str	r0, [r7, #4]
	/* Sanity check arguments */
	Assert(config);

	/* Default configuration values */
	config->division_factor    = 1;
    41b4:	687b      	ldr	r3, [r7, #4]
    41b6:	2201      	movs	r2, #1
    41b8:	605a      	str	r2, [r3, #4]
	config->high_when_disabled = false;
    41ba:	687b      	ldr	r3, [r7, #4]
    41bc:	2200      	movs	r2, #0
    41be:	705a      	strb	r2, [r3, #1]
#if SAML21 || SAML22
	config->source_clock       = GCLK_SOURCE_OSC16M;
#elif (SAMC20) || (SAMC21)
	config->source_clock       = GCLK_SOURCE_OSC48M;
#else
	config->source_clock       = GCLK_SOURCE_OSC8M;
    41c0:	687b      	ldr	r3, [r7, #4]
    41c2:	2206      	movs	r2, #6
    41c4:	701a      	strb	r2, [r3, #0]
#endif
	config->run_in_standby     = false;
    41c6:	687b      	ldr	r3, [r7, #4]
    41c8:	2200      	movs	r2, #0
    41ca:	721a      	strb	r2, [r3, #8]
	config->output_enable      = false;
    41cc:	687b      	ldr	r3, [r7, #4]
    41ce:	2200      	movs	r2, #0
    41d0:	725a      	strb	r2, [r3, #9]
}
    41d2:	46bd      	mov	sp, r7
    41d4:	b002      	add	sp, #8
    41d6:	bd80      	pop	{r7, pc}

000041d8 <system_clock_source_osc8m_get_config_defaults>:
 *
 * \param[out] config  Configuration structure to fill with default values
 */
static inline void system_clock_source_osc8m_get_config_defaults(
		struct system_clock_source_osc8m_config *const config)
{
    41d8:	b580      	push	{r7, lr}
    41da:	b082      	sub	sp, #8
    41dc:	af00      	add	r7, sp, #0
    41de:	6078      	str	r0, [r7, #4]
	Assert(config);

	config->prescaler       = SYSTEM_OSC8M_DIV_8;
    41e0:	687b      	ldr	r3, [r7, #4]
    41e2:	2203      	movs	r2, #3
    41e4:	701a      	strb	r2, [r3, #0]
	config->run_in_standby  = false;
    41e6:	687b      	ldr	r3, [r7, #4]
    41e8:	2200      	movs	r2, #0
    41ea:	705a      	strb	r2, [r3, #1]
	config->on_demand       = true;
    41ec:	687b      	ldr	r3, [r7, #4]
    41ee:	2201      	movs	r2, #1
    41f0:	709a      	strb	r2, [r3, #2]
}
    41f2:	46bd      	mov	sp, r7
    41f4:	b002      	add	sp, #8
    41f6:	bd80      	pop	{r7, pc}

000041f8 <system_clock_source_dfll_get_config_defaults>:
 *
 * \param[out] config  Configuration structure to fill with default values
 */
static inline void system_clock_source_dfll_get_config_defaults(
		struct system_clock_source_dfll_config *const config)
{
    41f8:	b580      	push	{r7, lr}
    41fa:	b082      	sub	sp, #8
    41fc:	af00      	add	r7, sp, #0
    41fe:	6078      	str	r0, [r7, #4]
	Assert(config);

	config->loop_mode       = SYSTEM_CLOCK_DFLL_LOOP_MODE_OPEN;
    4200:	687b      	ldr	r3, [r7, #4]
    4202:	2200      	movs	r2, #0
    4204:	701a      	strb	r2, [r3, #0]
	config->quick_lock      = SYSTEM_CLOCK_DFLL_QUICK_LOCK_ENABLE;
    4206:	687b      	ldr	r3, [r7, #4]
    4208:	2200      	movs	r2, #0
    420a:	805a      	strh	r2, [r3, #2]
	config->chill_cycle     = SYSTEM_CLOCK_DFLL_CHILL_CYCLE_ENABLE;
    420c:	687b      	ldr	r3, [r7, #4]
    420e:	2200      	movs	r2, #0
    4210:	809a      	strh	r2, [r3, #4]
	config->wakeup_lock     = SYSTEM_CLOCK_DFLL_WAKEUP_LOCK_KEEP;
    4212:	687b      	ldr	r3, [r7, #4]
    4214:	2200      	movs	r2, #0
    4216:	719a      	strb	r2, [r3, #6]
	config->stable_tracking = SYSTEM_CLOCK_DFLL_STABLE_TRACKING_TRACK_AFTER_LOCK;
    4218:	687b      	ldr	r3, [r7, #4]
    421a:	2200      	movs	r2, #0
    421c:	71da      	strb	r2, [r3, #7]
	config->on_demand       = true;
    421e:	687b      	ldr	r3, [r7, #4]
    4220:	2201      	movs	r2, #1
    4222:	705a      	strb	r2, [r3, #1]

	/* Open loop mode calibration value */
	config->coarse_value    = 0x1f / 4; /* Midpoint */
    4224:	687b      	ldr	r3, [r7, #4]
    4226:	2207      	movs	r2, #7
    4228:	721a      	strb	r2, [r3, #8]
	config->fine_value      = 0xff / 4; /* Midpoint */
    422a:	687b      	ldr	r3, [r7, #4]
    422c:	223f      	movs	r2, #63	; 0x3f
    422e:	815a      	strh	r2, [r3, #10]

	/* Closed loop mode */
	config->coarse_max_step = 1;
    4230:	687b      	ldr	r3, [r7, #4]
    4232:	2201      	movs	r2, #1
    4234:	731a      	strb	r2, [r3, #12]
	config->fine_max_step   = 1;
    4236:	687b      	ldr	r3, [r7, #4]
    4238:	2201      	movs	r2, #1
    423a:	81da      	strh	r2, [r3, #14]
	config->multiply_factor = 6; /* Multiply 8MHz by 6 to get 48MHz */
    423c:	687b      	ldr	r3, [r7, #4]
    423e:	2206      	movs	r2, #6
    4240:	821a      	strh	r2, [r3, #16]
}
    4242:	46bd      	mov	sp, r7
    4244:	b002      	add	sp, #8
    4246:	bd80      	pop	{r7, pc}

00004248 <system_cpu_clock_set_divider>:
 *
 * \param[in] divider  CPU clock divider to set
 */
static inline void system_cpu_clock_set_divider(
		const enum system_main_clock_div divider)
{
    4248:	b580      	push	{r7, lr}
    424a:	b082      	sub	sp, #8
    424c:	af00      	add	r7, sp, #0
    424e:	1c02      	adds	r2, r0, #0
    4250:	1dfb      	adds	r3, r7, #7
    4252:	701a      	strb	r2, [r3, #0]
	Assert(((uint32_t)divider & PM_CPUSEL_CPUDIV_Msk) == divider);
	PM->CPUSEL.reg = (uint32_t)divider;
    4254:	4a03      	ldr	r2, [pc, #12]	; (4264 <system_cpu_clock_set_divider+0x1c>)
    4256:	1dfb      	adds	r3, r7, #7
    4258:	781b      	ldrb	r3, [r3, #0]
    425a:	7213      	strb	r3, [r2, #8]
}
    425c:	46bd      	mov	sp, r7
    425e:	b002      	add	sp, #8
    4260:	bd80      	pop	{r7, pc}
    4262:	46c0      	nop			; (mov r8, r8)
    4264:	40000400 	.word	0x40000400

00004268 <system_apb_clock_set_divider>:
 * \retval STATUS_OK               The APBx clock was set successfully
 */
static inline enum status_code system_apb_clock_set_divider(
		const enum system_clock_apb_bus bus,
		const enum system_main_clock_div divider)
{
    4268:	b580      	push	{r7, lr}
    426a:	b082      	sub	sp, #8
    426c:	af00      	add	r7, sp, #0
    426e:	1c02      	adds	r2, r0, #0
    4270:	1dfb      	adds	r3, r7, #7
    4272:	701a      	strb	r2, [r3, #0]
    4274:	1dbb      	adds	r3, r7, #6
    4276:	1c0a      	adds	r2, r1, #0
    4278:	701a      	strb	r2, [r3, #0]
	switch (bus) {
    427a:	1dfb      	adds	r3, r7, #7
    427c:	781b      	ldrb	r3, [r3, #0]
    427e:	2b01      	cmp	r3, #1
    4280:	d008      	beq.n	4294 <system_apb_clock_set_divider+0x2c>
    4282:	2b02      	cmp	r3, #2
    4284:	d00b      	beq.n	429e <system_apb_clock_set_divider+0x36>
    4286:	2b00      	cmp	r3, #0
    4288:	d10e      	bne.n	42a8 <system_apb_clock_set_divider+0x40>
		case SYSTEM_CLOCK_APB_APBA:
			PM->APBASEL.reg = (uint32_t)divider;
    428a:	4a0b      	ldr	r2, [pc, #44]	; (42b8 <system_apb_clock_set_divider+0x50>)
    428c:	1dbb      	adds	r3, r7, #6
    428e:	781b      	ldrb	r3, [r3, #0]
    4290:	7253      	strb	r3, [r2, #9]
			break;
    4292:	e00b      	b.n	42ac <system_apb_clock_set_divider+0x44>
		case SYSTEM_CLOCK_APB_APBB:
			PM->APBBSEL.reg = (uint32_t)divider;
    4294:	4a08      	ldr	r2, [pc, #32]	; (42b8 <system_apb_clock_set_divider+0x50>)
    4296:	1dbb      	adds	r3, r7, #6
    4298:	781b      	ldrb	r3, [r3, #0]
    429a:	7293      	strb	r3, [r2, #10]
			break;
    429c:	e006      	b.n	42ac <system_apb_clock_set_divider+0x44>
		case SYSTEM_CLOCK_APB_APBC:
			PM->APBCSEL.reg = (uint32_t)divider;
    429e:	4a06      	ldr	r2, [pc, #24]	; (42b8 <system_apb_clock_set_divider+0x50>)
    42a0:	1dbb      	adds	r3, r7, #6
    42a2:	781b      	ldrb	r3, [r3, #0]
    42a4:	72d3      	strb	r3, [r2, #11]
			break;
    42a6:	e001      	b.n	42ac <system_apb_clock_set_divider+0x44>
		default:
			Assert(false);
			return STATUS_ERR_INVALID_ARG;
    42a8:	2317      	movs	r3, #23
    42aa:	e000      	b.n	42ae <system_apb_clock_set_divider+0x46>
	}

	return STATUS_OK;
    42ac:	2300      	movs	r3, #0
}
    42ae:	1c18      	adds	r0, r3, #0
    42b0:	46bd      	mov	sp, r7
    42b2:	b002      	add	sp, #8
    42b4:	bd80      	pop	{r7, pc}
    42b6:	46c0      	nop			; (mov r8, r8)
    42b8:	40000400 	.word	0x40000400

000042bc <system_flash_set_waitstates>:
 * can be found in the electrical characteristics of the device.
 *
 * \param[in] wait_states Number of wait states to use for internal flash
 */
static inline void system_flash_set_waitstates(uint8_t wait_states)
{
    42bc:	b580      	push	{r7, lr}
    42be:	b082      	sub	sp, #8
    42c0:	af00      	add	r7, sp, #0
    42c2:	1c02      	adds	r2, r0, #0
    42c4:	1dfb      	adds	r3, r7, #7
    42c6:	701a      	strb	r2, [r3, #0]
	Assert(NVMCTRL_CTRLB_RWS((uint32_t)wait_states) ==
			((uint32_t)wait_states << NVMCTRL_CTRLB_RWS_Pos));

	NVMCTRL->CTRLB.bit.RWS = wait_states;
    42c8:	4b08      	ldr	r3, [pc, #32]	; (42ec <system_flash_set_waitstates+0x30>)
    42ca:	1dfa      	adds	r2, r7, #7
    42cc:	7812      	ldrb	r2, [r2, #0]
    42ce:	210f      	movs	r1, #15
    42d0:	400a      	ands	r2, r1
    42d2:	b2d2      	uxtb	r2, r2
    42d4:	210f      	movs	r1, #15
    42d6:	400a      	ands	r2, r1
    42d8:	0052      	lsls	r2, r2, #1
    42da:	6859      	ldr	r1, [r3, #4]
    42dc:	201e      	movs	r0, #30
    42de:	4381      	bics	r1, r0
    42e0:	430a      	orrs	r2, r1
    42e2:	605a      	str	r2, [r3, #4]
}
    42e4:	46bd      	mov	sp, r7
    42e6:	b002      	add	sp, #8
    42e8:	bd80      	pop	{r7, pc}
    42ea:	46c0      	nop			; (mov r8, r8)
    42ec:	41004000 	.word	0x41004000

000042f0 <_system_dfll_wait_for_sync>:
/**
 * \internal
 * \brief Wait for sync to the DFLL control registers.
 */
static inline void _system_dfll_wait_for_sync(void)
{
    42f0:	b580      	push	{r7, lr}
    42f2:	af00      	add	r7, sp, #0
	while (!(SYSCTRL->PCLKSR.reg & SYSCTRL_PCLKSR_DFLLRDY)) {
    42f4:	46c0      	nop			; (mov r8, r8)
    42f6:	4b03      	ldr	r3, [pc, #12]	; (4304 <_system_dfll_wait_for_sync+0x14>)
    42f8:	68db      	ldr	r3, [r3, #12]
    42fa:	2210      	movs	r2, #16
    42fc:	4013      	ands	r3, r2
    42fe:	d0fa      	beq.n	42f6 <_system_dfll_wait_for_sync+0x6>
		/* Wait for DFLL sync */
	}
}
    4300:	46bd      	mov	sp, r7
    4302:	bd80      	pop	{r7, pc}
    4304:	40000800 	.word	0x40000800

00004308 <_system_clock_source_dfll_set_config_errata_9905>:
		/* Wait for OSC32K sync */
	}
}

static inline void _system_clock_source_dfll_set_config_errata_9905(void)
{
    4308:	b580      	push	{r7, lr}
    430a:	af00      	add	r7, sp, #0

	/* Disable ONDEMAND mode while writing configurations */
	SYSCTRL->DFLLCTRL.reg = SYSCTRL_DFLLCTRL_ENABLE;
    430c:	4b0c      	ldr	r3, [pc, #48]	; (4340 <_system_clock_source_dfll_set_config_errata_9905+0x38>)
    430e:	2202      	movs	r2, #2
    4310:	849a      	strh	r2, [r3, #36]	; 0x24
	_system_dfll_wait_for_sync();
    4312:	4b0c      	ldr	r3, [pc, #48]	; (4344 <_system_clock_source_dfll_set_config_errata_9905+0x3c>)
    4314:	4798      	blx	r3

	SYSCTRL->DFLLMUL.reg = _system_clock_inst.dfll.mul;
    4316:	4a0a      	ldr	r2, [pc, #40]	; (4340 <_system_clock_source_dfll_set_config_errata_9905+0x38>)
    4318:	4b0b      	ldr	r3, [pc, #44]	; (4348 <_system_clock_source_dfll_set_config_errata_9905+0x40>)
    431a:	689b      	ldr	r3, [r3, #8]
    431c:	62d3      	str	r3, [r2, #44]	; 0x2c
	SYSCTRL->DFLLVAL.reg = _system_clock_inst.dfll.val;
    431e:	4a08      	ldr	r2, [pc, #32]	; (4340 <_system_clock_source_dfll_set_config_errata_9905+0x38>)
    4320:	4b09      	ldr	r3, [pc, #36]	; (4348 <_system_clock_source_dfll_set_config_errata_9905+0x40>)
    4322:	685b      	ldr	r3, [r3, #4]
    4324:	6293      	str	r3, [r2, #40]	; 0x28

	/* Write full configuration to DFLL control register */
	SYSCTRL->DFLLCTRL.reg = 0;
    4326:	4b06      	ldr	r3, [pc, #24]	; (4340 <_system_clock_source_dfll_set_config_errata_9905+0x38>)
    4328:	2200      	movs	r2, #0
    432a:	849a      	strh	r2, [r3, #36]	; 0x24
	_system_dfll_wait_for_sync();
    432c:	4b05      	ldr	r3, [pc, #20]	; (4344 <_system_clock_source_dfll_set_config_errata_9905+0x3c>)
    432e:	4798      	blx	r3
	SYSCTRL->DFLLCTRL.reg = _system_clock_inst.dfll.control;
    4330:	4a03      	ldr	r2, [pc, #12]	; (4340 <_system_clock_source_dfll_set_config_errata_9905+0x38>)
    4332:	4b05      	ldr	r3, [pc, #20]	; (4348 <_system_clock_source_dfll_set_config_errata_9905+0x40>)
    4334:	681b      	ldr	r3, [r3, #0]
    4336:	b29b      	uxth	r3, r3
    4338:	8493      	strh	r3, [r2, #36]	; 0x24
}
    433a:	46bd      	mov	sp, r7
    433c:	bd80      	pop	{r7, pc}
    433e:	46c0      	nop			; (mov r8, r8)
    4340:	40000800 	.word	0x40000800
    4344:	000042f1 	.word	0x000042f1
    4348:	20000148 	.word	0x20000148

0000434c <system_clock_source_get_hz>:
 *
 * \returns Frequency of the given clock source, in Hz.
 */
uint32_t system_clock_source_get_hz(
		const enum system_clock_source clock_source)
{
    434c:	b580      	push	{r7, lr}
    434e:	b082      	sub	sp, #8
    4350:	af00      	add	r7, sp, #0
    4352:	1c02      	adds	r2, r0, #0
    4354:	1dfb      	adds	r3, r7, #7
    4356:	701a      	strb	r2, [r3, #0]
	switch (clock_source) {
    4358:	1dfb      	adds	r3, r7, #7
    435a:	781b      	ldrb	r3, [r3, #0]
    435c:	2b08      	cmp	r3, #8
    435e:	d849      	bhi.n	43f4 <system_clock_source_get_hz+0xa8>
    4360:	009a      	lsls	r2, r3, #2
    4362:	4b27      	ldr	r3, [pc, #156]	; (4400 <system_clock_source_get_hz+0xb4>)
    4364:	18d3      	adds	r3, r2, r3
    4366:	681b      	ldr	r3, [r3, #0]
    4368:	469f      	mov	pc, r3
	case SYSTEM_CLOCK_SOURCE_XOSC:
		return _system_clock_inst.xosc.frequency;
    436a:	4b26      	ldr	r3, [pc, #152]	; (4404 <system_clock_source_get_hz+0xb8>)
    436c:	691b      	ldr	r3, [r3, #16]
    436e:	e042      	b.n	43f6 <system_clock_source_get_hz+0xaa>

	case SYSTEM_CLOCK_SOURCE_OSC8M:
		return 8000000UL >> SYSCTRL->OSC8M.bit.PRESC;
    4370:	4b25      	ldr	r3, [pc, #148]	; (4408 <system_clock_source_get_hz+0xbc>)
    4372:	6a1b      	ldr	r3, [r3, #32]
    4374:	0a1b      	lsrs	r3, r3, #8
    4376:	1c1a      	adds	r2, r3, #0
    4378:	2303      	movs	r3, #3
    437a:	4013      	ands	r3, r2
    437c:	b2db      	uxtb	r3, r3
    437e:	1c1a      	adds	r2, r3, #0
    4380:	4b22      	ldr	r3, [pc, #136]	; (440c <system_clock_source_get_hz+0xc0>)
    4382:	40d3      	lsrs	r3, r2
    4384:	e037      	b.n	43f6 <system_clock_source_get_hz+0xaa>

	case SYSTEM_CLOCK_SOURCE_OSC32K:
		return 32768UL;
    4386:	2380      	movs	r3, #128	; 0x80
    4388:	021b      	lsls	r3, r3, #8
    438a:	e034      	b.n	43f6 <system_clock_source_get_hz+0xaa>

	case SYSTEM_CLOCK_SOURCE_ULP32K:
		return 32768UL;
    438c:	2380      	movs	r3, #128	; 0x80
    438e:	021b      	lsls	r3, r3, #8
    4390:	e031      	b.n	43f6 <system_clock_source_get_hz+0xaa>

	case SYSTEM_CLOCK_SOURCE_XOSC32K:
		return _system_clock_inst.xosc32k.frequency;
    4392:	4b1c      	ldr	r3, [pc, #112]	; (4404 <system_clock_source_get_hz+0xb8>)
    4394:	695b      	ldr	r3, [r3, #20]
    4396:	e02e      	b.n	43f6 <system_clock_source_get_hz+0xaa>

	case SYSTEM_CLOCK_SOURCE_DFLL:

		/* Check if the DFLL has been configured */
		if (!(_system_clock_inst.dfll.control & SYSCTRL_DFLLCTRL_ENABLE))
    4398:	4b1a      	ldr	r3, [pc, #104]	; (4404 <system_clock_source_get_hz+0xb8>)
    439a:	681b      	ldr	r3, [r3, #0]
    439c:	2202      	movs	r2, #2
    439e:	4013      	ands	r3, r2
    43a0:	d101      	bne.n	43a6 <system_clock_source_get_hz+0x5a>
			return 0;
    43a2:	2300      	movs	r3, #0
    43a4:	e027      	b.n	43f6 <system_clock_source_get_hz+0xaa>

		/* Make sure that the DFLL module is ready */
		_system_dfll_wait_for_sync();
    43a6:	4b1a      	ldr	r3, [pc, #104]	; (4410 <system_clock_source_get_hz+0xc4>)
    43a8:	4798      	blx	r3

		if(_system_clock_inst.dfll.control & SYSCTRL_DFLLCTRL_USBCRM)
    43aa:	4b16      	ldr	r3, [pc, #88]	; (4404 <system_clock_source_get_hz+0xb8>)
    43ac:	681b      	ldr	r3, [r3, #0]
    43ae:	2220      	movs	r2, #32
    43b0:	4013      	ands	r3, r2
    43b2:	d001      	beq.n	43b8 <system_clock_source_get_hz+0x6c>
			return 48000000UL;
    43b4:	4b17      	ldr	r3, [pc, #92]	; (4414 <system_clock_source_get_hz+0xc8>)
    43b6:	e01e      	b.n	43f6 <system_clock_source_get_hz+0xaa>

		/* Check if operating in closed loop mode */
		if (_system_clock_inst.dfll.control & SYSCTRL_DFLLCTRL_MODE) {
    43b8:	4b12      	ldr	r3, [pc, #72]	; (4404 <system_clock_source_get_hz+0xb8>)
    43ba:	681b      	ldr	r3, [r3, #0]
    43bc:	2204      	movs	r2, #4
    43be:	4013      	ands	r3, r2
    43c0:	d009      	beq.n	43d6 <system_clock_source_get_hz+0x8a>
			return system_gclk_chan_get_hz(SYSCTRL_GCLK_ID_DFLL48) *
    43c2:	2000      	movs	r0, #0
    43c4:	4b14      	ldr	r3, [pc, #80]	; (4418 <system_clock_source_get_hz+0xcc>)
    43c6:	4798      	blx	r3
    43c8:	1c02      	adds	r2, r0, #0
					(_system_clock_inst.dfll.mul & 0xffff);
    43ca:	4b0e      	ldr	r3, [pc, #56]	; (4404 <system_clock_source_get_hz+0xb8>)
    43cc:	689b      	ldr	r3, [r3, #8]
    43ce:	041b      	lsls	r3, r3, #16
    43d0:	0c1b      	lsrs	r3, r3, #16
		if(_system_clock_inst.dfll.control & SYSCTRL_DFLLCTRL_USBCRM)
			return 48000000UL;

		/* Check if operating in closed loop mode */
		if (_system_clock_inst.dfll.control & SYSCTRL_DFLLCTRL_MODE) {
			return system_gclk_chan_get_hz(SYSCTRL_GCLK_ID_DFLL48) *
    43d2:	4353      	muls	r3, r2
    43d4:	e00f      	b.n	43f6 <system_clock_source_get_hz+0xaa>
					(_system_clock_inst.dfll.mul & 0xffff);
		}

		return 48000000UL;
    43d6:	4b0f      	ldr	r3, [pc, #60]	; (4414 <system_clock_source_get_hz+0xc8>)
    43d8:	e00d      	b.n	43f6 <system_clock_source_get_hz+0xaa>

#ifdef FEATURE_SYSTEM_CLOCK_DPLL
	case SYSTEM_CLOCK_SOURCE_DPLL:
		if (!(SYSCTRL->DPLLSTATUS.reg & SYSCTRL_DPLLSTATUS_ENABLE)) {
    43da:	4a0b      	ldr	r2, [pc, #44]	; (4408 <system_clock_source_get_hz+0xbc>)
    43dc:	2350      	movs	r3, #80	; 0x50
    43de:	5cd3      	ldrb	r3, [r2, r3]
    43e0:	b2db      	uxtb	r3, r3
    43e2:	1c1a      	adds	r2, r3, #0
    43e4:	2304      	movs	r3, #4
    43e6:	4013      	ands	r3, r2
    43e8:	d101      	bne.n	43ee <system_clock_source_get_hz+0xa2>
			return 0;
    43ea:	2300      	movs	r3, #0
    43ec:	e003      	b.n	43f6 <system_clock_source_get_hz+0xaa>
		}

		return _system_clock_inst.dpll.frequency;
    43ee:	4b05      	ldr	r3, [pc, #20]	; (4404 <system_clock_source_get_hz+0xb8>)
    43f0:	68db      	ldr	r3, [r3, #12]
    43f2:	e000      	b.n	43f6 <system_clock_source_get_hz+0xaa>
#endif

	default:
		return 0;
    43f4:	2300      	movs	r3, #0
	}
}
    43f6:	1c18      	adds	r0, r3, #0
    43f8:	46bd      	mov	sp, r7
    43fa:	b002      	add	sp, #8
    43fc:	bd80      	pop	{r7, pc}
    43fe:	46c0      	nop			; (mov r8, r8)
    4400:	00008c70 	.word	0x00008c70
    4404:	20000148 	.word	0x20000148
    4408:	40000800 	.word	0x40000800
    440c:	007a1200 	.word	0x007a1200
    4410:	000042f1 	.word	0x000042f1
    4414:	02dc6c00 	.word	0x02dc6c00
    4418:	00004d25 	.word	0x00004d25

0000441c <system_clock_source_osc8m_set_config>:
 *
 * \param[in] config  OSC8M configuration structure containing the new config
 */
void system_clock_source_osc8m_set_config(
		struct system_clock_source_osc8m_config *const config)
{
    441c:	b580      	push	{r7, lr}
    441e:	b084      	sub	sp, #16
    4420:	af00      	add	r7, sp, #0
    4422:	6078      	str	r0, [r7, #4]
	SYSCTRL_OSC8M_Type temp = SYSCTRL->OSC8M;
    4424:	4b1a      	ldr	r3, [pc, #104]	; (4490 <system_clock_source_osc8m_set_config+0x74>)
    4426:	6a1b      	ldr	r3, [r3, #32]
    4428:	60fb      	str	r3, [r7, #12]

	/* Use temporary struct to reduce register access */
	temp.bit.PRESC    = config->prescaler;
    442a:	687b      	ldr	r3, [r7, #4]
    442c:	781b      	ldrb	r3, [r3, #0]
    442e:	1c1a      	adds	r2, r3, #0
    4430:	2303      	movs	r3, #3
    4432:	4013      	ands	r3, r2
    4434:	b2da      	uxtb	r2, r3
    4436:	230d      	movs	r3, #13
    4438:	18fb      	adds	r3, r7, r3
    443a:	2103      	movs	r1, #3
    443c:	400a      	ands	r2, r1
    443e:	1c10      	adds	r0, r2, #0
    4440:	781a      	ldrb	r2, [r3, #0]
    4442:	2103      	movs	r1, #3
    4444:	438a      	bics	r2, r1
    4446:	1c11      	adds	r1, r2, #0
    4448:	1c02      	adds	r2, r0, #0
    444a:	430a      	orrs	r2, r1
    444c:	701a      	strb	r2, [r3, #0]
	temp.bit.ONDEMAND = config->on_demand;
    444e:	687b      	ldr	r3, [r7, #4]
    4450:	789a      	ldrb	r2, [r3, #2]
    4452:	230c      	movs	r3, #12
    4454:	18fb      	adds	r3, r7, r3
    4456:	01d0      	lsls	r0, r2, #7
    4458:	781a      	ldrb	r2, [r3, #0]
    445a:	217f      	movs	r1, #127	; 0x7f
    445c:	400a      	ands	r2, r1
    445e:	1c11      	adds	r1, r2, #0
    4460:	1c02      	adds	r2, r0, #0
    4462:	430a      	orrs	r2, r1
    4464:	701a      	strb	r2, [r3, #0]
	temp.bit.RUNSTDBY = config->run_in_standby;
    4466:	687b      	ldr	r3, [r7, #4]
    4468:	785a      	ldrb	r2, [r3, #1]
    446a:	230c      	movs	r3, #12
    446c:	18fb      	adds	r3, r7, r3
    446e:	2101      	movs	r1, #1
    4470:	400a      	ands	r2, r1
    4472:	0190      	lsls	r0, r2, #6
    4474:	781a      	ldrb	r2, [r3, #0]
    4476:	2140      	movs	r1, #64	; 0x40
    4478:	438a      	bics	r2, r1
    447a:	1c11      	adds	r1, r2, #0
    447c:	1c02      	adds	r2, r0, #0
    447e:	430a      	orrs	r2, r1
    4480:	701a      	strb	r2, [r3, #0]

	SYSCTRL->OSC8M = temp;
    4482:	4b03      	ldr	r3, [pc, #12]	; (4490 <system_clock_source_osc8m_set_config+0x74>)
    4484:	68fa      	ldr	r2, [r7, #12]
    4486:	621a      	str	r2, [r3, #32]
}
    4488:	46bd      	mov	sp, r7
    448a:	b004      	add	sp, #16
    448c:	bd80      	pop	{r7, pc}
    448e:	46c0      	nop			; (mov r8, r8)
    4490:	40000800 	.word	0x40000800

00004494 <system_clock_source_dfll_set_config>:
 *
 * \param[in] config  DFLL configuration structure containing the new config
 */
void system_clock_source_dfll_set_config(
		struct system_clock_source_dfll_config *const config)
{
    4494:	b580      	push	{r7, lr}
    4496:	b082      	sub	sp, #8
    4498:	af00      	add	r7, sp, #0
    449a:	6078      	str	r0, [r7, #4]
	_system_clock_inst.dfll.val =
			SYSCTRL_DFLLVAL_COARSE(config->coarse_value) |
    449c:	687b      	ldr	r3, [r7, #4]
    449e:	7a1b      	ldrb	r3, [r3, #8]
    44a0:	029b      	lsls	r3, r3, #10
    44a2:	041b      	lsls	r3, r3, #16
    44a4:	0c1a      	lsrs	r2, r3, #16
			SYSCTRL_DFLLVAL_FINE(config->fine_value);
    44a6:	687b      	ldr	r3, [r7, #4]
    44a8:	895b      	ldrh	r3, [r3, #10]
    44aa:	059b      	lsls	r3, r3, #22
    44ac:	0d9b      	lsrs	r3, r3, #22
 */
void system_clock_source_dfll_set_config(
		struct system_clock_source_dfll_config *const config)
{
	_system_clock_inst.dfll.val =
			SYSCTRL_DFLLVAL_COARSE(config->coarse_value) |
    44ae:	431a      	orrs	r2, r3
 * \param[in] config  DFLL configuration structure containing the new config
 */
void system_clock_source_dfll_set_config(
		struct system_clock_source_dfll_config *const config)
{
	_system_clock_inst.dfll.val =
    44b0:	4b29      	ldr	r3, [pc, #164]	; (4558 <system_clock_source_dfll_set_config+0xc4>)
    44b2:	605a      	str	r2, [r3, #4]
			SYSCTRL_DFLLVAL_COARSE(config->coarse_value) |
			SYSCTRL_DFLLVAL_FINE(config->fine_value);

	_system_clock_inst.dfll.control =
			(uint32_t)config->wakeup_lock     |
    44b4:	687b      	ldr	r3, [r7, #4]
    44b6:	799a      	ldrb	r2, [r3, #6]
			(uint32_t)config->stable_tracking |
    44b8:	687b      	ldr	r3, [r7, #4]
    44ba:	79db      	ldrb	r3, [r3, #7]
	_system_clock_inst.dfll.val =
			SYSCTRL_DFLLVAL_COARSE(config->coarse_value) |
			SYSCTRL_DFLLVAL_FINE(config->fine_value);

	_system_clock_inst.dfll.control =
			(uint32_t)config->wakeup_lock     |
    44bc:	4313      	orrs	r3, r2
    44be:	b2db      	uxtb	r3, r3
    44c0:	1c1a      	adds	r2, r3, #0
			(uint32_t)config->stable_tracking |
			(uint32_t)config->quick_lock      |
    44c2:	687b      	ldr	r3, [r7, #4]
    44c4:	885b      	ldrh	r3, [r3, #2]
			SYSCTRL_DFLLVAL_COARSE(config->coarse_value) |
			SYSCTRL_DFLLVAL_FINE(config->fine_value);

	_system_clock_inst.dfll.control =
			(uint32_t)config->wakeup_lock     |
			(uint32_t)config->stable_tracking |
    44c6:	4313      	orrs	r3, r2
			(uint32_t)config->quick_lock      |
			(uint32_t)config->chill_cycle     |
    44c8:	687a      	ldr	r2, [r7, #4]
    44ca:	8892      	ldrh	r2, [r2, #4]
			SYSCTRL_DFLLVAL_FINE(config->fine_value);

	_system_clock_inst.dfll.control =
			(uint32_t)config->wakeup_lock     |
			(uint32_t)config->stable_tracking |
			(uint32_t)config->quick_lock      |
    44cc:	431a      	orrs	r2, r3
			(uint32_t)config->chill_cycle     |
			((uint32_t)config->on_demand << SYSCTRL_DFLLCTRL_ONDEMAND_Pos);
    44ce:	687b      	ldr	r3, [r7, #4]
    44d0:	785b      	ldrb	r3, [r3, #1]
    44d2:	01db      	lsls	r3, r3, #7

	_system_clock_inst.dfll.control =
			(uint32_t)config->wakeup_lock     |
			(uint32_t)config->stable_tracking |
			(uint32_t)config->quick_lock      |
			(uint32_t)config->chill_cycle     |
    44d4:	431a      	orrs	r2, r3
{
	_system_clock_inst.dfll.val =
			SYSCTRL_DFLLVAL_COARSE(config->coarse_value) |
			SYSCTRL_DFLLVAL_FINE(config->fine_value);

	_system_clock_inst.dfll.control =
    44d6:	4b20      	ldr	r3, [pc, #128]	; (4558 <system_clock_source_dfll_set_config+0xc4>)
    44d8:	601a      	str	r2, [r3, #0]
			(uint32_t)config->stable_tracking |
			(uint32_t)config->quick_lock      |
			(uint32_t)config->chill_cycle     |
			((uint32_t)config->on_demand << SYSCTRL_DFLLCTRL_ONDEMAND_Pos);

	if (config->loop_mode == SYSTEM_CLOCK_DFLL_LOOP_MODE_CLOSED) {
    44da:	687b      	ldr	r3, [r7, #4]
    44dc:	781b      	ldrb	r3, [r3, #0]
    44de:	2b04      	cmp	r3, #4
    44e0:	d116      	bne.n	4510 <system_clock_source_dfll_set_config+0x7c>

		_system_clock_inst.dfll.mul =
				SYSCTRL_DFLLMUL_CSTEP(config->coarse_max_step) |
    44e2:	687b      	ldr	r3, [r7, #4]
    44e4:	7b1b      	ldrb	r3, [r3, #12]
    44e6:	069b      	lsls	r3, r3, #26
    44e8:	1c1a      	adds	r2, r3, #0
				SYSCTRL_DFLLMUL_FSTEP(config->fine_max_step)   |
    44ea:	687b      	ldr	r3, [r7, #4]
    44ec:	89db      	ldrh	r3, [r3, #14]
    44ee:	041b      	lsls	r3, r3, #16
    44f0:	1c19      	adds	r1, r3, #0
    44f2:	4b1a      	ldr	r3, [pc, #104]	; (455c <system_clock_source_dfll_set_config+0xc8>)
    44f4:	400b      	ands	r3, r1
			((uint32_t)config->on_demand << SYSCTRL_DFLLCTRL_ONDEMAND_Pos);

	if (config->loop_mode == SYSTEM_CLOCK_DFLL_LOOP_MODE_CLOSED) {

		_system_clock_inst.dfll.mul =
				SYSCTRL_DFLLMUL_CSTEP(config->coarse_max_step) |
    44f6:	4313      	orrs	r3, r2
				SYSCTRL_DFLLMUL_FSTEP(config->fine_max_step)   |
				SYSCTRL_DFLLMUL_MUL(config->multiply_factor);
    44f8:	687a      	ldr	r2, [r7, #4]
    44fa:	8a12      	ldrh	r2, [r2, #16]

	if (config->loop_mode == SYSTEM_CLOCK_DFLL_LOOP_MODE_CLOSED) {

		_system_clock_inst.dfll.mul =
				SYSCTRL_DFLLMUL_CSTEP(config->coarse_max_step) |
				SYSCTRL_DFLLMUL_FSTEP(config->fine_max_step)   |
    44fc:	431a      	orrs	r2, r3
			(uint32_t)config->chill_cycle     |
			((uint32_t)config->on_demand << SYSCTRL_DFLLCTRL_ONDEMAND_Pos);

	if (config->loop_mode == SYSTEM_CLOCK_DFLL_LOOP_MODE_CLOSED) {

		_system_clock_inst.dfll.mul =
    44fe:	4b16      	ldr	r3, [pc, #88]	; (4558 <system_clock_source_dfll_set_config+0xc4>)
    4500:	609a      	str	r2, [r3, #8]
				SYSCTRL_DFLLMUL_CSTEP(config->coarse_max_step) |
				SYSCTRL_DFLLMUL_FSTEP(config->fine_max_step)   |
				SYSCTRL_DFLLMUL_MUL(config->multiply_factor);

		/* Enable the closed loop mode */
		_system_clock_inst.dfll.control |= config->loop_mode;
    4502:	4b15      	ldr	r3, [pc, #84]	; (4558 <system_clock_source_dfll_set_config+0xc4>)
    4504:	681b      	ldr	r3, [r3, #0]
    4506:	687a      	ldr	r2, [r7, #4]
    4508:	7812      	ldrb	r2, [r2, #0]
    450a:	431a      	orrs	r2, r3
    450c:	4b12      	ldr	r3, [pc, #72]	; (4558 <system_clock_source_dfll_set_config+0xc4>)
    450e:	601a      	str	r2, [r3, #0]
	}
	if (config->loop_mode == SYSTEM_CLOCK_DFLL_LOOP_MODE_USB_RECOVERY) {
    4510:	687b      	ldr	r3, [r7, #4]
    4512:	781b      	ldrb	r3, [r3, #0]
    4514:	2b20      	cmp	r3, #32
    4516:	d11c      	bne.n	4552 <system_clock_source_dfll_set_config+0xbe>

		_system_clock_inst.dfll.mul =
				SYSCTRL_DFLLMUL_CSTEP(config->coarse_max_step) |
    4518:	687b      	ldr	r3, [r7, #4]
    451a:	7b1b      	ldrb	r3, [r3, #12]
    451c:	069b      	lsls	r3, r3, #26
    451e:	1c1a      	adds	r2, r3, #0
				SYSCTRL_DFLLMUL_FSTEP(config->fine_max_step)   |
    4520:	687b      	ldr	r3, [r7, #4]
    4522:	89db      	ldrh	r3, [r3, #14]
    4524:	041b      	lsls	r3, r3, #16
    4526:	1c19      	adds	r1, r3, #0
    4528:	4b0c      	ldr	r3, [pc, #48]	; (455c <system_clock_source_dfll_set_config+0xc8>)
    452a:	400b      	ands	r3, r1
		_system_clock_inst.dfll.control |= config->loop_mode;
	}
	if (config->loop_mode == SYSTEM_CLOCK_DFLL_LOOP_MODE_USB_RECOVERY) {

		_system_clock_inst.dfll.mul =
				SYSCTRL_DFLLMUL_CSTEP(config->coarse_max_step) |
    452c:	4313      	orrs	r3, r2
				SYSCTRL_DFLLMUL_FSTEP(config->fine_max_step)   |
				SYSCTRL_DFLLMUL_MUL(config->multiply_factor);
    452e:	687a      	ldr	r2, [r7, #4]
    4530:	8a12      	ldrh	r2, [r2, #16]
	}
	if (config->loop_mode == SYSTEM_CLOCK_DFLL_LOOP_MODE_USB_RECOVERY) {

		_system_clock_inst.dfll.mul =
				SYSCTRL_DFLLMUL_CSTEP(config->coarse_max_step) |
				SYSCTRL_DFLLMUL_FSTEP(config->fine_max_step)   |
    4532:	431a      	orrs	r2, r3
		/* Enable the closed loop mode */
		_system_clock_inst.dfll.control |= config->loop_mode;
	}
	if (config->loop_mode == SYSTEM_CLOCK_DFLL_LOOP_MODE_USB_RECOVERY) {

		_system_clock_inst.dfll.mul =
    4534:	4b08      	ldr	r3, [pc, #32]	; (4558 <system_clock_source_dfll_set_config+0xc4>)
    4536:	609a      	str	r2, [r3, #8]
				SYSCTRL_DFLLMUL_CSTEP(config->coarse_max_step) |
				SYSCTRL_DFLLMUL_FSTEP(config->fine_max_step)   |
				SYSCTRL_DFLLMUL_MUL(config->multiply_factor);

		/* Enable the USB recovery mode */
		_system_clock_inst.dfll.control |= config->loop_mode |
    4538:	4b07      	ldr	r3, [pc, #28]	; (4558 <system_clock_source_dfll_set_config+0xc4>)
    453a:	681b      	ldr	r3, [r3, #0]
    453c:	687a      	ldr	r2, [r7, #4]
    453e:	7812      	ldrb	r2, [r2, #0]
    4540:	2104      	movs	r1, #4
    4542:	430a      	orrs	r2, r1
    4544:	b2d2      	uxtb	r2, r2
    4546:	4313      	orrs	r3, r2
    4548:	2280      	movs	r2, #128	; 0x80
    454a:	00d2      	lsls	r2, r2, #3
    454c:	431a      	orrs	r2, r3
    454e:	4b02      	ldr	r3, [pc, #8]	; (4558 <system_clock_source_dfll_set_config+0xc4>)
    4550:	601a      	str	r2, [r3, #0]
				SYSCTRL_DFLLCTRL_MODE | SYSCTRL_DFLLCTRL_BPLCKC;
	}
}
    4552:	46bd      	mov	sp, r7
    4554:	b002      	add	sp, #8
    4556:	bd80      	pop	{r7, pc}
    4558:	20000148 	.word	0x20000148
    455c:	03ff0000 	.word	0x03ff0000

00004560 <system_clock_source_enable>:
 * \retval STATUS_ERR_INVALID_ARG  The clock source is not available on this
 *                                 device
 */
enum status_code system_clock_source_enable(
		const enum system_clock_source clock_source)
{
    4560:	b580      	push	{r7, lr}
    4562:	b082      	sub	sp, #8
    4564:	af00      	add	r7, sp, #0
    4566:	1c02      	adds	r2, r0, #0
    4568:	1dfb      	adds	r3, r7, #7
    456a:	701a      	strb	r2, [r3, #0]
	switch (clock_source) {
    456c:	1dfb      	adds	r3, r7, #7
    456e:	781b      	ldrb	r3, [r3, #0]
    4570:	2b08      	cmp	r3, #8
    4572:	d83b      	bhi.n	45ec <system_clock_source_enable+0x8c>
    4574:	009a      	lsls	r2, r3, #2
    4576:	4b21      	ldr	r3, [pc, #132]	; (45fc <system_clock_source_enable+0x9c>)
    4578:	18d3      	adds	r3, r2, r3
    457a:	681b      	ldr	r3, [r3, #0]
    457c:	469f      	mov	pc, r3
	case SYSTEM_CLOCK_SOURCE_OSC8M:
		SYSCTRL->OSC8M.reg |= SYSCTRL_OSC8M_ENABLE;
    457e:	4b20      	ldr	r3, [pc, #128]	; (4600 <system_clock_source_enable+0xa0>)
    4580:	4a1f      	ldr	r2, [pc, #124]	; (4600 <system_clock_source_enable+0xa0>)
    4582:	6a12      	ldr	r2, [r2, #32]
    4584:	2102      	movs	r1, #2
    4586:	430a      	orrs	r2, r1
    4588:	621a      	str	r2, [r3, #32]
		return STATUS_OK;
    458a:	2300      	movs	r3, #0
    458c:	e031      	b.n	45f2 <system_clock_source_enable+0x92>

	case SYSTEM_CLOCK_SOURCE_OSC32K:
		SYSCTRL->OSC32K.reg |= SYSCTRL_OSC32K_ENABLE;
    458e:	4b1c      	ldr	r3, [pc, #112]	; (4600 <system_clock_source_enable+0xa0>)
    4590:	4a1b      	ldr	r2, [pc, #108]	; (4600 <system_clock_source_enable+0xa0>)
    4592:	6992      	ldr	r2, [r2, #24]
    4594:	2102      	movs	r1, #2
    4596:	430a      	orrs	r2, r1
    4598:	619a      	str	r2, [r3, #24]
		break;
    459a:	e029      	b.n	45f0 <system_clock_source_enable+0x90>

	case SYSTEM_CLOCK_SOURCE_XOSC:
		SYSCTRL->XOSC.reg |= SYSCTRL_XOSC_ENABLE;
    459c:	4a18      	ldr	r2, [pc, #96]	; (4600 <system_clock_source_enable+0xa0>)
    459e:	4b18      	ldr	r3, [pc, #96]	; (4600 <system_clock_source_enable+0xa0>)
    45a0:	8a1b      	ldrh	r3, [r3, #16]
    45a2:	b29b      	uxth	r3, r3
    45a4:	2102      	movs	r1, #2
    45a6:	430b      	orrs	r3, r1
    45a8:	b29b      	uxth	r3, r3
    45aa:	8213      	strh	r3, [r2, #16]
		break;
    45ac:	e020      	b.n	45f0 <system_clock_source_enable+0x90>

	case SYSTEM_CLOCK_SOURCE_XOSC32K:
		SYSCTRL->XOSC32K.reg |= SYSCTRL_XOSC32K_ENABLE;
    45ae:	4a14      	ldr	r2, [pc, #80]	; (4600 <system_clock_source_enable+0xa0>)
    45b0:	4b13      	ldr	r3, [pc, #76]	; (4600 <system_clock_source_enable+0xa0>)
    45b2:	8a9b      	ldrh	r3, [r3, #20]
    45b4:	b29b      	uxth	r3, r3
    45b6:	2102      	movs	r1, #2
    45b8:	430b      	orrs	r3, r1
    45ba:	b29b      	uxth	r3, r3
    45bc:	8293      	strh	r3, [r2, #20]
		break;
    45be:	e017      	b.n	45f0 <system_clock_source_enable+0x90>

	case SYSTEM_CLOCK_SOURCE_DFLL:
		_system_clock_inst.dfll.control |= SYSCTRL_DFLLCTRL_ENABLE;
    45c0:	4b10      	ldr	r3, [pc, #64]	; (4604 <system_clock_source_enable+0xa4>)
    45c2:	681b      	ldr	r3, [r3, #0]
    45c4:	2202      	movs	r2, #2
    45c6:	431a      	orrs	r2, r3
    45c8:	4b0e      	ldr	r3, [pc, #56]	; (4604 <system_clock_source_enable+0xa4>)
    45ca:	601a      	str	r2, [r3, #0]
		_system_clock_source_dfll_set_config_errata_9905();
    45cc:	4b0e      	ldr	r3, [pc, #56]	; (4608 <system_clock_source_enable+0xa8>)
    45ce:	4798      	blx	r3
		break;
    45d0:	e00e      	b.n	45f0 <system_clock_source_enable+0x90>

#ifdef FEATURE_SYSTEM_CLOCK_DPLL
	case SYSTEM_CLOCK_SOURCE_DPLL:
		SYSCTRL->DPLLCTRLA.reg |= SYSCTRL_DPLLCTRLA_ENABLE;
    45d2:	4a0b      	ldr	r2, [pc, #44]	; (4600 <system_clock_source_enable+0xa0>)
    45d4:	490a      	ldr	r1, [pc, #40]	; (4600 <system_clock_source_enable+0xa0>)
    45d6:	2344      	movs	r3, #68	; 0x44
    45d8:	5ccb      	ldrb	r3, [r1, r3]
    45da:	b2db      	uxtb	r3, r3
    45dc:	2102      	movs	r1, #2
    45de:	430b      	orrs	r3, r1
    45e0:	b2d9      	uxtb	r1, r3
    45e2:	2344      	movs	r3, #68	; 0x44
    45e4:	54d1      	strb	r1, [r2, r3]
		break;
    45e6:	e003      	b.n	45f0 <system_clock_source_enable+0x90>
#endif

	case SYSTEM_CLOCK_SOURCE_ULP32K:
		/* Always enabled */
		return STATUS_OK;
    45e8:	2300      	movs	r3, #0
    45ea:	e002      	b.n	45f2 <system_clock_source_enable+0x92>

	default:
		Assert(false);
		return STATUS_ERR_INVALID_ARG;
    45ec:	2317      	movs	r3, #23
    45ee:	e000      	b.n	45f2 <system_clock_source_enable+0x92>
	}

	return STATUS_OK;
    45f0:	2300      	movs	r3, #0
}
    45f2:	1c18      	adds	r0, r3, #0
    45f4:	46bd      	mov	sp, r7
    45f6:	b002      	add	sp, #8
    45f8:	bd80      	pop	{r7, pc}
    45fa:	46c0      	nop			; (mov r8, r8)
    45fc:	00008c94 	.word	0x00008c94
    4600:	40000800 	.word	0x40000800
    4604:	20000148 	.word	0x20000148
    4608:	00004309 	.word	0x00004309

0000460c <system_clock_source_is_ready>:
 * \retval true   Clock source is enabled and ready
 * \retval false  Clock source is disabled or not yet ready
 */
bool system_clock_source_is_ready(
		const enum system_clock_source clock_source)
{
    460c:	b580      	push	{r7, lr}
    460e:	b084      	sub	sp, #16
    4610:	af00      	add	r7, sp, #0
    4612:	1c02      	adds	r2, r0, #0
    4614:	1dfb      	adds	r3, r7, #7
    4616:	701a      	strb	r2, [r3, #0]
	uint32_t mask = 0;
    4618:	2300      	movs	r3, #0
    461a:	60fb      	str	r3, [r7, #12]

	switch (clock_source) {
    461c:	1dfb      	adds	r3, r7, #7
    461e:	781b      	ldrb	r3, [r3, #0]
    4620:	2b08      	cmp	r3, #8
    4622:	d821      	bhi.n	4668 <system_clock_source_is_ready+0x5c>
    4624:	009a      	lsls	r2, r3, #2
    4626:	4b18      	ldr	r3, [pc, #96]	; (4688 <system_clock_source_is_ready+0x7c>)
    4628:	18d3      	adds	r3, r2, r3
    462a:	681b      	ldr	r3, [r3, #0]
    462c:	469f      	mov	pc, r3
	case SYSTEM_CLOCK_SOURCE_OSC8M:
		mask = SYSCTRL_PCLKSR_OSC8MRDY;
    462e:	2308      	movs	r3, #8
    4630:	60fb      	str	r3, [r7, #12]
		break;
    4632:	e01b      	b.n	466c <system_clock_source_is_ready+0x60>

	case SYSTEM_CLOCK_SOURCE_OSC32K:
		mask = SYSCTRL_PCLKSR_OSC32KRDY;
    4634:	2304      	movs	r3, #4
    4636:	60fb      	str	r3, [r7, #12]
		break;
    4638:	e018      	b.n	466c <system_clock_source_is_ready+0x60>

	case SYSTEM_CLOCK_SOURCE_XOSC:
		mask = SYSCTRL_PCLKSR_XOSCRDY;
    463a:	2301      	movs	r3, #1
    463c:	60fb      	str	r3, [r7, #12]
		break;
    463e:	e015      	b.n	466c <system_clock_source_is_ready+0x60>

	case SYSTEM_CLOCK_SOURCE_XOSC32K:
		mask = SYSCTRL_PCLKSR_XOSC32KRDY;
    4640:	2302      	movs	r3, #2
    4642:	60fb      	str	r3, [r7, #12]
		break;
    4644:	e012      	b.n	466c <system_clock_source_is_ready+0x60>
	case SYSTEM_CLOCK_SOURCE_DFLL:
		if (CONF_CLOCK_DFLL_LOOP_MODE == SYSTEM_CLOCK_DFLL_LOOP_MODE_CLOSED) {
			mask = (SYSCTRL_PCLKSR_DFLLRDY |
			        SYSCTRL_PCLKSR_DFLLLCKF | SYSCTRL_PCLKSR_DFLLLCKC);
		} else {
			mask = SYSCTRL_PCLKSR_DFLLRDY;
    4646:	2310      	movs	r3, #16
    4648:	60fb      	str	r3, [r7, #12]
		}
		break;
    464a:	e00f      	b.n	466c <system_clock_source_is_ready+0x60>

#ifdef FEATURE_SYSTEM_CLOCK_DPLL
	case SYSTEM_CLOCK_SOURCE_DPLL:
		return ((SYSCTRL->DPLLSTATUS.reg &
    464c:	4a0f      	ldr	r2, [pc, #60]	; (468c <system_clock_source_is_ready+0x80>)
    464e:	2350      	movs	r3, #80	; 0x50
    4650:	5cd3      	ldrb	r3, [r2, r3]
    4652:	b2db      	uxtb	r3, r3
    4654:	1c1a      	adds	r2, r3, #0
    4656:	2303      	movs	r3, #3
    4658:	4013      	ands	r3, r2
    465a:	3b03      	subs	r3, #3
    465c:	425a      	negs	r2, r3
    465e:	4153      	adcs	r3, r2
    4660:	b2db      	uxtb	r3, r3
    4662:	e00c      	b.n	467e <system_clock_source_is_ready+0x72>
				(SYSCTRL_DPLLSTATUS_CLKRDY | SYSCTRL_DPLLSTATUS_LOCK));
#endif

	case SYSTEM_CLOCK_SOURCE_ULP32K:
		/* Not possible to disable */
		return true;
    4664:	2301      	movs	r3, #1
    4666:	e00a      	b.n	467e <system_clock_source_is_ready+0x72>

	default:
		return false;
    4668:	2300      	movs	r3, #0
    466a:	e008      	b.n	467e <system_clock_source_is_ready+0x72>
	}

	return ((SYSCTRL->PCLKSR.reg & mask) == mask);
    466c:	4b07      	ldr	r3, [pc, #28]	; (468c <system_clock_source_is_ready+0x80>)
    466e:	68db      	ldr	r3, [r3, #12]
    4670:	68fa      	ldr	r2, [r7, #12]
    4672:	401a      	ands	r2, r3
    4674:	68fb      	ldr	r3, [r7, #12]
    4676:	1ad3      	subs	r3, r2, r3
    4678:	425a      	negs	r2, r3
    467a:	4153      	adcs	r3, r2
    467c:	b2db      	uxtb	r3, r3
}
    467e:	1c18      	adds	r0, r3, #0
    4680:	46bd      	mov	sp, r7
    4682:	b004      	add	sp, #16
    4684:	bd80      	pop	{r7, pc}
    4686:	46c0      	nop			; (mov r8, r8)
    4688:	00008cb8 	.word	0x00008cb8
    468c:	40000800 	.word	0x40000800

00004690 <_switch_peripheral_gclk>:
 *
 * Switch all peripheral clock to a not enabled general clock
 * to save power.
 */
static void _switch_peripheral_gclk(void)
{
    4690:	b580      	push	{r7, lr}
    4692:	b082      	sub	sp, #8
    4694:	af00      	add	r7, sp, #0
	struct system_gclk_chan_config gclk_conf;

#if CONF_CLOCK_GCLK_1_ENABLE == false
	gclk_conf.source_generator = GCLK_GENERATOR_1;
#elif CONF_CLOCK_GCLK_2_ENABLE == false
	gclk_conf.source_generator = GCLK_GENERATOR_2;
    4696:	1c3b      	adds	r3, r7, #0
    4698:	2202      	movs	r2, #2
    469a:	701a      	strb	r2, [r3, #0]
	gclk_conf.source_generator = GCLK_GENERATOR_7;
#else
	gclk_conf.source_generator = GCLK_GENERATOR_7;
#endif

	for (gclk_id = 0; gclk_id < GCLK_NUM; gclk_id++) {
    469c:	2300      	movs	r3, #0
    469e:	607b      	str	r3, [r7, #4]
    46a0:	e009      	b.n	46b6 <_switch_peripheral_gclk+0x26>
		system_gclk_chan_set_config(gclk_id, &gclk_conf);
    46a2:	687b      	ldr	r3, [r7, #4]
    46a4:	b2da      	uxtb	r2, r3
    46a6:	1c3b      	adds	r3, r7, #0
    46a8:	1c10      	adds	r0, r2, #0
    46aa:	1c19      	adds	r1, r3, #0
    46ac:	4b05      	ldr	r3, [pc, #20]	; (46c4 <_switch_peripheral_gclk+0x34>)
    46ae:	4798      	blx	r3
	gclk_conf.source_generator = GCLK_GENERATOR_7;
#else
	gclk_conf.source_generator = GCLK_GENERATOR_7;
#endif

	for (gclk_id = 0; gclk_id < GCLK_NUM; gclk_id++) {
    46b0:	687b      	ldr	r3, [r7, #4]
    46b2:	3301      	adds	r3, #1
    46b4:	607b      	str	r3, [r7, #4]
    46b6:	687b      	ldr	r3, [r7, #4]
    46b8:	2b24      	cmp	r3, #36	; 0x24
    46ba:	d9f2      	bls.n	46a2 <_switch_peripheral_gclk+0x12>
		system_gclk_chan_set_config(gclk_id, &gclk_conf);
	}
}
    46bc:	46bd      	mov	sp, r7
    46be:	b002      	add	sp, #8
    46c0:	bd80      	pop	{r7, pc}
    46c2:	46c0      	nop			; (mov r8, r8)
    46c4:	00004c01 	.word	0x00004c01

000046c8 <system_clock_init>:
 * \note OSC8M is always enabled and if user selects other clocks for GCLK generators,
 * the OSC8M default enable can be disabled after system_clock_init. Make sure the
 * clock switch successfully before disabling OSC8M.
 */
void system_clock_init(void)
{
    46c8:	b580      	push	{r7, lr}
    46ca:	b0a6      	sub	sp, #152	; 0x98
    46cc:	af00      	add	r7, sp, #0
	/* Various bits in the INTFLAG register can be set to one at startup.
	   This will ensure that these bits are cleared */
	SYSCTRL->INTFLAG.reg = SYSCTRL_INTFLAG_BOD33RDY | SYSCTRL_INTFLAG_BOD33DET |
    46ce:	4b6e      	ldr	r3, [pc, #440]	; (4888 <system_clock_init+0x1c0>)
    46d0:	22c2      	movs	r2, #194	; 0xc2
    46d2:	00d2      	lsls	r2, r2, #3
    46d4:	609a      	str	r2, [r3, #8]
			SYSCTRL_INTFLAG_DFLLRDY;

	system_flash_set_waitstates(CONF_CLOCK_FLASH_WAIT_STATES);
    46d6:	2002      	movs	r0, #2
    46d8:	4b6c      	ldr	r3, [pc, #432]	; (488c <system_clock_init+0x1c4>)
    46da:	4798      	blx	r3

	/* Switch all peripheral clock to a not enabled general clock to save power. */
	_switch_peripheral_gclk();
    46dc:	4b6c      	ldr	r3, [pc, #432]	; (4890 <system_clock_init+0x1c8>)
    46de:	4798      	blx	r3


	/* DFLL Config (Open and Closed Loop) */
#if CONF_CLOCK_DFLL_ENABLE == true
	struct system_clock_source_dfll_config dfll_conf;
	system_clock_source_dfll_get_config_defaults(&dfll_conf);
    46e0:	2380      	movs	r3, #128	; 0x80
    46e2:	18fb      	adds	r3, r7, r3
    46e4:	1c18      	adds	r0, r3, #0
    46e6:	4b6b      	ldr	r3, [pc, #428]	; (4894 <system_clock_init+0x1cc>)
    46e8:	4798      	blx	r3

	dfll_conf.loop_mode      = CONF_CLOCK_DFLL_LOOP_MODE;
    46ea:	2380      	movs	r3, #128	; 0x80
    46ec:	18fb      	adds	r3, r7, r3
    46ee:	2220      	movs	r2, #32
    46f0:	701a      	strb	r2, [r3, #0]
	dfll_conf.on_demand      = false;
    46f2:	2380      	movs	r3, #128	; 0x80
    46f4:	18fb      	adds	r3, r7, r3
    46f6:	2200      	movs	r2, #0
    46f8:	705a      	strb	r2, [r3, #1]
	/* Using DFLL48M COARSE CAL value from NVM Software Calibration Area Mapping 
	   in DFLL.COARSE helps to output a frequency close to 48 MHz.*/
#define NVM_DFLL_COARSE_POS    58 /* DFLL48M Coarse calibration value bit position.*/
#define NVM_DFLL_COARSE_SIZE   6  /* DFLL48M Coarse calibration value bit size.*/

	uint32_t coarse =( *((uint32_t *)(NVMCTRL_OTP4)
    46fa:	4b67      	ldr	r3, [pc, #412]	; (4898 <system_clock_init+0x1d0>)
    46fc:	681b      	ldr	r3, [r3, #0]
    46fe:	0e9b      	lsrs	r3, r3, #26
    4700:	2294      	movs	r2, #148	; 0x94
    4702:	18ba      	adds	r2, r7, r2
    4704:	6013      	str	r3, [r2, #0]
			+ (NVM_DFLL_COARSE_POS / 32))
		>> (NVM_DFLL_COARSE_POS % 32))
		& ((1 << NVM_DFLL_COARSE_SIZE) - 1);
	/* In some revision chip, the coarse calibration value is not correct. */
	if (coarse == 0x3f) {
    4706:	2394      	movs	r3, #148	; 0x94
    4708:	18fb      	adds	r3, r7, r3
    470a:	681b      	ldr	r3, [r3, #0]
    470c:	2b3f      	cmp	r3, #63	; 0x3f
    470e:	d103      	bne.n	4718 <system_clock_init+0x50>
		coarse = 0x1f;
    4710:	231f      	movs	r3, #31
    4712:	2294      	movs	r2, #148	; 0x94
    4714:	18ba      	adds	r2, r7, r2
    4716:	6013      	str	r3, [r2, #0]
	}
	dfll_conf.coarse_value = coarse;
    4718:	2394      	movs	r3, #148	; 0x94
    471a:	18fb      	adds	r3, r7, r3
    471c:	681b      	ldr	r3, [r3, #0]
    471e:	b2da      	uxtb	r2, r3
    4720:	2380      	movs	r3, #128	; 0x80
    4722:	18fb      	adds	r3, r7, r3
    4724:	721a      	strb	r2, [r3, #8]
	if (CONF_CLOCK_DFLL_LOOP_MODE == SYSTEM_CLOCK_DFLL_LOOP_MODE_OPEN) {
		dfll_conf.fine_value   = CONF_CLOCK_DFLL_FINE_VALUE;
	}

#  if CONF_CLOCK_DFLL_QUICK_LOCK == true
	dfll_conf.quick_lock = SYSTEM_CLOCK_DFLL_QUICK_LOCK_ENABLE;
    4726:	2380      	movs	r3, #128	; 0x80
    4728:	18fb      	adds	r3, r7, r3
    472a:	2200      	movs	r2, #0
    472c:	805a      	strh	r2, [r3, #2]
#  else
	dfll_conf.quick_lock = SYSTEM_CLOCK_DFLL_QUICK_LOCK_DISABLE;
#  endif

#  if CONF_CLOCK_DFLL_TRACK_AFTER_FINE_LOCK == true
	dfll_conf.stable_tracking = SYSTEM_CLOCK_DFLL_STABLE_TRACKING_TRACK_AFTER_LOCK;
    472e:	2380      	movs	r3, #128	; 0x80
    4730:	18fb      	adds	r3, r7, r3
    4732:	2200      	movs	r2, #0
    4734:	71da      	strb	r2, [r3, #7]
#  else
	dfll_conf.stable_tracking = SYSTEM_CLOCK_DFLL_STABLE_TRACKING_FIX_AFTER_LOCK;
#  endif

#  if CONF_CLOCK_DFLL_KEEP_LOCK_ON_WAKEUP == true
	dfll_conf.wakeup_lock = SYSTEM_CLOCK_DFLL_WAKEUP_LOCK_KEEP;
    4736:	2380      	movs	r3, #128	; 0x80
    4738:	18fb      	adds	r3, r7, r3
    473a:	2200      	movs	r2, #0
    473c:	719a      	strb	r2, [r3, #6]
#  else
	dfll_conf.wakeup_lock = SYSTEM_CLOCK_DFLL_WAKEUP_LOCK_LOSE;
#  endif

#  if CONF_CLOCK_DFLL_ENABLE_CHILL_CYCLE == true
	dfll_conf.chill_cycle = SYSTEM_CLOCK_DFLL_CHILL_CYCLE_ENABLE;
    473e:	2380      	movs	r3, #128	; 0x80
    4740:	18fb      	adds	r3, r7, r3
    4742:	2200      	movs	r2, #0
    4744:	809a      	strh	r2, [r3, #4]

	if (CONF_CLOCK_DFLL_LOOP_MODE == SYSTEM_CLOCK_DFLL_LOOP_MODE_CLOSED) {
		dfll_conf.multiply_factor = CONF_CLOCK_DFLL_MULTIPLY_FACTOR;
	}

	dfll_conf.coarse_max_step = CONF_CLOCK_DFLL_MAX_COARSE_STEP_SIZE;
    4746:	2380      	movs	r3, #128	; 0x80
    4748:	18fb      	adds	r3, r7, r3
    474a:	2207      	movs	r2, #7
    474c:	731a      	strb	r2, [r3, #12]
	dfll_conf.fine_max_step   = CONF_CLOCK_DFLL_MAX_FINE_STEP_SIZE;
    474e:	2380      	movs	r3, #128	; 0x80
    4750:	18fb      	adds	r3, r7, r3
    4752:	223f      	movs	r2, #63	; 0x3f
    4754:	81da      	strh	r2, [r3, #14]

	if (CONF_CLOCK_DFLL_LOOP_MODE == SYSTEM_CLOCK_DFLL_LOOP_MODE_USB_RECOVERY) {
		dfll_conf.fine_max_step   = 10; 
    4756:	2380      	movs	r3, #128	; 0x80
    4758:	18fb      	adds	r3, r7, r3
    475a:	220a      	movs	r2, #10
    475c:	81da      	strh	r2, [r3, #14]
		dfll_conf.fine_value   = 0x1ff;
    475e:	2380      	movs	r3, #128	; 0x80
    4760:	18fb      	adds	r3, r7, r3
    4762:	4a4e      	ldr	r2, [pc, #312]	; (489c <system_clock_init+0x1d4>)
    4764:	815a      	strh	r2, [r3, #10]
		dfll_conf.quick_lock = SYSTEM_CLOCK_DFLL_QUICK_LOCK_ENABLE;
    4766:	2380      	movs	r3, #128	; 0x80
    4768:	18fb      	adds	r3, r7, r3
    476a:	2200      	movs	r2, #0
    476c:	805a      	strh	r2, [r3, #2]
		dfll_conf.stable_tracking = SYSTEM_CLOCK_DFLL_STABLE_TRACKING_TRACK_AFTER_LOCK;
    476e:	2380      	movs	r3, #128	; 0x80
    4770:	18fb      	adds	r3, r7, r3
    4772:	2200      	movs	r2, #0
    4774:	71da      	strb	r2, [r3, #7]
		dfll_conf.wakeup_lock = SYSTEM_CLOCK_DFLL_WAKEUP_LOCK_KEEP;
    4776:	2380      	movs	r3, #128	; 0x80
    4778:	18fb      	adds	r3, r7, r3
    477a:	2200      	movs	r2, #0
    477c:	719a      	strb	r2, [r3, #6]
		dfll_conf.chill_cycle = SYSTEM_CLOCK_DFLL_CHILL_CYCLE_DISABLE;
    477e:	2380      	movs	r3, #128	; 0x80
    4780:	18fb      	adds	r3, r7, r3
    4782:	2280      	movs	r2, #128	; 0x80
    4784:	0052      	lsls	r2, r2, #1
    4786:	809a      	strh	r2, [r3, #4]

		dfll_conf.multiply_factor = 48000;
    4788:	2380      	movs	r3, #128	; 0x80
    478a:	18fb      	adds	r3, r7, r3
    478c:	4a44      	ldr	r2, [pc, #272]	; (48a0 <system_clock_init+0x1d8>)
    478e:	821a      	strh	r2, [r3, #16]
	}

	system_clock_source_dfll_set_config(&dfll_conf);
    4790:	2380      	movs	r3, #128	; 0x80
    4792:	18fb      	adds	r3, r7, r3
    4794:	1c18      	adds	r0, r3, #0
    4796:	4b43      	ldr	r3, [pc, #268]	; (48a4 <system_clock_init+0x1dc>)
    4798:	4798      	blx	r3
#endif


	/* OSC8M */
	struct system_clock_source_osc8m_config osc8m_conf;
	system_clock_source_osc8m_get_config_defaults(&osc8m_conf);
    479a:	237c      	movs	r3, #124	; 0x7c
    479c:	18fb      	adds	r3, r7, r3
    479e:	1c18      	adds	r0, r3, #0
    47a0:	4b41      	ldr	r3, [pc, #260]	; (48a8 <system_clock_init+0x1e0>)
    47a2:	4798      	blx	r3

	osc8m_conf.prescaler       = CONF_CLOCK_OSC8M_PRESCALER;
    47a4:	237c      	movs	r3, #124	; 0x7c
    47a6:	18fb      	adds	r3, r7, r3
    47a8:	2200      	movs	r2, #0
    47aa:	701a      	strb	r2, [r3, #0]
	osc8m_conf.on_demand       = CONF_CLOCK_OSC8M_ON_DEMAND;
    47ac:	237c      	movs	r3, #124	; 0x7c
    47ae:	18fb      	adds	r3, r7, r3
    47b0:	2201      	movs	r2, #1
    47b2:	709a      	strb	r2, [r3, #2]
	osc8m_conf.run_in_standby  = CONF_CLOCK_OSC8M_RUN_IN_STANDBY;
    47b4:	237c      	movs	r3, #124	; 0x7c
    47b6:	18fb      	adds	r3, r7, r3
    47b8:	2200      	movs	r2, #0
    47ba:	705a      	strb	r2, [r3, #1]

	system_clock_source_osc8m_set_config(&osc8m_conf);
    47bc:	237c      	movs	r3, #124	; 0x7c
    47be:	18fb      	adds	r3, r7, r3
    47c0:	1c18      	adds	r0, r3, #0
    47c2:	4b3a      	ldr	r3, [pc, #232]	; (48ac <system_clock_init+0x1e4>)
    47c4:	4798      	blx	r3
	system_clock_source_enable(SYSTEM_CLOCK_SOURCE_OSC8M);
    47c6:	2006      	movs	r0, #6
    47c8:	4b39      	ldr	r3, [pc, #228]	; (48b0 <system_clock_init+0x1e8>)
    47ca:	4798      	blx	r3


	/* GCLK */
#if CONF_CLOCK_CONFIGURE_GCLK == true
	system_gclk_init();
    47cc:	4b39      	ldr	r3, [pc, #228]	; (48b4 <system_clock_init+0x1ec>)
    47ce:	4798      	blx	r3

	/* Configure all GCLK generators except for the main generator, which
	 * is configured later after all other clock systems are set up */
	MREPEAT(GCLK_GEN_NUM, _CONF_CLOCK_GCLK_CONFIG_NONMAIN, ~);
    47d0:	2364      	movs	r3, #100	; 0x64
    47d2:	18fb      	adds	r3, r7, r3
    47d4:	1c18      	adds	r0, r3, #0
    47d6:	4b38      	ldr	r3, [pc, #224]	; (48b8 <system_clock_init+0x1f0>)
    47d8:	4798      	blx	r3
    47da:	2364      	movs	r3, #100	; 0x64
    47dc:	18fb      	adds	r3, r7, r3
    47de:	2205      	movs	r2, #5
    47e0:	701a      	strb	r2, [r3, #0]
    47e2:	2364      	movs	r3, #100	; 0x64
    47e4:	18fb      	adds	r3, r7, r3
    47e6:	2201      	movs	r2, #1
    47e8:	605a      	str	r2, [r3, #4]
    47ea:	2364      	movs	r3, #100	; 0x64
    47ec:	18fb      	adds	r3, r7, r3
    47ee:	2200      	movs	r2, #0
    47f0:	721a      	strb	r2, [r3, #8]
    47f2:	2364      	movs	r3, #100	; 0x64
    47f4:	18fb      	adds	r3, r7, r3
    47f6:	2200      	movs	r2, #0
    47f8:	725a      	strb	r2, [r3, #9]
    47fa:	2364      	movs	r3, #100	; 0x64
    47fc:	18fb      	adds	r3, r7, r3
    47fe:	2001      	movs	r0, #1
    4800:	1c19      	adds	r1, r3, #0
    4802:	4b2e      	ldr	r3, [pc, #184]	; (48bc <system_clock_init+0x1f4>)
    4804:	4798      	blx	r3
    4806:	2001      	movs	r0, #1
    4808:	4b2d      	ldr	r3, [pc, #180]	; (48c0 <system_clock_init+0x1f8>)
    480a:	4798      	blx	r3
#endif


	/* DFLL Enable (Open and Closed Loop) */
#if CONF_CLOCK_DFLL_ENABLE == true
	system_clock_source_enable(SYSTEM_CLOCK_SOURCE_DFLL);
    480c:	2007      	movs	r0, #7
    480e:	4b28      	ldr	r3, [pc, #160]	; (48b0 <system_clock_init+0x1e8>)
    4810:	4798      	blx	r3
	while(!system_clock_source_is_ready(SYSTEM_CLOCK_SOURCE_DFLL));
    4812:	46c0      	nop			; (mov r8, r8)
    4814:	2007      	movs	r0, #7
    4816:	4b2b      	ldr	r3, [pc, #172]	; (48c4 <system_clock_init+0x1fc>)
    4818:	4798      	blx	r3
    481a:	1c03      	adds	r3, r0, #0
    481c:	1c1a      	adds	r2, r3, #0
    481e:	2301      	movs	r3, #1
    4820:	4053      	eors	r3, r2
    4822:	b2db      	uxtb	r3, r3
    4824:	2b00      	cmp	r3, #0
    4826:	d1f5      	bne.n	4814 <system_clock_init+0x14c>
	if (CONF_CLOCK_DFLL_ON_DEMAND) {
		SYSCTRL->DFLLCTRL.bit.ONDEMAND = 1;
    4828:	4b17      	ldr	r3, [pc, #92]	; (4888 <system_clock_init+0x1c0>)
    482a:	8c9a      	ldrh	r2, [r3, #36]	; 0x24
    482c:	2180      	movs	r1, #128	; 0x80
    482e:	430a      	orrs	r2, r1
    4830:	849a      	strh	r2, [r3, #36]	; 0x24

#  endif
#endif

	/* CPU and BUS clocks */
	system_cpu_clock_set_divider(CONF_CLOCK_CPU_DIVIDER);
    4832:	2000      	movs	r0, #0
    4834:	4b24      	ldr	r3, [pc, #144]	; (48c8 <system_clock_init+0x200>)
    4836:	4798      	blx	r3

	system_apb_clock_set_divider(SYSTEM_CLOCK_APB_APBA, CONF_CLOCK_APBA_DIVIDER);
    4838:	2000      	movs	r0, #0
    483a:	2100      	movs	r1, #0
    483c:	4b23      	ldr	r3, [pc, #140]	; (48cc <system_clock_init+0x204>)
    483e:	4798      	blx	r3
	system_apb_clock_set_divider(SYSTEM_CLOCK_APB_APBB, CONF_CLOCK_APBB_DIVIDER);
    4840:	2001      	movs	r0, #1
    4842:	2100      	movs	r1, #0
    4844:	4b21      	ldr	r3, [pc, #132]	; (48cc <system_clock_init+0x204>)
    4846:	4798      	blx	r3
	system_apb_clock_set_divider(SYSTEM_CLOCK_APB_APBC, CONF_CLOCK_APBC_DIVIDER);
    4848:	2002      	movs	r0, #2
    484a:	2100      	movs	r1, #0
    484c:	4b1f      	ldr	r3, [pc, #124]	; (48cc <system_clock_init+0x204>)
    484e:	4798      	blx	r3

	/* GCLK 0 */
#if CONF_CLOCK_CONFIGURE_GCLK == true
	/* Configure the main GCLK last as it might depend on other generators */
	_CONF_CLOCK_GCLK_CONFIG(0, ~);
    4850:	1c3b      	adds	r3, r7, #0
    4852:	1c18      	adds	r0, r3, #0
    4854:	4b18      	ldr	r3, [pc, #96]	; (48b8 <system_clock_init+0x1f0>)
    4856:	4798      	blx	r3
    4858:	1c3b      	adds	r3, r7, #0
    485a:	2207      	movs	r2, #7
    485c:	701a      	strb	r2, [r3, #0]
    485e:	1c3b      	adds	r3, r7, #0
    4860:	2201      	movs	r2, #1
    4862:	605a      	str	r2, [r3, #4]
    4864:	1c3b      	adds	r3, r7, #0
    4866:	2201      	movs	r2, #1
    4868:	721a      	strb	r2, [r3, #8]
    486a:	1c3b      	adds	r3, r7, #0
    486c:	2200      	movs	r2, #0
    486e:	725a      	strb	r2, [r3, #9]
    4870:	1c3b      	adds	r3, r7, #0
    4872:	2000      	movs	r0, #0
    4874:	1c19      	adds	r1, r3, #0
    4876:	4b11      	ldr	r3, [pc, #68]	; (48bc <system_clock_init+0x1f4>)
    4878:	4798      	blx	r3
    487a:	2000      	movs	r0, #0
    487c:	4b10      	ldr	r3, [pc, #64]	; (48c0 <system_clock_init+0x1f8>)
    487e:	4798      	blx	r3
#endif
}
    4880:	46bd      	mov	sp, r7
    4882:	b026      	add	sp, #152	; 0x98
    4884:	bd80      	pop	{r7, pc}
    4886:	46c0      	nop			; (mov r8, r8)
    4888:	40000800 	.word	0x40000800
    488c:	000042bd 	.word	0x000042bd
    4890:	00004691 	.word	0x00004691
    4894:	000041f9 	.word	0x000041f9
    4898:	00806024 	.word	0x00806024
    489c:	000001ff 	.word	0x000001ff
    48a0:	ffffbb80 	.word	0xffffbb80
    48a4:	00004495 	.word	0x00004495
    48a8:	000041d9 	.word	0x000041d9
    48ac:	0000441d 	.word	0x0000441d
    48b0:	00004561 	.word	0x00004561
    48b4:	00004971 	.word	0x00004971
    48b8:	000041ad 	.word	0x000041ad
    48bc:	000049a1 	.word	0x000049a1
    48c0:	00004ac1 	.word	0x00004ac1
    48c4:	0000460d 	.word	0x0000460d
    48c8:	00004249 	.word	0x00004249
    48cc:	00004269 	.word	0x00004269

000048d0 <system_apb_clock_set_mask>:
 * \retval STATUS_OK               The clock mask was set successfully
 */
static inline enum status_code system_apb_clock_set_mask(
		const enum system_clock_apb_bus bus,
		const uint32_t mask)
{
    48d0:	b580      	push	{r7, lr}
    48d2:	b082      	sub	sp, #8
    48d4:	af00      	add	r7, sp, #0
    48d6:	1c02      	adds	r2, r0, #0
    48d8:	6039      	str	r1, [r7, #0]
    48da:	1dfb      	adds	r3, r7, #7
    48dc:	701a      	strb	r2, [r3, #0]
	switch (bus) {
    48de:	1dfb      	adds	r3, r7, #7
    48e0:	781b      	ldrb	r3, [r3, #0]
    48e2:	2b01      	cmp	r3, #1
    48e4:	d00a      	beq.n	48fc <system_apb_clock_set_mask+0x2c>
    48e6:	2b02      	cmp	r3, #2
    48e8:	d00f      	beq.n	490a <system_apb_clock_set_mask+0x3a>
    48ea:	2b00      	cmp	r3, #0
    48ec:	d114      	bne.n	4918 <system_apb_clock_set_mask+0x48>
		case SYSTEM_CLOCK_APB_APBA:
			PM->APBAMASK.reg |= mask;
    48ee:	4b0e      	ldr	r3, [pc, #56]	; (4928 <system_apb_clock_set_mask+0x58>)
    48f0:	4a0d      	ldr	r2, [pc, #52]	; (4928 <system_apb_clock_set_mask+0x58>)
    48f2:	6991      	ldr	r1, [r2, #24]
    48f4:	683a      	ldr	r2, [r7, #0]
    48f6:	430a      	orrs	r2, r1
    48f8:	619a      	str	r2, [r3, #24]
			break;
    48fa:	e00f      	b.n	491c <system_apb_clock_set_mask+0x4c>

		case SYSTEM_CLOCK_APB_APBB:
			PM->APBBMASK.reg |= mask;
    48fc:	4b0a      	ldr	r3, [pc, #40]	; (4928 <system_apb_clock_set_mask+0x58>)
    48fe:	4a0a      	ldr	r2, [pc, #40]	; (4928 <system_apb_clock_set_mask+0x58>)
    4900:	69d1      	ldr	r1, [r2, #28]
    4902:	683a      	ldr	r2, [r7, #0]
    4904:	430a      	orrs	r2, r1
    4906:	61da      	str	r2, [r3, #28]
			break;
    4908:	e008      	b.n	491c <system_apb_clock_set_mask+0x4c>

		case SYSTEM_CLOCK_APB_APBC:
			PM->APBCMASK.reg |= mask;
    490a:	4b07      	ldr	r3, [pc, #28]	; (4928 <system_apb_clock_set_mask+0x58>)
    490c:	4a06      	ldr	r2, [pc, #24]	; (4928 <system_apb_clock_set_mask+0x58>)
    490e:	6a11      	ldr	r1, [r2, #32]
    4910:	683a      	ldr	r2, [r7, #0]
    4912:	430a      	orrs	r2, r1
    4914:	621a      	str	r2, [r3, #32]
			break;
    4916:	e001      	b.n	491c <system_apb_clock_set_mask+0x4c>

		default:
			Assert(false);
			return STATUS_ERR_INVALID_ARG;
    4918:	2317      	movs	r3, #23
    491a:	e000      	b.n	491e <system_apb_clock_set_mask+0x4e>

	}

	return STATUS_OK;
    491c:	2300      	movs	r3, #0
}
    491e:	1c18      	adds	r0, r3, #0
    4920:	46bd      	mov	sp, r7
    4922:	b002      	add	sp, #8
    4924:	bd80      	pop	{r7, pc}
    4926:	46c0      	nop			; (mov r8, r8)
    4928:	40000400 	.word	0x40000400

0000492c <system_interrupt_enter_critical_section>:
 * count of the critical section nesting will be kept, so that global interrupts
 * are only re-enabled upon leaving the outermost nested critical section.
 *
 */
static inline void system_interrupt_enter_critical_section(void)
{
    492c:	b580      	push	{r7, lr}
    492e:	af00      	add	r7, sp, #0
	cpu_irq_enter_critical();
    4930:	4b01      	ldr	r3, [pc, #4]	; (4938 <system_interrupt_enter_critical_section+0xc>)
    4932:	4798      	blx	r3
}
    4934:	46bd      	mov	sp, r7
    4936:	bd80      	pop	{r7, pc}
    4938:	00003965 	.word	0x00003965

0000493c <system_interrupt_leave_critical_section>:
 * count of the critical section nesting will be kept, so that global interrupts
 * are only re-enabled upon leaving the outermost nested critical section.
 *
 */
static inline void system_interrupt_leave_critical_section(void)
{
    493c:	b580      	push	{r7, lr}
    493e:	af00      	add	r7, sp, #0
	cpu_irq_leave_critical();
    4940:	4b01      	ldr	r3, [pc, #4]	; (4948 <system_interrupt_leave_critical_section+0xc>)
    4942:	4798      	blx	r3
}
    4944:	46bd      	mov	sp, r7
    4946:	bd80      	pop	{r7, pc}
    4948:	000039b5 	.word	0x000039b5

0000494c <system_gclk_is_syncing>:
 *
 * \retval false if the module has completed synchronization
 * \retval true if the module synchronization is ongoing
 */
static inline bool system_gclk_is_syncing(void)
{
    494c:	b580      	push	{r7, lr}
    494e:	af00      	add	r7, sp, #0
	if (GCLK->STATUS.reg & GCLK_STATUS_SYNCBUSY){
    4950:	4b06      	ldr	r3, [pc, #24]	; (496c <system_gclk_is_syncing+0x20>)
    4952:	785b      	ldrb	r3, [r3, #1]
    4954:	b2db      	uxtb	r3, r3
    4956:	b2db      	uxtb	r3, r3
    4958:	b25b      	sxtb	r3, r3
    495a:	2b00      	cmp	r3, #0
    495c:	da01      	bge.n	4962 <system_gclk_is_syncing+0x16>
		return true;
    495e:	2301      	movs	r3, #1
    4960:	e000      	b.n	4964 <system_gclk_is_syncing+0x18>
	}

	return false;
    4962:	2300      	movs	r3, #0
}
    4964:	1c18      	adds	r0, r3, #0
    4966:	46bd      	mov	sp, r7
    4968:	bd80      	pop	{r7, pc}
    496a:	46c0      	nop			; (mov r8, r8)
    496c:	40000c00 	.word	0x40000c00

00004970 <system_gclk_init>:
 *
 * Initializes the Generic Clock module, disabling and resetting all active
 * Generic Clock Generators and Channels to their power-on default values.
 */
void system_gclk_init(void)
{
    4970:	b580      	push	{r7, lr}
    4972:	af00      	add	r7, sp, #0
	/* Turn on the digital interface clock */
	system_apb_clock_set_mask(SYSTEM_CLOCK_APB_APBA, PM_APBAMASK_GCLK);
    4974:	2000      	movs	r0, #0
    4976:	2108      	movs	r1, #8
    4978:	4b07      	ldr	r3, [pc, #28]	; (4998 <system_gclk_init+0x28>)
    497a:	4798      	blx	r3

	/* Software reset the module to ensure it is re-initialized correctly */
	GCLK->CTRL.reg = GCLK_CTRL_SWRST;
    497c:	4b07      	ldr	r3, [pc, #28]	; (499c <system_gclk_init+0x2c>)
    497e:	2201      	movs	r2, #1
    4980:	701a      	strb	r2, [r3, #0]
	while (GCLK->CTRL.reg & GCLK_CTRL_SWRST) {
    4982:	46c0      	nop			; (mov r8, r8)
    4984:	4b05      	ldr	r3, [pc, #20]	; (499c <system_gclk_init+0x2c>)
    4986:	781b      	ldrb	r3, [r3, #0]
    4988:	b2db      	uxtb	r3, r3
    498a:	1c1a      	adds	r2, r3, #0
    498c:	2301      	movs	r3, #1
    498e:	4013      	ands	r3, r2
    4990:	d1f8      	bne.n	4984 <system_gclk_init+0x14>
		/* Wait for reset to complete */
	}
}
    4992:	46bd      	mov	sp, r7
    4994:	bd80      	pop	{r7, pc}
    4996:	46c0      	nop			; (mov r8, r8)
    4998:	000048d1 	.word	0x000048d1
    499c:	40000c00 	.word	0x40000c00

000049a0 <system_gclk_gen_set_config>:
 * \param[in] config     Configuration settings for the generator
 */
void system_gclk_gen_set_config(
		const uint8_t generator,
		struct system_gclk_gen_config *const config)
{
    49a0:	b580      	push	{r7, lr}
    49a2:	b086      	sub	sp, #24
    49a4:	af00      	add	r7, sp, #0
    49a6:	1c02      	adds	r2, r0, #0
    49a8:	6039      	str	r1, [r7, #0]
    49aa:	1dfb      	adds	r3, r7, #7
    49ac:	701a      	strb	r2, [r3, #0]
	/* Sanity check arguments */
	Assert(config);

	/* Cache new register configurations to minimize sync requirements. */
	uint32_t new_genctrl_config = (generator << GCLK_GENCTRL_ID_Pos);
    49ae:	1dfb      	adds	r3, r7, #7
    49b0:	781b      	ldrb	r3, [r3, #0]
    49b2:	617b      	str	r3, [r7, #20]
	uint32_t new_gendiv_config  = (generator << GCLK_GENDIV_ID_Pos);
    49b4:	1dfb      	adds	r3, r7, #7
    49b6:	781b      	ldrb	r3, [r3, #0]
    49b8:	613b      	str	r3, [r7, #16]

	/* Select the requested source clock for the generator */
	new_genctrl_config |= config->source_clock << GCLK_GENCTRL_SRC_Pos;
    49ba:	683b      	ldr	r3, [r7, #0]
    49bc:	781b      	ldrb	r3, [r3, #0]
    49be:	021b      	lsls	r3, r3, #8
    49c0:	1c1a      	adds	r2, r3, #0
    49c2:	697b      	ldr	r3, [r7, #20]
    49c4:	4313      	orrs	r3, r2
    49c6:	617b      	str	r3, [r7, #20]

	/* Configure the clock to be either high or low when disabled */
	if (config->high_when_disabled) {
    49c8:	683b      	ldr	r3, [r7, #0]
    49ca:	785b      	ldrb	r3, [r3, #1]
    49cc:	2b00      	cmp	r3, #0
    49ce:	d004      	beq.n	49da <system_gclk_gen_set_config+0x3a>
		new_genctrl_config |= GCLK_GENCTRL_OOV;
    49d0:	697b      	ldr	r3, [r7, #20]
    49d2:	2280      	movs	r2, #128	; 0x80
    49d4:	02d2      	lsls	r2, r2, #11
    49d6:	4313      	orrs	r3, r2
    49d8:	617b      	str	r3, [r7, #20]
	}

	/* Configure if the clock output to I/O pin should be enabled. */
	if (config->output_enable) {
    49da:	683b      	ldr	r3, [r7, #0]
    49dc:	7a5b      	ldrb	r3, [r3, #9]
    49de:	2b00      	cmp	r3, #0
    49e0:	d004      	beq.n	49ec <system_gclk_gen_set_config+0x4c>
		new_genctrl_config |= GCLK_GENCTRL_OE;
    49e2:	697b      	ldr	r3, [r7, #20]
    49e4:	2280      	movs	r2, #128	; 0x80
    49e6:	0312      	lsls	r2, r2, #12
    49e8:	4313      	orrs	r3, r2
    49ea:	617b      	str	r3, [r7, #20]
	}

	/* Set division factor */
	if (config->division_factor > 1) {
    49ec:	683b      	ldr	r3, [r7, #0]
    49ee:	685b      	ldr	r3, [r3, #4]
    49f0:	2b01      	cmp	r3, #1
    49f2:	d92c      	bls.n	4a4e <system_gclk_gen_set_config+0xae>
		/* Check if division is a power of two */
		if (((config->division_factor & (config->division_factor - 1)) == 0)) {
    49f4:	683b      	ldr	r3, [r7, #0]
    49f6:	685a      	ldr	r2, [r3, #4]
    49f8:	683b      	ldr	r3, [r7, #0]
    49fa:	685b      	ldr	r3, [r3, #4]
    49fc:	3b01      	subs	r3, #1
    49fe:	4013      	ands	r3, r2
    4a00:	d11a      	bne.n	4a38 <system_gclk_gen_set_config+0x98>
			/* Determine the index of the highest bit set to get the
			 * division factor that must be loaded into the division
			 * register */

			uint32_t div2_count = 0;
    4a02:	2300      	movs	r3, #0
    4a04:	60fb      	str	r3, [r7, #12]

			uint32_t mask;
			for (mask = (1UL << 1); mask < config->division_factor;
    4a06:	2302      	movs	r3, #2
    4a08:	60bb      	str	r3, [r7, #8]
    4a0a:	e005      	b.n	4a18 <system_gclk_gen_set_config+0x78>
						mask <<= 1) {
				div2_count++;
    4a0c:	68fb      	ldr	r3, [r7, #12]
    4a0e:	3301      	adds	r3, #1
    4a10:	60fb      	str	r3, [r7, #12]

			uint32_t div2_count = 0;

			uint32_t mask;
			for (mask = (1UL << 1); mask < config->division_factor;
						mask <<= 1) {
    4a12:	68bb      	ldr	r3, [r7, #8]
    4a14:	005b      	lsls	r3, r3, #1
    4a16:	60bb      	str	r3, [r7, #8]
			 * register */

			uint32_t div2_count = 0;

			uint32_t mask;
			for (mask = (1UL << 1); mask < config->division_factor;
    4a18:	683b      	ldr	r3, [r7, #0]
    4a1a:	685a      	ldr	r2, [r3, #4]
    4a1c:	68bb      	ldr	r3, [r7, #8]
    4a1e:	429a      	cmp	r2, r3
    4a20:	d8f4      	bhi.n	4a0c <system_gclk_gen_set_config+0x6c>
						mask <<= 1) {
				div2_count++;
			}

			/* Set binary divider power of 2 division factor */
			new_gendiv_config  |= div2_count << GCLK_GENDIV_DIV_Pos;
    4a22:	68fb      	ldr	r3, [r7, #12]
    4a24:	021b      	lsls	r3, r3, #8
    4a26:	693a      	ldr	r2, [r7, #16]
    4a28:	4313      	orrs	r3, r2
    4a2a:	613b      	str	r3, [r7, #16]
			new_genctrl_config |= GCLK_GENCTRL_DIVSEL;
    4a2c:	697b      	ldr	r3, [r7, #20]
    4a2e:	2280      	movs	r2, #128	; 0x80
    4a30:	0352      	lsls	r2, r2, #13
    4a32:	4313      	orrs	r3, r2
    4a34:	617b      	str	r3, [r7, #20]
    4a36:	e00a      	b.n	4a4e <system_gclk_gen_set_config+0xae>
		} else {
			/* Set integer division factor */

			new_gendiv_config  |=
					(config->division_factor) << GCLK_GENDIV_DIV_Pos;
    4a38:	683b      	ldr	r3, [r7, #0]
    4a3a:	685b      	ldr	r3, [r3, #4]
    4a3c:	021b      	lsls	r3, r3, #8
			new_gendiv_config  |= div2_count << GCLK_GENDIV_DIV_Pos;
			new_genctrl_config |= GCLK_GENCTRL_DIVSEL;
		} else {
			/* Set integer division factor */

			new_gendiv_config  |=
    4a3e:	693a      	ldr	r2, [r7, #16]
    4a40:	4313      	orrs	r3, r2
    4a42:	613b      	str	r3, [r7, #16]
					(config->division_factor) << GCLK_GENDIV_DIV_Pos;

			/* Enable non-binary division with increased duty cycle accuracy */
			new_genctrl_config |= GCLK_GENCTRL_IDC;
    4a44:	697b      	ldr	r3, [r7, #20]
    4a46:	2280      	movs	r2, #128	; 0x80
    4a48:	0292      	lsls	r2, r2, #10
    4a4a:	4313      	orrs	r3, r2
    4a4c:	617b      	str	r3, [r7, #20]
		}

	}

	/* Enable or disable the clock in standby mode */
	if (config->run_in_standby) {
    4a4e:	683b      	ldr	r3, [r7, #0]
    4a50:	7a1b      	ldrb	r3, [r3, #8]
    4a52:	2b00      	cmp	r3, #0
    4a54:	d004      	beq.n	4a60 <system_gclk_gen_set_config+0xc0>
		new_genctrl_config |= GCLK_GENCTRL_RUNSTDBY;
    4a56:	697b      	ldr	r3, [r7, #20]
    4a58:	2280      	movs	r2, #128	; 0x80
    4a5a:	0392      	lsls	r2, r2, #14
    4a5c:	4313      	orrs	r3, r2
    4a5e:	617b      	str	r3, [r7, #20]
	}

	while (system_gclk_is_syncing()) {
    4a60:	46c0      	nop			; (mov r8, r8)
    4a62:	4b12      	ldr	r3, [pc, #72]	; (4aac <system_gclk_gen_set_config+0x10c>)
    4a64:	4798      	blx	r3
    4a66:	1e03      	subs	r3, r0, #0
    4a68:	d1fb      	bne.n	4a62 <system_gclk_gen_set_config+0xc2>
		/* Wait for synchronization */
	};

	system_interrupt_enter_critical_section();
    4a6a:	4b11      	ldr	r3, [pc, #68]	; (4ab0 <system_gclk_gen_set_config+0x110>)
    4a6c:	4798      	blx	r3

	/* Select the correct generator */
	*((uint8_t*)&GCLK->GENDIV.reg) = generator;
    4a6e:	4a11      	ldr	r2, [pc, #68]	; (4ab4 <system_gclk_gen_set_config+0x114>)
    4a70:	1dfb      	adds	r3, r7, #7
    4a72:	781b      	ldrb	r3, [r3, #0]
    4a74:	7013      	strb	r3, [r2, #0]

	/* Write the new generator configuration */
	while (system_gclk_is_syncing()) {
    4a76:	46c0      	nop			; (mov r8, r8)
    4a78:	4b0c      	ldr	r3, [pc, #48]	; (4aac <system_gclk_gen_set_config+0x10c>)
    4a7a:	4798      	blx	r3
    4a7c:	1e03      	subs	r3, r0, #0
    4a7e:	d1fb      	bne.n	4a78 <system_gclk_gen_set_config+0xd8>
		/* Wait for synchronization */
	};
	GCLK->GENDIV.reg  = new_gendiv_config;
    4a80:	4b0d      	ldr	r3, [pc, #52]	; (4ab8 <system_gclk_gen_set_config+0x118>)
    4a82:	693a      	ldr	r2, [r7, #16]
    4a84:	609a      	str	r2, [r3, #8]

	while (system_gclk_is_syncing()) {
    4a86:	46c0      	nop			; (mov r8, r8)
    4a88:	4b08      	ldr	r3, [pc, #32]	; (4aac <system_gclk_gen_set_config+0x10c>)
    4a8a:	4798      	blx	r3
    4a8c:	1e03      	subs	r3, r0, #0
    4a8e:	d1fb      	bne.n	4a88 <system_gclk_gen_set_config+0xe8>
		/* Wait for synchronization */
	};
	GCLK->GENCTRL.reg = new_genctrl_config | (GCLK->GENCTRL.reg & GCLK_GENCTRL_GENEN);
    4a90:	4b09      	ldr	r3, [pc, #36]	; (4ab8 <system_gclk_gen_set_config+0x118>)
    4a92:	4a09      	ldr	r2, [pc, #36]	; (4ab8 <system_gclk_gen_set_config+0x118>)
    4a94:	6851      	ldr	r1, [r2, #4]
    4a96:	2280      	movs	r2, #128	; 0x80
    4a98:	0252      	lsls	r2, r2, #9
    4a9a:	4011      	ands	r1, r2
    4a9c:	697a      	ldr	r2, [r7, #20]
    4a9e:	430a      	orrs	r2, r1
    4aa0:	605a      	str	r2, [r3, #4]

	system_interrupt_leave_critical_section();
    4aa2:	4b06      	ldr	r3, [pc, #24]	; (4abc <system_gclk_gen_set_config+0x11c>)
    4aa4:	4798      	blx	r3
}
    4aa6:	46bd      	mov	sp, r7
    4aa8:	b006      	add	sp, #24
    4aaa:	bd80      	pop	{r7, pc}
    4aac:	0000494d 	.word	0x0000494d
    4ab0:	0000492d 	.word	0x0000492d
    4ab4:	40000c08 	.word	0x40000c08
    4ab8:	40000c00 	.word	0x40000c00
    4abc:	0000493d 	.word	0x0000493d

00004ac0 <system_gclk_gen_enable>:
 *
 * \param[in] generator  Generic Clock Generator index to enable
 */
void system_gclk_gen_enable(
		const uint8_t generator)
{
    4ac0:	b580      	push	{r7, lr}
    4ac2:	b082      	sub	sp, #8
    4ac4:	af00      	add	r7, sp, #0
    4ac6:	1c02      	adds	r2, r0, #0
    4ac8:	1dfb      	adds	r3, r7, #7
    4aca:	701a      	strb	r2, [r3, #0]
	while (system_gclk_is_syncing()) {
    4acc:	46c0      	nop			; (mov r8, r8)
    4ace:	4b0d      	ldr	r3, [pc, #52]	; (4b04 <system_gclk_gen_enable+0x44>)
    4ad0:	4798      	blx	r3
    4ad2:	1e03      	subs	r3, r0, #0
    4ad4:	d1fb      	bne.n	4ace <system_gclk_gen_enable+0xe>
		/* Wait for synchronization */
	};

	system_interrupt_enter_critical_section();
    4ad6:	4b0c      	ldr	r3, [pc, #48]	; (4b08 <system_gclk_gen_enable+0x48>)
    4ad8:	4798      	blx	r3

	/* Select the requested generator */
	*((uint8_t*)&GCLK->GENCTRL.reg) = generator;
    4ada:	4a0c      	ldr	r2, [pc, #48]	; (4b0c <system_gclk_gen_enable+0x4c>)
    4adc:	1dfb      	adds	r3, r7, #7
    4ade:	781b      	ldrb	r3, [r3, #0]
    4ae0:	7013      	strb	r3, [r2, #0]
	while (system_gclk_is_syncing()) {
    4ae2:	46c0      	nop			; (mov r8, r8)
    4ae4:	4b07      	ldr	r3, [pc, #28]	; (4b04 <system_gclk_gen_enable+0x44>)
    4ae6:	4798      	blx	r3
    4ae8:	1e03      	subs	r3, r0, #0
    4aea:	d1fb      	bne.n	4ae4 <system_gclk_gen_enable+0x24>
		/* Wait for synchronization */
	};

	/* Enable generator */
	GCLK->GENCTRL.reg |= GCLK_GENCTRL_GENEN;
    4aec:	4b08      	ldr	r3, [pc, #32]	; (4b10 <system_gclk_gen_enable+0x50>)
    4aee:	4a08      	ldr	r2, [pc, #32]	; (4b10 <system_gclk_gen_enable+0x50>)
    4af0:	6852      	ldr	r2, [r2, #4]
    4af2:	2180      	movs	r1, #128	; 0x80
    4af4:	0249      	lsls	r1, r1, #9
    4af6:	430a      	orrs	r2, r1
    4af8:	605a      	str	r2, [r3, #4]

	system_interrupt_leave_critical_section();
    4afa:	4b06      	ldr	r3, [pc, #24]	; (4b14 <system_gclk_gen_enable+0x54>)
    4afc:	4798      	blx	r3
}
    4afe:	46bd      	mov	sp, r7
    4b00:	b002      	add	sp, #8
    4b02:	bd80      	pop	{r7, pc}
    4b04:	0000494d 	.word	0x0000494d
    4b08:	0000492d 	.word	0x0000492d
    4b0c:	40000c04 	.word	0x40000c04
    4b10:	40000c00 	.word	0x40000c00
    4b14:	0000493d 	.word	0x0000493d

00004b18 <system_gclk_gen_get_hz>:
 *
 * \return The frequency of the generic clock generator, in Hz.
 */
uint32_t system_gclk_gen_get_hz(
		const uint8_t generator)
{
    4b18:	b580      	push	{r7, lr}
    4b1a:	b086      	sub	sp, #24
    4b1c:	af00      	add	r7, sp, #0
    4b1e:	1c02      	adds	r2, r0, #0
    4b20:	1dfb      	adds	r3, r7, #7
    4b22:	701a      	strb	r2, [r3, #0]
	while (system_gclk_is_syncing()) {
    4b24:	46c0      	nop			; (mov r8, r8)
    4b26:	4b2e      	ldr	r3, [pc, #184]	; (4be0 <system_gclk_gen_get_hz+0xc8>)
    4b28:	4798      	blx	r3
    4b2a:	1e03      	subs	r3, r0, #0
    4b2c:	d1fb      	bne.n	4b26 <system_gclk_gen_get_hz+0xe>
		/* Wait for synchronization */
	};

	system_interrupt_enter_critical_section();
    4b2e:	4b2d      	ldr	r3, [pc, #180]	; (4be4 <system_gclk_gen_get_hz+0xcc>)
    4b30:	4798      	blx	r3

	/* Select the appropriate generator */
	*((uint8_t*)&GCLK->GENCTRL.reg) = generator;
    4b32:	4a2d      	ldr	r2, [pc, #180]	; (4be8 <system_gclk_gen_get_hz+0xd0>)
    4b34:	1dfb      	adds	r3, r7, #7
    4b36:	781b      	ldrb	r3, [r3, #0]
    4b38:	7013      	strb	r3, [r2, #0]
	while (system_gclk_is_syncing()) {
    4b3a:	46c0      	nop			; (mov r8, r8)
    4b3c:	4b28      	ldr	r3, [pc, #160]	; (4be0 <system_gclk_gen_get_hz+0xc8>)
    4b3e:	4798      	blx	r3
    4b40:	1e03      	subs	r3, r0, #0
    4b42:	d1fb      	bne.n	4b3c <system_gclk_gen_get_hz+0x24>
		/* Wait for synchronization */
	};

	/* Get the frequency of the source connected to the GCLK generator */
	uint32_t gen_input_hz = system_clock_source_get_hz(
			(enum system_clock_source)GCLK->GENCTRL.bit.SRC);
    4b44:	4b29      	ldr	r3, [pc, #164]	; (4bec <system_gclk_gen_get_hz+0xd4>)
    4b46:	685b      	ldr	r3, [r3, #4]
    4b48:	0a1b      	lsrs	r3, r3, #8
    4b4a:	1c1a      	adds	r2, r3, #0
    4b4c:	231f      	movs	r3, #31
    4b4e:	4013      	ands	r3, r2
    4b50:	b2db      	uxtb	r3, r3
	while (system_gclk_is_syncing()) {
		/* Wait for synchronization */
	};

	/* Get the frequency of the source connected to the GCLK generator */
	uint32_t gen_input_hz = system_clock_source_get_hz(
    4b52:	1c18      	adds	r0, r3, #0
    4b54:	4b26      	ldr	r3, [pc, #152]	; (4bf0 <system_gclk_gen_get_hz+0xd8>)
    4b56:	4798      	blx	r3
    4b58:	1c03      	adds	r3, r0, #0
    4b5a:	617b      	str	r3, [r7, #20]
			(enum system_clock_source)GCLK->GENCTRL.bit.SRC);

	*((uint8_t*)&GCLK->GENCTRL.reg) = generator;
    4b5c:	4a22      	ldr	r2, [pc, #136]	; (4be8 <system_gclk_gen_get_hz+0xd0>)
    4b5e:	1dfb      	adds	r3, r7, #7
    4b60:	781b      	ldrb	r3, [r3, #0]
    4b62:	7013      	strb	r3, [r2, #0]

	uint8_t divsel = GCLK->GENCTRL.bit.DIVSEL;
    4b64:	4b21      	ldr	r3, [pc, #132]	; (4bec <system_gclk_gen_get_hz+0xd4>)
    4b66:	685b      	ldr	r3, [r3, #4]
    4b68:	0d1b      	lsrs	r3, r3, #20
    4b6a:	1c1a      	adds	r2, r3, #0
    4b6c:	2301      	movs	r3, #1
    4b6e:	4013      	ands	r3, r2
    4b70:	b2da      	uxtb	r2, r3
    4b72:	2313      	movs	r3, #19
    4b74:	18fb      	adds	r3, r7, r3
    4b76:	701a      	strb	r2, [r3, #0]

	/* Select the appropriate generator division register */
	*((uint8_t*)&GCLK->GENDIV.reg) = generator;
    4b78:	4a1e      	ldr	r2, [pc, #120]	; (4bf4 <system_gclk_gen_get_hz+0xdc>)
    4b7a:	1dfb      	adds	r3, r7, #7
    4b7c:	781b      	ldrb	r3, [r3, #0]
    4b7e:	7013      	strb	r3, [r2, #0]
	while (system_gclk_is_syncing()) {
    4b80:	46c0      	nop			; (mov r8, r8)
    4b82:	4b17      	ldr	r3, [pc, #92]	; (4be0 <system_gclk_gen_get_hz+0xc8>)
    4b84:	4798      	blx	r3
    4b86:	1e03      	subs	r3, r0, #0
    4b88:	d1fb      	bne.n	4b82 <system_gclk_gen_get_hz+0x6a>
		/* Wait for synchronization */
	};

	uint32_t divider = GCLK->GENDIV.bit.DIV;
    4b8a:	4b18      	ldr	r3, [pc, #96]	; (4bec <system_gclk_gen_get_hz+0xd4>)
    4b8c:	689b      	ldr	r3, [r3, #8]
    4b8e:	0a1b      	lsrs	r3, r3, #8
    4b90:	1c1a      	adds	r2, r3, #0
    4b92:	2300      	movs	r3, #0
    4b94:	439a      	bics	r2, r3
    4b96:	1c13      	adds	r3, r2, #0
    4b98:	b29b      	uxth	r3, r3
    4b9a:	60fb      	str	r3, [r7, #12]

	system_interrupt_leave_critical_section();
    4b9c:	4b16      	ldr	r3, [pc, #88]	; (4bf8 <system_gclk_gen_get_hz+0xe0>)
    4b9e:	4798      	blx	r3

	/* Check if the generator is using fractional or binary division */
	if (!divsel && divider > 1) {
    4ba0:	2313      	movs	r3, #19
    4ba2:	18fb      	adds	r3, r7, r3
    4ba4:	781b      	ldrb	r3, [r3, #0]
    4ba6:	2b00      	cmp	r3, #0
    4ba8:	d109      	bne.n	4bbe <system_gclk_gen_get_hz+0xa6>
    4baa:	68fb      	ldr	r3, [r7, #12]
    4bac:	2b01      	cmp	r3, #1
    4bae:	d906      	bls.n	4bbe <system_gclk_gen_get_hz+0xa6>
		gen_input_hz /= divider;
    4bb0:	4b12      	ldr	r3, [pc, #72]	; (4bfc <system_gclk_gen_get_hz+0xe4>)
    4bb2:	6978      	ldr	r0, [r7, #20]
    4bb4:	68f9      	ldr	r1, [r7, #12]
    4bb6:	4798      	blx	r3
    4bb8:	1c03      	adds	r3, r0, #0
    4bba:	617b      	str	r3, [r7, #20]
    4bbc:	e00a      	b.n	4bd4 <system_gclk_gen_get_hz+0xbc>
	} else if (divsel) {
    4bbe:	2313      	movs	r3, #19
    4bc0:	18fb      	adds	r3, r7, r3
    4bc2:	781b      	ldrb	r3, [r3, #0]
    4bc4:	2b00      	cmp	r3, #0
    4bc6:	d005      	beq.n	4bd4 <system_gclk_gen_get_hz+0xbc>
		gen_input_hz >>= (divider+1);
    4bc8:	68fb      	ldr	r3, [r7, #12]
    4bca:	3301      	adds	r3, #1
    4bcc:	1c1a      	adds	r2, r3, #0
    4bce:	697b      	ldr	r3, [r7, #20]
    4bd0:	40d3      	lsrs	r3, r2
    4bd2:	617b      	str	r3, [r7, #20]
	}

	return gen_input_hz;
    4bd4:	697b      	ldr	r3, [r7, #20]
}
    4bd6:	1c18      	adds	r0, r3, #0
    4bd8:	46bd      	mov	sp, r7
    4bda:	b006      	add	sp, #24
    4bdc:	bd80      	pop	{r7, pc}
    4bde:	46c0      	nop			; (mov r8, r8)
    4be0:	0000494d 	.word	0x0000494d
    4be4:	0000492d 	.word	0x0000492d
    4be8:	40000c04 	.word	0x40000c04
    4bec:	40000c00 	.word	0x40000c00
    4bf0:	0000434d 	.word	0x0000434d
    4bf4:	40000c08 	.word	0x40000c08
    4bf8:	0000493d 	.word	0x0000493d
    4bfc:	00008855 	.word	0x00008855

00004c00 <system_gclk_chan_set_config>:
 *
 */
void system_gclk_chan_set_config(
		const uint8_t channel,
		struct system_gclk_chan_config *const config)
{
    4c00:	b580      	push	{r7, lr}
    4c02:	b084      	sub	sp, #16
    4c04:	af00      	add	r7, sp, #0
    4c06:	1c02      	adds	r2, r0, #0
    4c08:	6039      	str	r1, [r7, #0]
    4c0a:	1dfb      	adds	r3, r7, #7
    4c0c:	701a      	strb	r2, [r3, #0]
	/* Sanity check arguments */
	Assert(config);

	/* Cache the new config to reduce sync requirements */
	uint32_t new_clkctrl_config = (channel << GCLK_CLKCTRL_ID_Pos);
    4c0e:	1dfb      	adds	r3, r7, #7
    4c10:	781b      	ldrb	r3, [r3, #0]
    4c12:	60fb      	str	r3, [r7, #12]

	/* Select the desired generic clock generator */
	new_clkctrl_config |= config->source_generator << GCLK_CLKCTRL_GEN_Pos;
    4c14:	683b      	ldr	r3, [r7, #0]
    4c16:	781b      	ldrb	r3, [r3, #0]
    4c18:	021b      	lsls	r3, r3, #8
    4c1a:	1c1a      	adds	r2, r3, #0
    4c1c:	68fb      	ldr	r3, [r7, #12]
    4c1e:	4313      	orrs	r3, r2
    4c20:	60fb      	str	r3, [r7, #12]

	/* Disable generic clock channel */
	system_gclk_chan_disable(channel);
    4c22:	1dfb      	adds	r3, r7, #7
    4c24:	781b      	ldrb	r3, [r3, #0]
    4c26:	1c18      	adds	r0, r3, #0
    4c28:	4b04      	ldr	r3, [pc, #16]	; (4c3c <system_gclk_chan_set_config+0x3c>)
    4c2a:	4798      	blx	r3

	/* Write the new configuration */
	GCLK->CLKCTRL.reg = new_clkctrl_config;
    4c2c:	4b04      	ldr	r3, [pc, #16]	; (4c40 <system_gclk_chan_set_config+0x40>)
    4c2e:	68fa      	ldr	r2, [r7, #12]
    4c30:	b292      	uxth	r2, r2
    4c32:	805a      	strh	r2, [r3, #2]
}
    4c34:	46bd      	mov	sp, r7
    4c36:	b004      	add	sp, #16
    4c38:	bd80      	pop	{r7, pc}
    4c3a:	46c0      	nop			; (mov r8, r8)
    4c3c:	00004c89 	.word	0x00004c89
    4c40:	40000c00 	.word	0x40000c00

00004c44 <system_gclk_chan_enable>:
 *
 * \param[in] channel   Generic Clock channel to enable
 */
void system_gclk_chan_enable(
		const uint8_t channel)
{
    4c44:	b580      	push	{r7, lr}
    4c46:	b082      	sub	sp, #8
    4c48:	af00      	add	r7, sp, #0
    4c4a:	1c02      	adds	r2, r0, #0
    4c4c:	1dfb      	adds	r3, r7, #7
    4c4e:	701a      	strb	r2, [r3, #0]
	system_interrupt_enter_critical_section();
    4c50:	4b09      	ldr	r3, [pc, #36]	; (4c78 <system_gclk_chan_enable+0x34>)
    4c52:	4798      	blx	r3

	/* Select the requested generator channel */
	*((uint8_t*)&GCLK->CLKCTRL.reg) = channel;
    4c54:	4a09      	ldr	r2, [pc, #36]	; (4c7c <system_gclk_chan_enable+0x38>)
    4c56:	1dfb      	adds	r3, r7, #7
    4c58:	781b      	ldrb	r3, [r3, #0]
    4c5a:	7013      	strb	r3, [r2, #0]

	/* Enable the generic clock */
	GCLK->CLKCTRL.reg |= GCLK_CLKCTRL_CLKEN;
    4c5c:	4908      	ldr	r1, [pc, #32]	; (4c80 <system_gclk_chan_enable+0x3c>)
    4c5e:	4b08      	ldr	r3, [pc, #32]	; (4c80 <system_gclk_chan_enable+0x3c>)
    4c60:	885b      	ldrh	r3, [r3, #2]
    4c62:	b29b      	uxth	r3, r3
    4c64:	2280      	movs	r2, #128	; 0x80
    4c66:	01d2      	lsls	r2, r2, #7
    4c68:	4313      	orrs	r3, r2
    4c6a:	b29b      	uxth	r3, r3
    4c6c:	804b      	strh	r3, [r1, #2]

	system_interrupt_leave_critical_section();
    4c6e:	4b05      	ldr	r3, [pc, #20]	; (4c84 <system_gclk_chan_enable+0x40>)
    4c70:	4798      	blx	r3
}
    4c72:	46bd      	mov	sp, r7
    4c74:	b002      	add	sp, #8
    4c76:	bd80      	pop	{r7, pc}
    4c78:	0000492d 	.word	0x0000492d
    4c7c:	40000c02 	.word	0x40000c02
    4c80:	40000c00 	.word	0x40000c00
    4c84:	0000493d 	.word	0x0000493d

00004c88 <system_gclk_chan_disable>:
 *
 * \param[in] channel  Generic Clock channel to disable
 */
void system_gclk_chan_disable(
		const uint8_t channel)
{
    4c88:	b580      	push	{r7, lr}
    4c8a:	b084      	sub	sp, #16
    4c8c:	af00      	add	r7, sp, #0
    4c8e:	1c02      	adds	r2, r0, #0
    4c90:	1dfb      	adds	r3, r7, #7
    4c92:	701a      	strb	r2, [r3, #0]
	system_interrupt_enter_critical_section();
    4c94:	4b1d      	ldr	r3, [pc, #116]	; (4d0c <system_gclk_chan_disable+0x84>)
    4c96:	4798      	blx	r3

	/* Select the requested generator channel */
	*((uint8_t*)&GCLK->CLKCTRL.reg) = channel;
    4c98:	4a1d      	ldr	r2, [pc, #116]	; (4d10 <system_gclk_chan_disable+0x88>)
    4c9a:	1dfb      	adds	r3, r7, #7
    4c9c:	781b      	ldrb	r3, [r3, #0]
    4c9e:	7013      	strb	r3, [r2, #0]

	/* Sanity check WRTLOCK */
	Assert(!GCLK->CLKCTRL.bit.WRTLOCK);

	/* Switch to known-working source so that the channel can be disabled */
	uint32_t prev_gen_id = GCLK->CLKCTRL.bit.GEN;
    4ca0:	4b1c      	ldr	r3, [pc, #112]	; (4d14 <system_gclk_chan_disable+0x8c>)
    4ca2:	885b      	ldrh	r3, [r3, #2]
    4ca4:	b29b      	uxth	r3, r3
    4ca6:	0a1b      	lsrs	r3, r3, #8
    4ca8:	1c1a      	adds	r2, r3, #0
    4caa:	230f      	movs	r3, #15
    4cac:	4013      	ands	r3, r2
    4cae:	b2db      	uxtb	r3, r3
    4cb0:	60fb      	str	r3, [r7, #12]
	GCLK->CLKCTRL.bit.GEN = 0;
    4cb2:	4b18      	ldr	r3, [pc, #96]	; (4d14 <system_gclk_chan_disable+0x8c>)
    4cb4:	885a      	ldrh	r2, [r3, #2]
    4cb6:	4918      	ldr	r1, [pc, #96]	; (4d18 <system_gclk_chan_disable+0x90>)
    4cb8:	400a      	ands	r2, r1
    4cba:	805a      	strh	r2, [r3, #2]

	/* Disable the generic clock */
	GCLK->CLKCTRL.reg &= ~GCLK_CLKCTRL_CLKEN;
    4cbc:	4a15      	ldr	r2, [pc, #84]	; (4d14 <system_gclk_chan_disable+0x8c>)
    4cbe:	4b15      	ldr	r3, [pc, #84]	; (4d14 <system_gclk_chan_disable+0x8c>)
    4cc0:	885b      	ldrh	r3, [r3, #2]
    4cc2:	b29b      	uxth	r3, r3
    4cc4:	4915      	ldr	r1, [pc, #84]	; (4d1c <system_gclk_chan_disable+0x94>)
    4cc6:	400b      	ands	r3, r1
    4cc8:	b29b      	uxth	r3, r3
    4cca:	8053      	strh	r3, [r2, #2]
	while (GCLK->CLKCTRL.reg & GCLK_CLKCTRL_CLKEN) {
    4ccc:	46c0      	nop			; (mov r8, r8)
    4cce:	4b11      	ldr	r3, [pc, #68]	; (4d14 <system_gclk_chan_disable+0x8c>)
    4cd0:	885b      	ldrh	r3, [r3, #2]
    4cd2:	b29b      	uxth	r3, r3
    4cd4:	1c1a      	adds	r2, r3, #0
    4cd6:	2380      	movs	r3, #128	; 0x80
    4cd8:	01db      	lsls	r3, r3, #7
    4cda:	4013      	ands	r3, r2
    4cdc:	d1f7      	bne.n	4cce <system_gclk_chan_disable+0x46>
		/* Wait for clock to become disabled */
	}

	/* Restore previous configured clock generator */
	GCLK->CLKCTRL.bit.GEN = prev_gen_id;
    4cde:	4b0d      	ldr	r3, [pc, #52]	; (4d14 <system_gclk_chan_disable+0x8c>)
    4ce0:	68fa      	ldr	r2, [r7, #12]
    4ce2:	b2d2      	uxtb	r2, r2
    4ce4:	1c11      	adds	r1, r2, #0
    4ce6:	220f      	movs	r2, #15
    4ce8:	400a      	ands	r2, r1
    4cea:	b2d2      	uxtb	r2, r2
    4cec:	1c11      	adds	r1, r2, #0
    4cee:	220f      	movs	r2, #15
    4cf0:	400a      	ands	r2, r1
    4cf2:	0210      	lsls	r0, r2, #8
    4cf4:	885a      	ldrh	r2, [r3, #2]
    4cf6:	4908      	ldr	r1, [pc, #32]	; (4d18 <system_gclk_chan_disable+0x90>)
    4cf8:	400a      	ands	r2, r1
    4cfa:	1c11      	adds	r1, r2, #0
    4cfc:	1c02      	adds	r2, r0, #0
    4cfe:	430a      	orrs	r2, r1
    4d00:	805a      	strh	r2, [r3, #2]

	system_interrupt_leave_critical_section();
    4d02:	4b07      	ldr	r3, [pc, #28]	; (4d20 <system_gclk_chan_disable+0x98>)
    4d04:	4798      	blx	r3
}
    4d06:	46bd      	mov	sp, r7
    4d08:	b004      	add	sp, #16
    4d0a:	bd80      	pop	{r7, pc}
    4d0c:	0000492d 	.word	0x0000492d
    4d10:	40000c02 	.word	0x40000c02
    4d14:	40000c00 	.word	0x40000c00
    4d18:	fffff0ff 	.word	0xfffff0ff
    4d1c:	ffffbfff 	.word	0xffffbfff
    4d20:	0000493d 	.word	0x0000493d

00004d24 <system_gclk_chan_get_hz>:
 *
 * \return The frequency of the generic clock channel, in Hz.
 */
uint32_t system_gclk_chan_get_hz(
		const uint8_t channel)
{
    4d24:	b580      	push	{r7, lr}
    4d26:	b084      	sub	sp, #16
    4d28:	af00      	add	r7, sp, #0
    4d2a:	1c02      	adds	r2, r0, #0
    4d2c:	1dfb      	adds	r3, r7, #7
    4d2e:	701a      	strb	r2, [r3, #0]
	uint8_t gen_id;

	system_interrupt_enter_critical_section();
    4d30:	4b0e      	ldr	r3, [pc, #56]	; (4d6c <system_gclk_chan_get_hz+0x48>)
    4d32:	4798      	blx	r3

	/* Select the requested generic clock channel */
	*((uint8_t*)&GCLK->CLKCTRL.reg) = channel;
    4d34:	4a0e      	ldr	r2, [pc, #56]	; (4d70 <system_gclk_chan_get_hz+0x4c>)
    4d36:	1dfb      	adds	r3, r7, #7
    4d38:	781b      	ldrb	r3, [r3, #0]
    4d3a:	7013      	strb	r3, [r2, #0]
	gen_id = GCLK->CLKCTRL.bit.GEN;
    4d3c:	4b0d      	ldr	r3, [pc, #52]	; (4d74 <system_gclk_chan_get_hz+0x50>)
    4d3e:	885b      	ldrh	r3, [r3, #2]
    4d40:	b29b      	uxth	r3, r3
    4d42:	0a1b      	lsrs	r3, r3, #8
    4d44:	1c1a      	adds	r2, r3, #0
    4d46:	230f      	movs	r3, #15
    4d48:	4013      	ands	r3, r2
    4d4a:	b2da      	uxtb	r2, r3
    4d4c:	230f      	movs	r3, #15
    4d4e:	18fb      	adds	r3, r7, r3
    4d50:	701a      	strb	r2, [r3, #0]

	system_interrupt_leave_critical_section();
    4d52:	4b09      	ldr	r3, [pc, #36]	; (4d78 <system_gclk_chan_get_hz+0x54>)
    4d54:	4798      	blx	r3

	/* Return the clock speed of the associated GCLK generator */
	return system_gclk_gen_get_hz(gen_id);
    4d56:	230f      	movs	r3, #15
    4d58:	18fb      	adds	r3, r7, r3
    4d5a:	781b      	ldrb	r3, [r3, #0]
    4d5c:	1c18      	adds	r0, r3, #0
    4d5e:	4b07      	ldr	r3, [pc, #28]	; (4d7c <system_gclk_chan_get_hz+0x58>)
    4d60:	4798      	blx	r3
    4d62:	1c03      	adds	r3, r0, #0
}
    4d64:	1c18      	adds	r0, r3, #0
    4d66:	46bd      	mov	sp, r7
    4d68:	b004      	add	sp, #16
    4d6a:	bd80      	pop	{r7, pc}
    4d6c:	0000492d 	.word	0x0000492d
    4d70:	40000c02 	.word	0x40000c02
    4d74:	40000c00 	.word	0x40000c00
    4d78:	0000493d 	.word	0x0000493d
    4d7c:	00004b19 	.word	0x00004b19

00004d80 <system_pinmux_get_group_from_gpio_pin>:
 *
 * \return Base address of the associated PORT module.
 */
static inline PortGroup* system_pinmux_get_group_from_gpio_pin(
		const uint8_t gpio_pin)
{
    4d80:	b580      	push	{r7, lr}
    4d82:	b084      	sub	sp, #16
    4d84:	af00      	add	r7, sp, #0
    4d86:	1c02      	adds	r2, r0, #0
    4d88:	1dfb      	adds	r3, r7, #7
    4d8a:	701a      	strb	r2, [r3, #0]
	uint8_t port_index  = (gpio_pin / 128);
    4d8c:	230f      	movs	r3, #15
    4d8e:	18fb      	adds	r3, r7, r3
    4d90:	1dfa      	adds	r2, r7, #7
    4d92:	7812      	ldrb	r2, [r2, #0]
    4d94:	09d2      	lsrs	r2, r2, #7
    4d96:	701a      	strb	r2, [r3, #0]
	uint8_t group_index = (gpio_pin / 32);
    4d98:	230e      	movs	r3, #14
    4d9a:	18fb      	adds	r3, r7, r3
    4d9c:	1dfa      	adds	r2, r7, #7
    4d9e:	7812      	ldrb	r2, [r2, #0]
    4da0:	0952      	lsrs	r2, r2, #5
    4da2:	701a      	strb	r2, [r3, #0]

	/* Array of available ports */
	Port *const ports[PORT_INST_NUM] = PORT_INSTS;
    4da4:	4b0d      	ldr	r3, [pc, #52]	; (4ddc <system_pinmux_get_group_from_gpio_pin+0x5c>)
    4da6:	60bb      	str	r3, [r7, #8]

	if (port_index < PORT_INST_NUM) {
    4da8:	230f      	movs	r3, #15
    4daa:	18fb      	adds	r3, r7, r3
    4dac:	781b      	ldrb	r3, [r3, #0]
    4dae:	2b00      	cmp	r3, #0
    4db0:	d10f      	bne.n	4dd2 <system_pinmux_get_group_from_gpio_pin+0x52>
		return &(ports[port_index]->Group[group_index]);
    4db2:	230f      	movs	r3, #15
    4db4:	18fb      	adds	r3, r7, r3
    4db6:	781b      	ldrb	r3, [r3, #0]
    4db8:	009b      	lsls	r3, r3, #2
    4dba:	2210      	movs	r2, #16
    4dbc:	4694      	mov	ip, r2
    4dbe:	44bc      	add	ip, r7
    4dc0:	4463      	add	r3, ip
    4dc2:	3b08      	subs	r3, #8
    4dc4:	681a      	ldr	r2, [r3, #0]
    4dc6:	230e      	movs	r3, #14
    4dc8:	18fb      	adds	r3, r7, r3
    4dca:	781b      	ldrb	r3, [r3, #0]
    4dcc:	01db      	lsls	r3, r3, #7
    4dce:	18d3      	adds	r3, r2, r3
    4dd0:	e000      	b.n	4dd4 <system_pinmux_get_group_from_gpio_pin+0x54>
	} else {
		Assert(false);
		return NULL;
    4dd2:	2300      	movs	r3, #0
	}
}
    4dd4:	1c18      	adds	r0, r3, #0
    4dd6:	46bd      	mov	sp, r7
    4dd8:	b004      	add	sp, #16
    4dda:	bd80      	pop	{r7, pc}
    4ddc:	41004400 	.word	0x41004400

00004de0 <_system_pinmux_config>:
 */
static void _system_pinmux_config(
		PortGroup *const port,
		const uint32_t pin_mask,
		const struct system_pinmux_config *const config)
{
    4de0:	b580      	push	{r7, lr}
    4de2:	b088      	sub	sp, #32
    4de4:	af00      	add	r7, sp, #0
    4de6:	60f8      	str	r0, [r7, #12]
    4de8:	60b9      	str	r1, [r7, #8]
    4dea:	607a      	str	r2, [r7, #4]
	Assert(port);
	Assert(config);

	/* Track the configuration bits into a temporary variable before writing */
	uint32_t pin_cfg = 0;
    4dec:	2300      	movs	r3, #0
    4dee:	61fb      	str	r3, [r7, #28]

	/* Enabled powersave mode, don't create configuration */
	if (!config->powersave) {
    4df0:	687b      	ldr	r3, [r7, #4]
    4df2:	78db      	ldrb	r3, [r3, #3]
    4df4:	2201      	movs	r2, #1
    4df6:	4053      	eors	r3, r2
    4df8:	b2db      	uxtb	r3, r3
    4dfa:	2b00      	cmp	r3, #0
    4dfc:	d035      	beq.n	4e6a <_system_pinmux_config+0x8a>
		/* Enable the pin peripheral MUX flag if non-GPIO selected (pinmux will
		 * be written later) and store the new MUX mask */
		if (config->mux_position != SYSTEM_PINMUX_GPIO) {
    4dfe:	687b      	ldr	r3, [r7, #4]
    4e00:	781b      	ldrb	r3, [r3, #0]
    4e02:	2b80      	cmp	r3, #128	; 0x80
    4e04:	d00b      	beq.n	4e1e <_system_pinmux_config+0x3e>
			pin_cfg |= PORT_WRCONFIG_PMUXEN;
    4e06:	69fb      	ldr	r3, [r7, #28]
    4e08:	2280      	movs	r2, #128	; 0x80
    4e0a:	0252      	lsls	r2, r2, #9
    4e0c:	4313      	orrs	r3, r2
    4e0e:	61fb      	str	r3, [r7, #28]
			pin_cfg |= (config->mux_position << PORT_WRCONFIG_PMUX_Pos);
    4e10:	687b      	ldr	r3, [r7, #4]
    4e12:	781b      	ldrb	r3, [r3, #0]
    4e14:	061b      	lsls	r3, r3, #24
    4e16:	1c1a      	adds	r2, r3, #0
    4e18:	69fb      	ldr	r3, [r7, #28]
    4e1a:	4313      	orrs	r3, r2
    4e1c:	61fb      	str	r3, [r7, #28]
		}

		/* Check if the user has requested that the input buffer be enabled */
		if ((config->direction == SYSTEM_PINMUX_PIN_DIR_INPUT) ||
    4e1e:	687b      	ldr	r3, [r7, #4]
    4e20:	785b      	ldrb	r3, [r3, #1]
    4e22:	2b00      	cmp	r3, #0
    4e24:	d003      	beq.n	4e2e <_system_pinmux_config+0x4e>
				(config->direction == SYSTEM_PINMUX_PIN_DIR_OUTPUT_WITH_READBACK)) {
    4e26:	687b      	ldr	r3, [r7, #4]
    4e28:	785b      	ldrb	r3, [r3, #1]
			pin_cfg |= PORT_WRCONFIG_PMUXEN;
			pin_cfg |= (config->mux_position << PORT_WRCONFIG_PMUX_Pos);
		}

		/* Check if the user has requested that the input buffer be enabled */
		if ((config->direction == SYSTEM_PINMUX_PIN_DIR_INPUT) ||
    4e2a:	2b02      	cmp	r3, #2
    4e2c:	d110      	bne.n	4e50 <_system_pinmux_config+0x70>
				(config->direction == SYSTEM_PINMUX_PIN_DIR_OUTPUT_WITH_READBACK)) {
			/* Enable input buffer flag */
			pin_cfg |= PORT_WRCONFIG_INEN;
    4e2e:	69fb      	ldr	r3, [r7, #28]
    4e30:	2280      	movs	r2, #128	; 0x80
    4e32:	0292      	lsls	r2, r2, #10
    4e34:	4313      	orrs	r3, r2
    4e36:	61fb      	str	r3, [r7, #28]

			/* Enable pull-up/pull-down control flag if requested */
			if (config->input_pull != SYSTEM_PINMUX_PIN_PULL_NONE) {
    4e38:	687b      	ldr	r3, [r7, #4]
    4e3a:	789b      	ldrb	r3, [r3, #2]
    4e3c:	2b00      	cmp	r3, #0
    4e3e:	d004      	beq.n	4e4a <_system_pinmux_config+0x6a>
				pin_cfg |= PORT_WRCONFIG_PULLEN;
    4e40:	69fb      	ldr	r3, [r7, #28]
    4e42:	2280      	movs	r2, #128	; 0x80
    4e44:	02d2      	lsls	r2, r2, #11
    4e46:	4313      	orrs	r3, r2
    4e48:	61fb      	str	r3, [r7, #28]
			}

			/* Clear the port DIR bits to disable the output buffer */
			port->DIRCLR.reg = pin_mask;
    4e4a:	68fb      	ldr	r3, [r7, #12]
    4e4c:	68ba      	ldr	r2, [r7, #8]
    4e4e:	605a      	str	r2, [r3, #4]
		}

		/* Check if the user has requested that the output buffer be enabled */
		if ((config->direction == SYSTEM_PINMUX_PIN_DIR_OUTPUT) ||
    4e50:	687b      	ldr	r3, [r7, #4]
    4e52:	785b      	ldrb	r3, [r3, #1]
    4e54:	2b01      	cmp	r3, #1
    4e56:	d003      	beq.n	4e60 <_system_pinmux_config+0x80>
				(config->direction == SYSTEM_PINMUX_PIN_DIR_OUTPUT_WITH_READBACK)) {
    4e58:	687b      	ldr	r3, [r7, #4]
    4e5a:	785b      	ldrb	r3, [r3, #1]
			/* Clear the port DIR bits to disable the output buffer */
			port->DIRCLR.reg = pin_mask;
		}

		/* Check if the user has requested that the output buffer be enabled */
		if ((config->direction == SYSTEM_PINMUX_PIN_DIR_OUTPUT) ||
    4e5c:	2b02      	cmp	r3, #2
    4e5e:	d107      	bne.n	4e70 <_system_pinmux_config+0x90>
				(config->direction == SYSTEM_PINMUX_PIN_DIR_OUTPUT_WITH_READBACK)) {
			/* Cannot use a pull-up if the output driver is enabled,
			 * if requested the input buffer can only sample the current
			 * output state */
			pin_cfg &= ~PORT_WRCONFIG_PULLEN;
    4e60:	69fb      	ldr	r3, [r7, #28]
    4e62:	4a21      	ldr	r2, [pc, #132]	; (4ee8 <_system_pinmux_config+0x108>)
    4e64:	4013      	ands	r3, r2
    4e66:	61fb      	str	r3, [r7, #28]
    4e68:	e002      	b.n	4e70 <_system_pinmux_config+0x90>
		}
	} else {
		port->DIRCLR.reg = pin_mask;
    4e6a:	68fb      	ldr	r3, [r7, #12]
    4e6c:	68ba      	ldr	r2, [r7, #8]
    4e6e:	605a      	str	r2, [r3, #4]
	}

	/* The Write Configuration register (WRCONFIG) requires the
	 * pins to to grouped into two 16-bit half-words - split them out here */
	uint32_t lower_pin_mask = (pin_mask & 0xFFFF);
    4e70:	68bb      	ldr	r3, [r7, #8]
    4e72:	041b      	lsls	r3, r3, #16
    4e74:	0c1b      	lsrs	r3, r3, #16
    4e76:	61bb      	str	r3, [r7, #24]
	uint32_t upper_pin_mask = (pin_mask >> 16);
    4e78:	68bb      	ldr	r3, [r7, #8]
    4e7a:	0c1b      	lsrs	r3, r3, #16
    4e7c:	617b      	str	r3, [r7, #20]

	/* Configure the lower 16-bits of the port to the desired configuration,
	 * including the pin peripheral multiplexer just in case it is enabled */
	port->WRCONFIG.reg
		= (lower_pin_mask << PORT_WRCONFIG_PINMASK_Pos) |
    4e7e:	69ba      	ldr	r2, [r7, #24]
    4e80:	69fb      	ldr	r3, [r7, #28]
    4e82:	4313      	orrs	r3, r2
			pin_cfg | PORT_WRCONFIG_WRPMUX | PORT_WRCONFIG_WRPINCFG;
    4e84:	22a0      	movs	r2, #160	; 0xa0
    4e86:	05d2      	lsls	r2, r2, #23
    4e88:	431a      	orrs	r2, r3
	uint32_t upper_pin_mask = (pin_mask >> 16);

	/* Configure the lower 16-bits of the port to the desired configuration,
	 * including the pin peripheral multiplexer just in case it is enabled */
	port->WRCONFIG.reg
		= (lower_pin_mask << PORT_WRCONFIG_PINMASK_Pos) |
    4e8a:	68fb      	ldr	r3, [r7, #12]
    4e8c:	629a      	str	r2, [r3, #40]	; 0x28
			pin_cfg | PORT_WRCONFIG_WRPMUX | PORT_WRCONFIG_WRPINCFG;

	/* Configure the upper 16-bits of the port to the desired configuration,
	 * including the pin peripheral multiplexer just in case it is enabled */
	port->WRCONFIG.reg
		= (upper_pin_mask << PORT_WRCONFIG_PINMASK_Pos) |
    4e8e:	697a      	ldr	r2, [r7, #20]
    4e90:	69fb      	ldr	r3, [r7, #28]
    4e92:	4313      	orrs	r3, r2
			pin_cfg | PORT_WRCONFIG_WRPMUX | PORT_WRCONFIG_WRPINCFG |
    4e94:	22d0      	movs	r2, #208	; 0xd0
    4e96:	0612      	lsls	r2, r2, #24
    4e98:	431a      	orrs	r2, r3
			pin_cfg | PORT_WRCONFIG_WRPMUX | PORT_WRCONFIG_WRPINCFG;

	/* Configure the upper 16-bits of the port to the desired configuration,
	 * including the pin peripheral multiplexer just in case it is enabled */
	port->WRCONFIG.reg
		= (upper_pin_mask << PORT_WRCONFIG_PINMASK_Pos) |
    4e9a:	68fb      	ldr	r3, [r7, #12]
    4e9c:	629a      	str	r2, [r3, #40]	; 0x28
			pin_cfg | PORT_WRCONFIG_WRPMUX | PORT_WRCONFIG_WRPINCFG |
			PORT_WRCONFIG_HWSEL;

	if(!config->powersave) {
    4e9e:	687b      	ldr	r3, [r7, #4]
    4ea0:	78db      	ldrb	r3, [r3, #3]
    4ea2:	2201      	movs	r2, #1
    4ea4:	4053      	eors	r3, r2
    4ea6:	b2db      	uxtb	r3, r3
    4ea8:	2b00      	cmp	r3, #0
    4eaa:	d01a      	beq.n	4ee2 <_system_pinmux_config+0x102>
		/* Set the pull-up state once the port pins are configured if one was
		 * requested and it does not violate the valid set of port
		 * configurations */
		if (pin_cfg & PORT_WRCONFIG_PULLEN) {
    4eac:	69fa      	ldr	r2, [r7, #28]
    4eae:	2380      	movs	r3, #128	; 0x80
    4eb0:	02db      	lsls	r3, r3, #11
    4eb2:	4013      	ands	r3, r2
    4eb4:	d00a      	beq.n	4ecc <_system_pinmux_config+0xec>
			/* Set the OUT register bits to enable the pull-up if requested,
			 * clear to enable pull-down */
			if (config->input_pull == SYSTEM_PINMUX_PIN_PULL_UP) {
    4eb6:	687b      	ldr	r3, [r7, #4]
    4eb8:	789b      	ldrb	r3, [r3, #2]
    4eba:	2b01      	cmp	r3, #1
    4ebc:	d103      	bne.n	4ec6 <_system_pinmux_config+0xe6>
				port->OUTSET.reg = pin_mask;
    4ebe:	68fb      	ldr	r3, [r7, #12]
    4ec0:	68ba      	ldr	r2, [r7, #8]
    4ec2:	619a      	str	r2, [r3, #24]
    4ec4:	e002      	b.n	4ecc <_system_pinmux_config+0xec>
			} else {
				port->OUTCLR.reg = pin_mask;
    4ec6:	68fb      	ldr	r3, [r7, #12]
    4ec8:	68ba      	ldr	r2, [r7, #8]
    4eca:	615a      	str	r2, [r3, #20]
			}
		}

		/* Check if the user has requested that the output buffer be enabled */
		if ((config->direction == SYSTEM_PINMUX_PIN_DIR_OUTPUT) ||
    4ecc:	687b      	ldr	r3, [r7, #4]
    4ece:	785b      	ldrb	r3, [r3, #1]
    4ed0:	2b01      	cmp	r3, #1
    4ed2:	d003      	beq.n	4edc <_system_pinmux_config+0xfc>
				(config->direction == SYSTEM_PINMUX_PIN_DIR_OUTPUT_WITH_READBACK)) {
    4ed4:	687b      	ldr	r3, [r7, #4]
    4ed6:	785b      	ldrb	r3, [r3, #1]
				port->OUTCLR.reg = pin_mask;
			}
		}

		/* Check if the user has requested that the output buffer be enabled */
		if ((config->direction == SYSTEM_PINMUX_PIN_DIR_OUTPUT) ||
    4ed8:	2b02      	cmp	r3, #2
    4eda:	d102      	bne.n	4ee2 <_system_pinmux_config+0x102>
				(config->direction == SYSTEM_PINMUX_PIN_DIR_OUTPUT_WITH_READBACK)) {
			/* Set the port DIR bits to enable the output buffer */
			port->DIRSET.reg = pin_mask;
    4edc:	68fb      	ldr	r3, [r7, #12]
    4ede:	68ba      	ldr	r2, [r7, #8]
    4ee0:	609a      	str	r2, [r3, #8]
		}
	}
}
    4ee2:	46bd      	mov	sp, r7
    4ee4:	b008      	add	sp, #32
    4ee6:	bd80      	pop	{r7, pc}
    4ee8:	fffbffff 	.word	0xfffbffff

00004eec <system_pinmux_pin_set_config>:
 * \param[in] config    Configuration settings for the pin
 */
void system_pinmux_pin_set_config(
		const uint8_t gpio_pin,
		const struct system_pinmux_config *const config)
{
    4eec:	b580      	push	{r7, lr}
    4eee:	b084      	sub	sp, #16
    4ef0:	af00      	add	r7, sp, #0
    4ef2:	1c02      	adds	r2, r0, #0
    4ef4:	6039      	str	r1, [r7, #0]
    4ef6:	1dfb      	adds	r3, r7, #7
    4ef8:	701a      	strb	r2, [r3, #0]
	PortGroup *const port = system_pinmux_get_group_from_gpio_pin(gpio_pin);
    4efa:	1dfb      	adds	r3, r7, #7
    4efc:	781b      	ldrb	r3, [r3, #0]
    4efe:	1c18      	adds	r0, r3, #0
    4f00:	4b0b      	ldr	r3, [pc, #44]	; (4f30 <system_pinmux_pin_set_config+0x44>)
    4f02:	4798      	blx	r3
    4f04:	1c03      	adds	r3, r0, #0
    4f06:	60fb      	str	r3, [r7, #12]
	uint32_t pin_mask = (1UL << (gpio_pin % 32));
    4f08:	1dfb      	adds	r3, r7, #7
    4f0a:	781b      	ldrb	r3, [r3, #0]
    4f0c:	221f      	movs	r2, #31
    4f0e:	4013      	ands	r3, r2
    4f10:	2201      	movs	r2, #1
    4f12:	409a      	lsls	r2, r3
    4f14:	1c13      	adds	r3, r2, #0
    4f16:	60bb      	str	r3, [r7, #8]

	_system_pinmux_config(port, pin_mask, config);
    4f18:	68f9      	ldr	r1, [r7, #12]
    4f1a:	68ba      	ldr	r2, [r7, #8]
    4f1c:	683b      	ldr	r3, [r7, #0]
    4f1e:	1c08      	adds	r0, r1, #0
    4f20:	1c11      	adds	r1, r2, #0
    4f22:	1c1a      	adds	r2, r3, #0
    4f24:	4b03      	ldr	r3, [pc, #12]	; (4f34 <system_pinmux_pin_set_config+0x48>)
    4f26:	4798      	blx	r3
}
    4f28:	46bd      	mov	sp, r7
    4f2a:	b004      	add	sp, #16
    4f2c:	bd80      	pop	{r7, pc}
    4f2e:	46c0      	nop			; (mov r8, r8)
    4f30:	00004d81 	.word	0x00004d81
    4f34:	00004de1 	.word	0x00004de1

00004f38 <_system_dummy_init>:
 * Dummy initialization function, used as a weak alias target for the various
 * init functions called by \ref system_init().
 */
void _system_dummy_init(void);
void _system_dummy_init(void)
{
    4f38:	b580      	push	{r7, lr}
    4f3a:	af00      	add	r7, sp, #0
	return;
    4f3c:	46c0      	nop			; (mov r8, r8)
}
    4f3e:	46bd      	mov	sp, r7
    4f40:	bd80      	pop	{r7, pc}
    4f42:	46c0      	nop			; (mov r8, r8)

00004f44 <system_init>:
 *  - Board hardware initialization (via the Board module)
 *  - Event system driver initialization (via the EVSYS module)
 *  - External Interrupt driver initialization (via the EXTINT module)
 */
void system_init(void)
{
    4f44:	b580      	push	{r7, lr}
    4f46:	af00      	add	r7, sp, #0
	/* Configure GCLK and clock sources according to conf_clocks.h */
	system_clock_init();
    4f48:	4b05      	ldr	r3, [pc, #20]	; (4f60 <system_init+0x1c>)
    4f4a:	4798      	blx	r3

	/* Initialize board hardware */
	system_board_init();
    4f4c:	4b05      	ldr	r3, [pc, #20]	; (4f64 <system_init+0x20>)
    4f4e:	4798      	blx	r3

	/* Initialize EVSYS hardware */
	_system_events_init();
    4f50:	4b05      	ldr	r3, [pc, #20]	; (4f68 <system_init+0x24>)
    4f52:	4798      	blx	r3

	/* Initialize External hardware */
	_system_extint_init();
    4f54:	4b05      	ldr	r3, [pc, #20]	; (4f6c <system_init+0x28>)
    4f56:	4798      	blx	r3
	
	/* Initialize DIVAS hardware */
	_system_divas_init();
    4f58:	4b05      	ldr	r3, [pc, #20]	; (4f70 <system_init+0x2c>)
    4f5a:	4798      	blx	r3
}
    4f5c:	46bd      	mov	sp, r7
    4f5e:	bd80      	pop	{r7, pc}
    4f60:	000046c9 	.word	0x000046c9
    4f64:	00003ae5 	.word	0x00003ae5
    4f68:	00004f39 	.word	0x00004f39
    4f6c:	00003ebd 	.word	0x00003ebd
    4f70:	00004f39 	.word	0x00004f39

00004f74 <cpu_irq_save>:

static volatile uint32_t cpu_irq_critical_section_counter;
static volatile bool     cpu_irq_prev_interrupt_state;

static inline irqflags_t cpu_irq_save(void)
{
    4f74:	b580      	push	{r7, lr}
    4f76:	b082      	sub	sp, #8
    4f78:	af00      	add	r7, sp, #0
 */
__attribute__( ( always_inline ) ) __STATIC_INLINE uint32_t __get_PRIMASK(void)
{
  uint32_t result;

  __ASM volatile ("MRS %0, primask" : "=r" (result) );
    4f7a:	f3ef 8310 	mrs	r3, PRIMASK
    4f7e:	603b      	str	r3, [r7, #0]
  return(result);
    4f80:	683b      	ldr	r3, [r7, #0]
	irqflags_t flags = cpu_irq_is_enabled();
    4f82:	425a      	negs	r2, r3
    4f84:	4153      	adcs	r3, r2
    4f86:	b2db      	uxtb	r3, r3
    4f88:	607b      	str	r3, [r7, #4]
  This function disables IRQ interrupts by setting the I-bit in the CPSR.
  Can only be executed in Privileged modes.
 */
__attribute__( ( always_inline ) ) __STATIC_INLINE void __disable_irq(void)
{
  __ASM volatile ("cpsid i" : : : "memory");
    4f8a:	b672      	cpsid	i
    4f8c:	f3bf 8f5f 	dmb	sy
	cpu_irq_disable();
    4f90:	4b03      	ldr	r3, [pc, #12]	; (4fa0 <cpu_irq_save+0x2c>)
    4f92:	2200      	movs	r2, #0
    4f94:	701a      	strb	r2, [r3, #0]
	return flags;
    4f96:	687b      	ldr	r3, [r7, #4]
}
    4f98:	1c18      	adds	r0, r3, #0
    4f9a:	46bd      	mov	sp, r7
    4f9c:	b002      	add	sp, #8
    4f9e:	bd80      	pop	{r7, pc}
    4fa0:	200000d8 	.word	0x200000d8

00004fa4 <cpu_irq_is_enabled_flags>:

static inline bool cpu_irq_is_enabled_flags(irqflags_t flags)
{
    4fa4:	b580      	push	{r7, lr}
    4fa6:	b082      	sub	sp, #8
    4fa8:	af00      	add	r7, sp, #0
    4faa:	6078      	str	r0, [r7, #4]
	return (flags);
    4fac:	687b      	ldr	r3, [r7, #4]
    4fae:	1e5a      	subs	r2, r3, #1
    4fb0:	4193      	sbcs	r3, r2
    4fb2:	b2db      	uxtb	r3, r3
}
    4fb4:	1c18      	adds	r0, r3, #0
    4fb6:	46bd      	mov	sp, r7
    4fb8:	b002      	add	sp, #8
    4fba:	bd80      	pop	{r7, pc}

00004fbc <cpu_irq_restore>:

static inline void cpu_irq_restore(irqflags_t flags)
{
    4fbc:	b580      	push	{r7, lr}
    4fbe:	b082      	sub	sp, #8
    4fc0:	af00      	add	r7, sp, #0
    4fc2:	6078      	str	r0, [r7, #4]
	if (cpu_irq_is_enabled_flags(flags))
    4fc4:	687b      	ldr	r3, [r7, #4]
    4fc6:	1c18      	adds	r0, r3, #0
    4fc8:	4b06      	ldr	r3, [pc, #24]	; (4fe4 <cpu_irq_restore+0x28>)
    4fca:	4798      	blx	r3
    4fcc:	1e03      	subs	r3, r0, #0
    4fce:	d005      	beq.n	4fdc <cpu_irq_restore+0x20>
		cpu_irq_enable();
    4fd0:	4b05      	ldr	r3, [pc, #20]	; (4fe8 <cpu_irq_restore+0x2c>)
    4fd2:	2201      	movs	r2, #1
    4fd4:	701a      	strb	r2, [r3, #0]
    4fd6:	f3bf 8f5f 	dmb	sy
  This function enables IRQ interrupts by clearing the I-bit in the CPSR.
  Can only be executed in Privileged modes.
 */
__attribute__( ( always_inline ) ) __STATIC_INLINE void __enable_irq(void)
{
  __ASM volatile ("cpsie i" : : : "memory");
    4fda:	b662      	cpsie	i
}
    4fdc:	46bd      	mov	sp, r7
    4fde:	b002      	add	sp, #8
    4fe0:	bd80      	pop	{r7, pc}
    4fe2:	46c0      	nop			; (mov r8, r8)
    4fe4:	00004fa5 	.word	0x00004fa5
    4fe8:	200000d8 	.word	0x200000d8

00004fec <system_pinmux_get_group_from_gpio_pin>:
 *
 * \return Base address of the associated PORT module.
 */
static inline PortGroup* system_pinmux_get_group_from_gpio_pin(
		const uint8_t gpio_pin)
{
    4fec:	b580      	push	{r7, lr}
    4fee:	b084      	sub	sp, #16
    4ff0:	af00      	add	r7, sp, #0
    4ff2:	1c02      	adds	r2, r0, #0
    4ff4:	1dfb      	adds	r3, r7, #7
    4ff6:	701a      	strb	r2, [r3, #0]
	uint8_t port_index  = (gpio_pin / 128);
    4ff8:	230f      	movs	r3, #15
    4ffa:	18fb      	adds	r3, r7, r3
    4ffc:	1dfa      	adds	r2, r7, #7
    4ffe:	7812      	ldrb	r2, [r2, #0]
    5000:	09d2      	lsrs	r2, r2, #7
    5002:	701a      	strb	r2, [r3, #0]
	uint8_t group_index = (gpio_pin / 32);
    5004:	230e      	movs	r3, #14
    5006:	18fb      	adds	r3, r7, r3
    5008:	1dfa      	adds	r2, r7, #7
    500a:	7812      	ldrb	r2, [r2, #0]
    500c:	0952      	lsrs	r2, r2, #5
    500e:	701a      	strb	r2, [r3, #0]

	/* Array of available ports */
	Port *const ports[PORT_INST_NUM] = PORT_INSTS;
    5010:	4b0d      	ldr	r3, [pc, #52]	; (5048 <system_pinmux_get_group_from_gpio_pin+0x5c>)
    5012:	60bb      	str	r3, [r7, #8]

	if (port_index < PORT_INST_NUM) {
    5014:	230f      	movs	r3, #15
    5016:	18fb      	adds	r3, r7, r3
    5018:	781b      	ldrb	r3, [r3, #0]
    501a:	2b00      	cmp	r3, #0
    501c:	d10f      	bne.n	503e <system_pinmux_get_group_from_gpio_pin+0x52>
		return &(ports[port_index]->Group[group_index]);
    501e:	230f      	movs	r3, #15
    5020:	18fb      	adds	r3, r7, r3
    5022:	781b      	ldrb	r3, [r3, #0]
    5024:	009b      	lsls	r3, r3, #2
    5026:	2210      	movs	r2, #16
    5028:	4694      	mov	ip, r2
    502a:	44bc      	add	ip, r7
    502c:	4463      	add	r3, ip
    502e:	3b08      	subs	r3, #8
    5030:	681a      	ldr	r2, [r3, #0]
    5032:	230e      	movs	r3, #14
    5034:	18fb      	adds	r3, r7, r3
    5036:	781b      	ldrb	r3, [r3, #0]
    5038:	01db      	lsls	r3, r3, #7
    503a:	18d3      	adds	r3, r2, r3
    503c:	e000      	b.n	5040 <system_pinmux_get_group_from_gpio_pin+0x54>
	} else {
		Assert(false);
		return NULL;
    503e:	2300      	movs	r3, #0
	}
}
    5040:	1c18      	adds	r0, r3, #0
    5042:	46bd      	mov	sp, r7
    5044:	b004      	add	sp, #16
    5046:	bd80      	pop	{r7, pc}
    5048:	41004400 	.word	0x41004400

0000504c <usb_device_attach>:
 * \brief Attach USB device to the bus
 *
 * \param module_inst Pointer to USB device module instance
 */
static inline void usb_device_attach(struct usb_module *module_inst)
{
    504c:	b580      	push	{r7, lr}
    504e:	b082      	sub	sp, #8
    5050:	af00      	add	r7, sp, #0
    5052:	6078      	str	r0, [r7, #4]
	module_inst->hw->DEVICE.CTRLB.reg &= ~USB_DEVICE_CTRLB_DETACH;
    5054:	687b      	ldr	r3, [r7, #4]
    5056:	681a      	ldr	r2, [r3, #0]
    5058:	687b      	ldr	r3, [r7, #4]
    505a:	681b      	ldr	r3, [r3, #0]
    505c:	891b      	ldrh	r3, [r3, #8]
    505e:	b29b      	uxth	r3, r3
    5060:	2101      	movs	r1, #1
    5062:	438b      	bics	r3, r1
    5064:	b29b      	uxth	r3, r3
    5066:	8113      	strh	r3, [r2, #8]
}
    5068:	46bd      	mov	sp, r7
    506a:	b002      	add	sp, #8
    506c:	bd80      	pop	{r7, pc}
    506e:	46c0      	nop			; (mov r8, r8)

00005070 <usb_device_detach>:
 * \brief Detach USB device from the bus
 *
 * \param module_inst Pointer to USB device module instance
 */
static inline void usb_device_detach(struct usb_module *module_inst)
{
    5070:	b580      	push	{r7, lr}
    5072:	b082      	sub	sp, #8
    5074:	af00      	add	r7, sp, #0
    5076:	6078      	str	r0, [r7, #4]
	module_inst->hw->DEVICE.CTRLB.reg |= USB_DEVICE_CTRLB_DETACH;
    5078:	687b      	ldr	r3, [r7, #4]
    507a:	681a      	ldr	r2, [r3, #0]
    507c:	687b      	ldr	r3, [r7, #4]
    507e:	681b      	ldr	r3, [r3, #0]
    5080:	891b      	ldrh	r3, [r3, #8]
    5082:	b29b      	uxth	r3, r3
    5084:	2101      	movs	r1, #1
    5086:	430b      	orrs	r3, r1
    5088:	b29b      	uxth	r3, r3
    508a:	8113      	strh	r3, [r2, #8]
}
    508c:	46bd      	mov	sp, r7
    508e:	b002      	add	sp, #8
    5090:	bd80      	pop	{r7, pc}
    5092:	46c0      	nop			; (mov r8, r8)

00005094 <usb_device_get_address>:
 *
 * \param module_inst Pointer to USB device module instance
 * \return USB device address value.
 */
static inline uint8_t usb_device_get_address(struct usb_module *module_inst)
{
    5094:	b580      	push	{r7, lr}
    5096:	b082      	sub	sp, #8
    5098:	af00      	add	r7, sp, #0
    509a:	6078      	str	r0, [r7, #4]
	return ((uint8_t)(module_inst->hw->DEVICE.DADD.bit.DADD));
    509c:	687b      	ldr	r3, [r7, #4]
    509e:	681b      	ldr	r3, [r3, #0]
    50a0:	7a9b      	ldrb	r3, [r3, #10]
    50a2:	227f      	movs	r2, #127	; 0x7f
    50a4:	4013      	ands	r3, r2
    50a6:	b2db      	uxtb	r3, r3
}
    50a8:	1c18      	adds	r0, r3, #0
    50aa:	46bd      	mov	sp, r7
    50ac:	b002      	add	sp, #8
    50ae:	bd80      	pop	{r7, pc}

000050b0 <usb_device_set_address>:
 *
 * \param module_inst Pointer to USB device module instance
 * \param address     USB device address value
 */
static inline void usb_device_set_address(struct usb_module *module_inst, uint8_t address)
{
    50b0:	b580      	push	{r7, lr}
    50b2:	b082      	sub	sp, #8
    50b4:	af00      	add	r7, sp, #0
    50b6:	6078      	str	r0, [r7, #4]
    50b8:	1c0a      	adds	r2, r1, #0
    50ba:	1cfb      	adds	r3, r7, #3
    50bc:	701a      	strb	r2, [r3, #0]
	module_inst->hw->DEVICE.DADD.reg = USB_DEVICE_DADD_ADDEN | address;
    50be:	687b      	ldr	r3, [r7, #4]
    50c0:	681b      	ldr	r3, [r3, #0]
    50c2:	1cfa      	adds	r2, r7, #3
    50c4:	7812      	ldrb	r2, [r2, #0]
    50c6:	2180      	movs	r1, #128	; 0x80
    50c8:	4249      	negs	r1, r1
    50ca:	430a      	orrs	r2, r1
    50cc:	b2d2      	uxtb	r2, r2
    50ce:	729a      	strb	r2, [r3, #10]
}
    50d0:	46bd      	mov	sp, r7
    50d2:	b002      	add	sp, #8
    50d4:	bd80      	pop	{r7, pc}
    50d6:	46c0      	nop			; (mov r8, r8)

000050d8 <usb_device_get_frame_number>:
 *
 * \param module_inst Pointer to USB device module instance
 * \return USB device frame number value.
 */
static inline uint16_t usb_device_get_frame_number(struct usb_module *module_inst)
{
    50d8:	b580      	push	{r7, lr}
    50da:	b082      	sub	sp, #8
    50dc:	af00      	add	r7, sp, #0
    50de:	6078      	str	r0, [r7, #4]
	return ((uint16_t)(module_inst->hw->DEVICE.FNUM.bit.FNUM));
    50e0:	687b      	ldr	r3, [r7, #4]
    50e2:	681b      	ldr	r3, [r3, #0]
    50e4:	8a1b      	ldrh	r3, [r3, #16]
    50e6:	b29b      	uxth	r3, r3
    50e8:	08db      	lsrs	r3, r3, #3
    50ea:	055b      	lsls	r3, r3, #21
    50ec:	0d5b      	lsrs	r3, r3, #21
    50ee:	b29b      	uxth	r3, r3
}
    50f0:	1c18      	adds	r0, r3, #0
    50f2:	46bd      	mov	sp, r7
    50f4:	b002      	add	sp, #8
    50f6:	bd80      	pop	{r7, pc}

000050f8 <usb_device_set_lpm_mode>:
 * \param module_inst Pointer to USB device module instance
 * \param lpm_mode    LPM mode
 */
static inline void usb_device_set_lpm_mode(struct usb_module *module_inst,
		enum usb_device_lpm_mode lpm_mode)
{
    50f8:	b580      	push	{r7, lr}
    50fa:	b082      	sub	sp, #8
    50fc:	af00      	add	r7, sp, #0
    50fe:	6078      	str	r0, [r7, #4]
    5100:	1c0a      	adds	r2, r1, #0
    5102:	1cfb      	adds	r3, r7, #3
    5104:	701a      	strb	r2, [r3, #0]
	module_inst->hw->DEVICE.CTRLB.bit.LPMHDSK = lpm_mode;
    5106:	687b      	ldr	r3, [r7, #4]
    5108:	681b      	ldr	r3, [r3, #0]
    510a:	1cfa      	adds	r2, r7, #3
    510c:	7812      	ldrb	r2, [r2, #0]
    510e:	2103      	movs	r1, #3
    5110:	400a      	ands	r2, r1
    5112:	b2d2      	uxtb	r2, r2
    5114:	1c11      	adds	r1, r2, #0
    5116:	2203      	movs	r2, #3
    5118:	400a      	ands	r2, r1
    511a:	0290      	lsls	r0, r2, #10
    511c:	891a      	ldrh	r2, [r3, #8]
    511e:	4904      	ldr	r1, [pc, #16]	; (5130 <usb_device_set_lpm_mode+0x38>)
    5120:	400a      	ands	r2, r1
    5122:	1c11      	adds	r1, r2, #0
    5124:	1c02      	adds	r2, r0, #0
    5126:	430a      	orrs	r2, r1
    5128:	811a      	strh	r2, [r3, #8]
}
    512a:	46bd      	mov	sp, r7
    512c:	b002      	add	sp, #8
    512e:	bd80      	pop	{r7, pc}
    5130:	fffff3ff 	.word	0xfffff3ff

00005134 <port_get_group_from_gpio_pin>:
 *
 *  \return Base address of the associated PORT module.
 */
static inline PortGroup* port_get_group_from_gpio_pin(
		const uint8_t gpio_pin)
{
    5134:	b580      	push	{r7, lr}
    5136:	b082      	sub	sp, #8
    5138:	af00      	add	r7, sp, #0
    513a:	1c02      	adds	r2, r0, #0
    513c:	1dfb      	adds	r3, r7, #7
    513e:	701a      	strb	r2, [r3, #0]
	return system_pinmux_get_group_from_gpio_pin(gpio_pin);
    5140:	1dfb      	adds	r3, r7, #7
    5142:	781b      	ldrb	r3, [r3, #0]
    5144:	1c18      	adds	r0, r3, #0
    5146:	4b03      	ldr	r3, [pc, #12]	; (5154 <port_get_group_from_gpio_pin+0x20>)
    5148:	4798      	blx	r3
    514a:	1c03      	adds	r3, r0, #0
}
    514c:	1c18      	adds	r0, r3, #0
    514e:	46bd      	mov	sp, r7
    5150:	b002      	add	sp, #8
    5152:	bd80      	pop	{r7, pc}
    5154:	00004fed 	.word	0x00004fed

00005158 <port_pin_get_input_level>:
 *
 *  \return Status of the port pin's input buffer.
 */
static inline bool port_pin_get_input_level(
		const uint8_t gpio_pin)
{
    5158:	b580      	push	{r7, lr}
    515a:	b084      	sub	sp, #16
    515c:	af00      	add	r7, sp, #0
    515e:	1c02      	adds	r2, r0, #0
    5160:	1dfb      	adds	r3, r7, #7
    5162:	701a      	strb	r2, [r3, #0]
	PortGroup *const port_base = port_get_group_from_gpio_pin(gpio_pin);
    5164:	1dfb      	adds	r3, r7, #7
    5166:	781b      	ldrb	r3, [r3, #0]
    5168:	1c18      	adds	r0, r3, #0
    516a:	4b0b      	ldr	r3, [pc, #44]	; (5198 <port_pin_get_input_level+0x40>)
    516c:	4798      	blx	r3
    516e:	1c03      	adds	r3, r0, #0
    5170:	60fb      	str	r3, [r7, #12]
	uint32_t pin_mask  = (1UL << (gpio_pin % 32));
    5172:	1dfb      	adds	r3, r7, #7
    5174:	781b      	ldrb	r3, [r3, #0]
    5176:	221f      	movs	r2, #31
    5178:	4013      	ands	r3, r2
    517a:	2201      	movs	r2, #1
    517c:	409a      	lsls	r2, r3
    517e:	1c13      	adds	r3, r2, #0
    5180:	60bb      	str	r3, [r7, #8]

	return (port_base->IN.reg & pin_mask);
    5182:	68fb      	ldr	r3, [r7, #12]
    5184:	6a1b      	ldr	r3, [r3, #32]
    5186:	68ba      	ldr	r2, [r7, #8]
    5188:	4013      	ands	r3, r2
    518a:	1e5a      	subs	r2, r3, #1
    518c:	4193      	sbcs	r3, r2
    518e:	b2db      	uxtb	r3, r3
}
    5190:	1c18      	adds	r0, r3, #0
    5192:	46bd      	mov	sp, r7
    5194:	b004      	add	sp, #16
    5196:	bd80      	pop	{r7, pc}
    5198:	00005135 	.word	0x00005135

0000519c <sleepmgr_lock_mode>:
 * not put the device to sleep in the deeper sleep modes.
 *
 * \param mode Sleep mode to lock.
 */
static inline void sleepmgr_lock_mode(enum sleepmgr_mode mode)
{
    519c:	b580      	push	{r7, lr}
    519e:	b084      	sub	sp, #16
    51a0:	af00      	add	r7, sp, #0
    51a2:	1c02      	adds	r2, r0, #0
    51a4:	1dfb      	adds	r3, r7, #7
    51a6:	701a      	strb	r2, [r3, #0]
#ifdef CONFIG_SLEEPMGR_ENABLE
	irqflags_t flags;

	if(sleepmgr_locks[mode] >= 0xff) {
    51a8:	1dfb      	adds	r3, r7, #7
    51aa:	781b      	ldrb	r3, [r3, #0]
    51ac:	4a0b      	ldr	r2, [pc, #44]	; (51dc <sleepmgr_lock_mode+0x40>)
    51ae:	5cd3      	ldrb	r3, [r2, r3]
    51b0:	2bff      	cmp	r3, #255	; 0xff
    51b2:	d100      	bne.n	51b6 <sleepmgr_lock_mode+0x1a>
		while (true) {
			// Warning: maximum value of sleepmgr_locks buffer is no more than 255.
			// Check APP or change the data type to uint16_t.
		}
    51b4:	e7fe      	b.n	51b4 <sleepmgr_lock_mode+0x18>
	}

	// Enter a critical section
	flags = cpu_irq_save();
    51b6:	4b0a      	ldr	r3, [pc, #40]	; (51e0 <sleepmgr_lock_mode+0x44>)
    51b8:	4798      	blx	r3
    51ba:	1c03      	adds	r3, r0, #0
    51bc:	60fb      	str	r3, [r7, #12]

	++sleepmgr_locks[mode];
    51be:	1dfb      	adds	r3, r7, #7
    51c0:	781b      	ldrb	r3, [r3, #0]
    51c2:	4a06      	ldr	r2, [pc, #24]	; (51dc <sleepmgr_lock_mode+0x40>)
    51c4:	5cd2      	ldrb	r2, [r2, r3]
    51c6:	3201      	adds	r2, #1
    51c8:	b2d1      	uxtb	r1, r2
    51ca:	4a04      	ldr	r2, [pc, #16]	; (51dc <sleepmgr_lock_mode+0x40>)
    51cc:	54d1      	strb	r1, [r2, r3]

	// Leave the critical section
	cpu_irq_restore(flags);
    51ce:	68fb      	ldr	r3, [r7, #12]
    51d0:	1c18      	adds	r0, r3, #0
    51d2:	4b04      	ldr	r3, [pc, #16]	; (51e4 <sleepmgr_lock_mode+0x48>)
    51d4:	4798      	blx	r3
#else
	UNUSED(mode);
#endif /* CONFIG_SLEEPMGR_ENABLE */
}
    51d6:	46bd      	mov	sp, r7
    51d8:	b004      	add	sp, #16
    51da:	bd80      	pop	{r7, pc}
    51dc:	2000026c 	.word	0x2000026c
    51e0:	00004f75 	.word	0x00004f75
    51e4:	00004fbd 	.word	0x00004fbd

000051e8 <sleepmgr_unlock_mode>:
 * manager can put the device to sleep in the deeper sleep modes.
 *
 * \param mode Sleep mode to unlock.
 */
static inline void sleepmgr_unlock_mode(enum sleepmgr_mode mode)
{
    51e8:	b580      	push	{r7, lr}
    51ea:	b084      	sub	sp, #16
    51ec:	af00      	add	r7, sp, #0
    51ee:	1c02      	adds	r2, r0, #0
    51f0:	1dfb      	adds	r3, r7, #7
    51f2:	701a      	strb	r2, [r3, #0]
#ifdef CONFIG_SLEEPMGR_ENABLE
	irqflags_t flags;

	if(sleepmgr_locks[mode] == 0) {
    51f4:	1dfb      	adds	r3, r7, #7
    51f6:	781b      	ldrb	r3, [r3, #0]
    51f8:	4a0b      	ldr	r2, [pc, #44]	; (5228 <sleepmgr_unlock_mode+0x40>)
    51fa:	5cd3      	ldrb	r3, [r2, r3]
    51fc:	2b00      	cmp	r3, #0
    51fe:	d100      	bne.n	5202 <sleepmgr_unlock_mode+0x1a>
		while (true) {
			// Warning: minimum value of sleepmgr_locks buffer is no less than 0.
			// Check APP.
		}
    5200:	e7fe      	b.n	5200 <sleepmgr_unlock_mode+0x18>
	}

	// Enter a critical section
	flags = cpu_irq_save();
    5202:	4b0a      	ldr	r3, [pc, #40]	; (522c <sleepmgr_unlock_mode+0x44>)
    5204:	4798      	blx	r3
    5206:	1c03      	adds	r3, r0, #0
    5208:	60fb      	str	r3, [r7, #12]

	--sleepmgr_locks[mode];
    520a:	1dfb      	adds	r3, r7, #7
    520c:	781b      	ldrb	r3, [r3, #0]
    520e:	4a06      	ldr	r2, [pc, #24]	; (5228 <sleepmgr_unlock_mode+0x40>)
    5210:	5cd2      	ldrb	r2, [r2, r3]
    5212:	3a01      	subs	r2, #1
    5214:	b2d1      	uxtb	r1, r2
    5216:	4a04      	ldr	r2, [pc, #16]	; (5228 <sleepmgr_unlock_mode+0x40>)
    5218:	54d1      	strb	r1, [r2, r3]

	// Leave the critical section
	cpu_irq_restore(flags);
    521a:	68fb      	ldr	r3, [r7, #12]
    521c:	1c18      	adds	r0, r3, #0
    521e:	4b04      	ldr	r3, [pc, #16]	; (5230 <sleepmgr_unlock_mode+0x48>)
    5220:	4798      	blx	r3
#else
	UNUSED(mode);
#endif /* CONFIG_SLEEPMGR_ENABLE */
}
    5222:	46bd      	mov	sp, r7
    5224:	b004      	add	sp, #16
    5226:	bd80      	pop	{r7, pc}
    5228:	2000026c 	.word	0x2000026c
    522c:	00004f75 	.word	0x00004f75
    5230:	00004fbd 	.word	0x00004fbd

00005234 <udd_wait_clock_ready>:
#endif
#ifndef UDD_CLOCK_SOURCE
#  define UDD_CLOCK_SOURCE   SYSTEM_CLOCK_SOURCE_DFLL
#endif
static inline void udd_wait_clock_ready(void)
{
    5234:	b580      	push	{r7, lr}
    5236:	af00      	add	r7, sp, #0
#else
#define DFLL_READY_FLAG (SYSCTRL_PCLKSR_DFLLRDY | \
		SYSCTRL_PCLKSR_DFLLLCKF | SYSCTRL_PCLKSR_DFLLLCKC)

		/* In USB recovery mode the status is not checked */
		if (!(SYSCTRL->DFLLCTRL.reg & SYSCTRL_DFLLCTRL_USBCRM)) {
    5238:	4b0b      	ldr	r3, [pc, #44]	; (5268 <udd_wait_clock_ready+0x34>)
    523a:	8c9b      	ldrh	r3, [r3, #36]	; 0x24
    523c:	b29b      	uxth	r3, r3
    523e:	1c1a      	adds	r2, r3, #0
    5240:	2320      	movs	r3, #32
    5242:	4013      	ands	r3, r2
    5244:	d107      	bne.n	5256 <udd_wait_clock_ready+0x22>
			while((SYSCTRL->PCLKSR.reg & DFLL_READY_FLAG) != DFLL_READY_FLAG);
    5246:	46c0      	nop			; (mov r8, r8)
    5248:	4b07      	ldr	r3, [pc, #28]	; (5268 <udd_wait_clock_ready+0x34>)
    524a:	68db      	ldr	r3, [r3, #12]
    524c:	22d0      	movs	r2, #208	; 0xd0
    524e:	4013      	ands	r3, r2
    5250:	2bd0      	cmp	r3, #208	; 0xd0
    5252:	d1f9      	bne.n	5248 <udd_wait_clock_ready+0x14>
    5254:	e005      	b.n	5262 <udd_wait_clock_ready+0x2e>
		} else {
			while((SYSCTRL->PCLKSR.reg & SYSCTRL_PCLKSR_DFLLRDY) != SYSCTRL_PCLKSR_DFLLRDY);
    5256:	46c0      	nop			; (mov r8, r8)
    5258:	4b03      	ldr	r3, [pc, #12]	; (5268 <udd_wait_clock_ready+0x34>)
    525a:	68db      	ldr	r3, [r3, #12]
    525c:	2210      	movs	r2, #16
    525e:	4013      	ands	r3, r2
    5260:	d0fa      	beq.n	5258 <udd_wait_clock_ready+0x24>
		}
	}
#endif
}
    5262:	46bd      	mov	sp, r7
    5264:	bd80      	pop	{r7, pc}
    5266:	46c0      	nop			; (mov r8, r8)
    5268:	40000800 	.word	0x40000800

0000526c <udd_sleep_mode>:
/** \brief Manages the sleep mode following the USB state
 *
 * \param new_state  New USB state
 */
static void udd_sleep_mode(enum udd_usb_state_enum new_state)
{
    526c:	b580      	push	{r7, lr}
    526e:	b084      	sub	sp, #16
    5270:	af00      	add	r7, sp, #0
    5272:	1c02      	adds	r2, r0, #0
    5274:	1dfb      	adds	r3, r7, #7
    5276:	701a      	strb	r2, [r3, #0]
	enum sleepmgr_mode sleep_mode[] = {
    5278:	230c      	movs	r3, #12
    527a:	18fa      	adds	r2, r7, r3
    527c:	4b17      	ldr	r3, [pc, #92]	; (52dc <udd_sleep_mode+0x70>)
    527e:	1c11      	adds	r1, r2, #0
    5280:	1c1a      	adds	r2, r3, #0
    5282:	2304      	movs	r3, #4
    5284:	1c08      	adds	r0, r1, #0
    5286:	1c11      	adds	r1, r2, #0
    5288:	1c1a      	adds	r2, r3, #0
    528a:	4b15      	ldr	r3, [pc, #84]	; (52e0 <udd_sleep_mode+0x74>)
    528c:	4798      	blx	r3
	#endif	
	};

	static enum udd_usb_state_enum udd_state = UDD_STATE_OFF;

	if (udd_state == new_state) {
    528e:	4b15      	ldr	r3, [pc, #84]	; (52e4 <udd_sleep_mode+0x78>)
    5290:	781b      	ldrb	r3, [r3, #0]
    5292:	1dfa      	adds	r2, r7, #7
    5294:	7812      	ldrb	r2, [r2, #0]
    5296:	429a      	cmp	r2, r3
    5298:	d01c      	beq.n	52d4 <udd_sleep_mode+0x68>
		return; // No change
	}
	if (new_state != UDD_STATE_OFF) {
    529a:	1dfb      	adds	r3, r7, #7
    529c:	781b      	ldrb	r3, [r3, #0]
    529e:	2b00      	cmp	r3, #0
    52a0:	d007      	beq.n	52b2 <udd_sleep_mode+0x46>
		/* Lock new limit */
		sleepmgr_lock_mode(sleep_mode[new_state]);
    52a2:	1dfb      	adds	r3, r7, #7
    52a4:	781b      	ldrb	r3, [r3, #0]
    52a6:	220c      	movs	r2, #12
    52a8:	18ba      	adds	r2, r7, r2
    52aa:	5cd3      	ldrb	r3, [r2, r3]
    52ac:	1c18      	adds	r0, r3, #0
    52ae:	4b0e      	ldr	r3, [pc, #56]	; (52e8 <udd_sleep_mode+0x7c>)
    52b0:	4798      	blx	r3
	}
	if (udd_state != UDD_STATE_OFF) {
    52b2:	4b0c      	ldr	r3, [pc, #48]	; (52e4 <udd_sleep_mode+0x78>)
    52b4:	781b      	ldrb	r3, [r3, #0]
    52b6:	2b00      	cmp	r3, #0
    52b8:	d008      	beq.n	52cc <udd_sleep_mode+0x60>
		/* Unlock old limit */
		sleepmgr_unlock_mode(sleep_mode[udd_state]);
    52ba:	4b0a      	ldr	r3, [pc, #40]	; (52e4 <udd_sleep_mode+0x78>)
    52bc:	781b      	ldrb	r3, [r3, #0]
    52be:	1c1a      	adds	r2, r3, #0
    52c0:	230c      	movs	r3, #12
    52c2:	18fb      	adds	r3, r7, r3
    52c4:	5c9b      	ldrb	r3, [r3, r2]
    52c6:	1c18      	adds	r0, r3, #0
    52c8:	4b08      	ldr	r3, [pc, #32]	; (52ec <udd_sleep_mode+0x80>)
    52ca:	4798      	blx	r3
	}
	udd_state = new_state;
    52cc:	4b05      	ldr	r3, [pc, #20]	; (52e4 <udd_sleep_mode+0x78>)
    52ce:	1dfa      	adds	r2, r7, #7
    52d0:	7812      	ldrb	r2, [r2, #0]
    52d2:	701a      	strb	r2, [r3, #0]
}
    52d4:	46bd      	mov	sp, r7
    52d6:	b004      	add	sp, #16
    52d8:	bd80      	pop	{r7, pc}
    52da:	46c0      	nop			; (mov r8, r8)
    52dc:	00008cdc 	.word	0x00008cdc
    52e0:	00008be5 	.word	0x00008be5
    52e4:	20000190 	.word	0x20000190
    52e8:	0000519d 	.word	0x0000519d
    52ec:	000051e9 	.word	0x000051e9

000052f0 <udd_ep_get_job>:
 * \brief     Get the detailed job by endpoint number
 * \param[in] ep  Endpoint Address
 * \retval    pointer to an udd_ep_job_t structure instance
 */
static udd_ep_job_t* udd_ep_get_job(udd_ep_id_t ep)
{
    52f0:	b580      	push	{r7, lr}
    52f2:	b082      	sub	sp, #8
    52f4:	af00      	add	r7, sp, #0
    52f6:	1c02      	adds	r2, r0, #0
    52f8:	1dfb      	adds	r3, r7, #7
    52fa:	701a      	strb	r2, [r3, #0]
	return &udd_ep_job[(2 * (ep & USB_EP_ADDR_MASK) + ((ep & USB_EP_DIR_IN) ? 1 : 0)) - 2];
    52fc:	1dfb      	adds	r3, r7, #7
    52fe:	781b      	ldrb	r3, [r3, #0]
    5300:	220f      	movs	r2, #15
    5302:	4013      	ands	r3, r2
    5304:	005b      	lsls	r3, r3, #1
    5306:	1dfa      	adds	r2, r7, #7
    5308:	7812      	ldrb	r2, [r2, #0]
    530a:	09d2      	lsrs	r2, r2, #7
    530c:	b2d2      	uxtb	r2, r2
    530e:	189b      	adds	r3, r3, r2
    5310:	1e9a      	subs	r2, r3, #2
    5312:	1c13      	adds	r3, r2, #0
    5314:	009b      	lsls	r3, r3, #2
    5316:	189b      	adds	r3, r3, r2
    5318:	009b      	lsls	r3, r3, #2
    531a:	4a03      	ldr	r2, [pc, #12]	; (5328 <udd_ep_get_job+0x38>)
    531c:	189b      	adds	r3, r3, r2
}
    531e:	1c18      	adds	r0, r3, #0
    5320:	46bd      	mov	sp, r7
    5322:	b002      	add	sp, #8
    5324:	bd80      	pop	{r7, pc}
    5326:	46c0      	nop			; (mov r8, r8)
    5328:	20000168 	.word	0x20000168

0000532c <udd_ep_trans_in_next>:
/**
 * \brief     Endpoint IN process, continue to send packets or zero length packet
 * \param[in] pointer Pointer to the endpoint transfer status parameter struct from driver layer.
 */
static void udd_ep_trans_in_next(void* pointer)
{
    532c:	b590      	push	{r4, r7, lr}
    532e:	b089      	sub	sp, #36	; 0x24
    5330:	af00      	add	r7, sp, #0
    5332:	6078      	str	r0, [r7, #4]
	struct usb_endpoint_callback_parameter *ep_callback_para = (struct usb_endpoint_callback_parameter*)pointer;
    5334:	687b      	ldr	r3, [r7, #4]
    5336:	61bb      	str	r3, [r7, #24]
	udd_ep_id_t ep = ep_callback_para->endpoint_address;
    5338:	2317      	movs	r3, #23
    533a:	18fb      	adds	r3, r7, r3
    533c:	69ba      	ldr	r2, [r7, #24]
    533e:	7992      	ldrb	r2, [r2, #6]
    5340:	701a      	strb	r2, [r3, #0]
	uint16_t ep_size, nb_trans;
	uint16_t next_trans;
	udd_ep_id_t ep_num;
	udd_ep_job_t *ptr_job;

	ptr_job = udd_ep_get_job(ep);
    5342:	2317      	movs	r3, #23
    5344:	18fb      	adds	r3, r7, r3
    5346:	781b      	ldrb	r3, [r3, #0]
    5348:	1c18      	adds	r0, r3, #0
    534a:	4b57      	ldr	r3, [pc, #348]	; (54a8 <udd_ep_trans_in_next+0x17c>)
    534c:	4798      	blx	r3
    534e:	1c03      	adds	r3, r0, #0
    5350:	613b      	str	r3, [r7, #16]
	ep_num = ep & USB_EP_ADDR_MASK;
    5352:	230f      	movs	r3, #15
    5354:	18fb      	adds	r3, r7, r3
    5356:	2217      	movs	r2, #23
    5358:	18ba      	adds	r2, r7, r2
    535a:	7812      	ldrb	r2, [r2, #0]
    535c:	210f      	movs	r1, #15
    535e:	400a      	ands	r2, r1
    5360:	701a      	strb	r2, [r3, #0]

	ep_size = ptr_job->ep_size;
    5362:	230c      	movs	r3, #12
    5364:	18fb      	adds	r3, r7, r3
    5366:	693a      	ldr	r2, [r7, #16]
    5368:	8a12      	ldrh	r2, [r2, #16]
    536a:	801a      	strh	r2, [r3, #0]
	/* Update number of data transferred */
	nb_trans = ep_callback_para->sent_bytes;
    536c:	230a      	movs	r3, #10
    536e:	18fb      	adds	r3, r7, r3
    5370:	69ba      	ldr	r2, [r7, #24]
    5372:	8852      	ldrh	r2, [r2, #2]
    5374:	801a      	strh	r2, [r3, #0]
	ptr_job->nb_trans += nb_trans;
    5376:	693b      	ldr	r3, [r7, #16]
    5378:	68da      	ldr	r2, [r3, #12]
    537a:	230a      	movs	r3, #10
    537c:	18fb      	adds	r3, r7, r3
    537e:	881b      	ldrh	r3, [r3, #0]
    5380:	18d2      	adds	r2, r2, r3
    5382:	693b      	ldr	r3, [r7, #16]
    5384:	60da      	str	r2, [r3, #12]

	/* Need to send other data */
	if (ptr_job->nb_trans != ptr_job->buf_size) {
    5386:	693b      	ldr	r3, [r7, #16]
    5388:	68da      	ldr	r2, [r3, #12]
    538a:	693b      	ldr	r3, [r7, #16]
    538c:	689b      	ldr	r3, [r3, #8]
    538e:	429a      	cmp	r2, r3
    5390:	d058      	beq.n	5444 <udd_ep_trans_in_next+0x118>
		next_trans = ptr_job->buf_size - ptr_job->nb_trans;
    5392:	693b      	ldr	r3, [r7, #16]
    5394:	689b      	ldr	r3, [r3, #8]
    5396:	b299      	uxth	r1, r3
    5398:	693b      	ldr	r3, [r7, #16]
    539a:	68db      	ldr	r3, [r3, #12]
    539c:	b29a      	uxth	r2, r3
    539e:	231e      	movs	r3, #30
    53a0:	18fb      	adds	r3, r7, r3
    53a2:	1a8a      	subs	r2, r1, r2
    53a4:	801a      	strh	r2, [r3, #0]
		if (UDD_ENDPOINT_MAX_TRANS < next_trans) {
    53a6:	231e      	movs	r3, #30
    53a8:	18fb      	adds	r3, r7, r3
    53aa:	881b      	ldrh	r3, [r3, #0]
    53ac:	4a3f      	ldr	r2, [pc, #252]	; (54ac <udd_ep_trans_in_next+0x180>)
    53ae:	4293      	cmp	r3, r2
    53b0:	d90e      	bls.n	53d0 <udd_ep_trans_in_next+0xa4>
		/* The USB hardware support a maximum
		 * transfer size of UDD_ENDPOINT_MAX_TRANS Bytes */
			next_trans = UDD_ENDPOINT_MAX_TRANS -(UDD_ENDPOINT_MAX_TRANS % ep_size);
    53b2:	230c      	movs	r3, #12
    53b4:	18fb      	adds	r3, r7, r3
    53b6:	881a      	ldrh	r2, [r3, #0]
    53b8:	493c      	ldr	r1, [pc, #240]	; (54ac <udd_ep_trans_in_next+0x180>)
    53ba:	4b3d      	ldr	r3, [pc, #244]	; (54b0 <udd_ep_trans_in_next+0x184>)
    53bc:	1c08      	adds	r0, r1, #0
    53be:	1c11      	adds	r1, r2, #0
    53c0:	4798      	blx	r3
    53c2:	1c0b      	adds	r3, r1, #0
    53c4:	b29a      	uxth	r2, r3
    53c6:	231e      	movs	r3, #30
    53c8:	18fb      	adds	r3, r7, r3
    53ca:	4938      	ldr	r1, [pc, #224]	; (54ac <udd_ep_trans_in_next+0x180>)
    53cc:	1a8a      	subs	r2, r1, r2
    53ce:	801a      	strh	r2, [r3, #0]
		}
		/* Need ZLP, if requested and last packet is not a short packet */
		ptr_job->b_shortpacket = ptr_job->b_shortpacket && (0 == (next_trans % ep_size));
    53d0:	693b      	ldr	r3, [r7, #16]
    53d2:	7c9b      	ldrb	r3, [r3, #18]
    53d4:	2202      	movs	r2, #2
    53d6:	4013      	ands	r3, r2
    53d8:	b2db      	uxtb	r3, r3
    53da:	2b00      	cmp	r3, #0
    53dc:	d00f      	beq.n	53fe <udd_ep_trans_in_next+0xd2>
    53de:	231e      	movs	r3, #30
    53e0:	18fa      	adds	r2, r7, r3
    53e2:	230c      	movs	r3, #12
    53e4:	18fb      	adds	r3, r7, r3
    53e6:	8811      	ldrh	r1, [r2, #0]
    53e8:	881a      	ldrh	r2, [r3, #0]
    53ea:	4b32      	ldr	r3, [pc, #200]	; (54b4 <udd_ep_trans_in_next+0x188>)
    53ec:	1c08      	adds	r0, r1, #0
    53ee:	1c11      	adds	r1, r2, #0
    53f0:	4798      	blx	r3
    53f2:	1c0b      	adds	r3, r1, #0
    53f4:	b29b      	uxth	r3, r3
    53f6:	2b00      	cmp	r3, #0
    53f8:	d101      	bne.n	53fe <udd_ep_trans_in_next+0xd2>
    53fa:	2301      	movs	r3, #1
    53fc:	e000      	b.n	5400 <udd_ep_trans_in_next+0xd4>
    53fe:	2300      	movs	r3, #0
    5400:	b2db      	uxtb	r3, r3
    5402:	1c1a      	adds	r2, r3, #0
    5404:	2301      	movs	r3, #1
    5406:	4013      	ands	r3, r2
    5408:	b2da      	uxtb	r2, r3
    540a:	693b      	ldr	r3, [r7, #16]
    540c:	2101      	movs	r1, #1
    540e:	400a      	ands	r2, r1
    5410:	1890      	adds	r0, r2, r2
    5412:	7c9a      	ldrb	r2, [r3, #18]
    5414:	2102      	movs	r1, #2
    5416:	438a      	bics	r2, r1
    5418:	1c11      	adds	r1, r2, #0
    541a:	1c02      	adds	r2, r0, #0
    541c:	430a      	orrs	r2, r1
    541e:	749a      	strb	r2, [r3, #18]
		usb_device_endpoint_write_buffer_job(&usb_device,ep_num,&ptr_job->buf[ptr_job->nb_trans],next_trans);
    5420:	693b      	ldr	r3, [r7, #16]
    5422:	685a      	ldr	r2, [r3, #4]
    5424:	693b      	ldr	r3, [r7, #16]
    5426:	68db      	ldr	r3, [r3, #12]
    5428:	18d2      	adds	r2, r2, r3
    542a:	231e      	movs	r3, #30
    542c:	18fb      	adds	r3, r7, r3
    542e:	881c      	ldrh	r4, [r3, #0]
    5430:	4921      	ldr	r1, [pc, #132]	; (54b8 <udd_ep_trans_in_next+0x18c>)
    5432:	230f      	movs	r3, #15
    5434:	18fb      	adds	r3, r7, r3
    5436:	781b      	ldrb	r3, [r3, #0]
    5438:	1c08      	adds	r0, r1, #0
    543a:	1c19      	adds	r1, r3, #0
    543c:	1c23      	adds	r3, r4, #0
    543e:	4c1f      	ldr	r4, [pc, #124]	; (54bc <udd_ep_trans_in_next+0x190>)
    5440:	47a0      	blx	r4
		return;
    5442:	e02e      	b.n	54a2 <udd_ep_trans_in_next+0x176>
	}

	/* Need to send a ZLP after all data transfer */
	if (ptr_job->b_shortpacket) {
    5444:	693b      	ldr	r3, [r7, #16]
    5446:	7c9b      	ldrb	r3, [r3, #18]
    5448:	2202      	movs	r2, #2
    544a:	4013      	ands	r3, r2
    544c:	b2db      	uxtb	r3, r3
    544e:	2b00      	cmp	r3, #0
    5450:	d013      	beq.n	547a <udd_ep_trans_in_next+0x14e>
		ptr_job->b_shortpacket = false;
    5452:	693b      	ldr	r3, [r7, #16]
    5454:	7c9a      	ldrb	r2, [r3, #18]
    5456:	2102      	movs	r1, #2
    5458:	438a      	bics	r2, r1
    545a:	749a      	strb	r2, [r3, #18]
		/* Start new transfer */
		usb_device_endpoint_write_buffer_job(&usb_device,ep_num,&ptr_job->buf[ptr_job->nb_trans],0);
    545c:	693b      	ldr	r3, [r7, #16]
    545e:	685a      	ldr	r2, [r3, #4]
    5460:	693b      	ldr	r3, [r7, #16]
    5462:	68db      	ldr	r3, [r3, #12]
    5464:	18d2      	adds	r2, r2, r3
    5466:	4914      	ldr	r1, [pc, #80]	; (54b8 <udd_ep_trans_in_next+0x18c>)
    5468:	230f      	movs	r3, #15
    546a:	18fb      	adds	r3, r7, r3
    546c:	781b      	ldrb	r3, [r3, #0]
    546e:	1c08      	adds	r0, r1, #0
    5470:	1c19      	adds	r1, r3, #0
    5472:	2300      	movs	r3, #0
    5474:	4c11      	ldr	r4, [pc, #68]	; (54bc <udd_ep_trans_in_next+0x190>)
    5476:	47a0      	blx	r4
		return;
    5478:	e013      	b.n	54a2 <udd_ep_trans_in_next+0x176>
	}

	/* Job complete then call callback */
	ptr_job->busy = false;
    547a:	693b      	ldr	r3, [r7, #16]
    547c:	7c9a      	ldrb	r2, [r3, #18]
    547e:	2101      	movs	r1, #1
    5480:	438a      	bics	r2, r1
    5482:	749a      	strb	r2, [r3, #18]
	if (NULL != ptr_job->call_trans) {
    5484:	693b      	ldr	r3, [r7, #16]
    5486:	681b      	ldr	r3, [r3, #0]
    5488:	2b00      	cmp	r3, #0
    548a:	d00a      	beq.n	54a2 <udd_ep_trans_in_next+0x176>
		ptr_job->call_trans(UDD_EP_TRANSFER_OK, ptr_job->nb_trans, ep);
    548c:	693b      	ldr	r3, [r7, #16]
    548e:	681c      	ldr	r4, [r3, #0]
    5490:	693b      	ldr	r3, [r7, #16]
    5492:	68da      	ldr	r2, [r3, #12]
    5494:	2317      	movs	r3, #23
    5496:	18fb      	adds	r3, r7, r3
    5498:	781b      	ldrb	r3, [r3, #0]
    549a:	2000      	movs	r0, #0
    549c:	1c11      	adds	r1, r2, #0
    549e:	1c1a      	adds	r2, r3, #0
    54a0:	47a0      	blx	r4
	}
}
    54a2:	46bd      	mov	sp, r7
    54a4:	b009      	add	sp, #36	; 0x24
    54a6:	bd90      	pop	{r4, r7, pc}
    54a8:	000052f1 	.word	0x000052f1
    54ac:	00001fff 	.word	0x00001fff
    54b0:	00008b41 	.word	0x00008b41
    54b4:	00008961 	.word	0x00008961
    54b8:	200002f4 	.word	0x200002f4
    54bc:	000079c9 	.word	0x000079c9

000054c0 <udd_ep_trans_out_next>:
/**
 * \brief     Endpoint OUT process, continue to receive packets or zero length packet
 * \param[in] pointer Pointer to the endpoint transfer status parameter struct from driver layer.
 */
static void udd_ep_trans_out_next(void* pointer)
{
    54c0:	b5b0      	push	{r4, r5, r7, lr}
    54c2:	b088      	sub	sp, #32
    54c4:	af00      	add	r7, sp, #0
    54c6:	6078      	str	r0, [r7, #4]
	struct usb_endpoint_callback_parameter *ep_callback_para = (struct usb_endpoint_callback_parameter*)pointer;
    54c8:	687b      	ldr	r3, [r7, #4]
    54ca:	61bb      	str	r3, [r7, #24]
	udd_ep_id_t ep = ep_callback_para->endpoint_address;
    54cc:	2317      	movs	r3, #23
    54ce:	18fb      	adds	r3, r7, r3
    54d0:	69ba      	ldr	r2, [r7, #24]
    54d2:	7992      	ldrb	r2, [r2, #6]
    54d4:	701a      	strb	r2, [r3, #0]
	uint16_t ep_size, nb_trans;
	uint16_t next_trans;
	udd_ep_id_t ep_num;
	udd_ep_job_t *ptr_job;

	ptr_job = udd_ep_get_job(ep);
    54d6:	2317      	movs	r3, #23
    54d8:	18fb      	adds	r3, r7, r3
    54da:	781b      	ldrb	r3, [r3, #0]
    54dc:	1c18      	adds	r0, r3, #0
    54de:	4b6a      	ldr	r3, [pc, #424]	; (5688 <udd_ep_trans_out_next+0x1c8>)
    54e0:	4798      	blx	r3
    54e2:	1c03      	adds	r3, r0, #0
    54e4:	613b      	str	r3, [r7, #16]
	ep_num = ep & USB_EP_ADDR_MASK;
    54e6:	230f      	movs	r3, #15
    54e8:	18fb      	adds	r3, r7, r3
    54ea:	2217      	movs	r2, #23
    54ec:	18ba      	adds	r2, r7, r2
    54ee:	7812      	ldrb	r2, [r2, #0]
    54f0:	210f      	movs	r1, #15
    54f2:	400a      	ands	r2, r1
    54f4:	701a      	strb	r2, [r3, #0]

	ep_size = ptr_job->ep_size;
    54f6:	230c      	movs	r3, #12
    54f8:	18fb      	adds	r3, r7, r3
    54fa:	693a      	ldr	r2, [r7, #16]
    54fc:	8a12      	ldrh	r2, [r2, #16]
    54fe:	801a      	strh	r2, [r3, #0]
	/* Update number of data transferred */
	nb_trans = ep_callback_para->received_bytes;
    5500:	230a      	movs	r3, #10
    5502:	18fb      	adds	r3, r7, r3
    5504:	69ba      	ldr	r2, [r7, #24]
    5506:	8812      	ldrh	r2, [r2, #0]
    5508:	801a      	strh	r2, [r3, #0]

	/* Can be necessary to copy data receive from cache buffer to user buffer */
	if (ptr_job->b_use_out_cache_buffer) {
    550a:	693b      	ldr	r3, [r7, #16]
    550c:	7c9b      	ldrb	r3, [r3, #18]
    550e:	2204      	movs	r2, #4
    5510:	4013      	ands	r3, r2
    5512:	b2db      	uxtb	r3, r3
    5514:	2b00      	cmp	r3, #0
    5516:	d01a      	beq.n	554e <udd_ep_trans_out_next+0x8e>
		memcpy(&ptr_job->buf[ptr_job->nb_trans], udd_ep_out_cache_buffer[ep_num - 1], ptr_job->buf_size % ep_size);
    5518:	693b      	ldr	r3, [r7, #16]
    551a:	685a      	ldr	r2, [r3, #4]
    551c:	693b      	ldr	r3, [r7, #16]
    551e:	68db      	ldr	r3, [r3, #12]
    5520:	18d5      	adds	r5, r2, r3
    5522:	230f      	movs	r3, #15
    5524:	18fb      	adds	r3, r7, r3
    5526:	781b      	ldrb	r3, [r3, #0]
    5528:	3b01      	subs	r3, #1
    552a:	019a      	lsls	r2, r3, #6
    552c:	4b57      	ldr	r3, [pc, #348]	; (568c <udd_ep_trans_out_next+0x1cc>)
    552e:	18d4      	adds	r4, r2, r3
    5530:	693b      	ldr	r3, [r7, #16]
    5532:	6899      	ldr	r1, [r3, #8]
    5534:	230c      	movs	r3, #12
    5536:	18fb      	adds	r3, r7, r3
    5538:	881a      	ldrh	r2, [r3, #0]
    553a:	4b55      	ldr	r3, [pc, #340]	; (5690 <udd_ep_trans_out_next+0x1d0>)
    553c:	1c08      	adds	r0, r1, #0
    553e:	1c11      	adds	r1, r2, #0
    5540:	4798      	blx	r3
    5542:	1c0b      	adds	r3, r1, #0
    5544:	1c28      	adds	r0, r5, #0
    5546:	1c21      	adds	r1, r4, #0
    5548:	1c1a      	adds	r2, r3, #0
    554a:	4b52      	ldr	r3, [pc, #328]	; (5694 <udd_ep_trans_out_next+0x1d4>)
    554c:	4798      	blx	r3
	}

	/* Update number of data transferred */
	ptr_job->nb_trans += nb_trans;
    554e:	693b      	ldr	r3, [r7, #16]
    5550:	68da      	ldr	r2, [r3, #12]
    5552:	230a      	movs	r3, #10
    5554:	18fb      	adds	r3, r7, r3
    5556:	881b      	ldrh	r3, [r3, #0]
    5558:	18d2      	adds	r2, r2, r3
    555a:	693b      	ldr	r3, [r7, #16]
    555c:	60da      	str	r2, [r3, #12]
	if (ptr_job->nb_trans > ptr_job->buf_size) {
    555e:	693b      	ldr	r3, [r7, #16]
    5560:	68da      	ldr	r2, [r3, #12]
    5562:	693b      	ldr	r3, [r7, #16]
    5564:	689b      	ldr	r3, [r3, #8]
    5566:	429a      	cmp	r2, r3
    5568:	d903      	bls.n	5572 <udd_ep_trans_out_next+0xb2>
		ptr_job->nb_trans = ptr_job->buf_size;
    556a:	693b      	ldr	r3, [r7, #16]
    556c:	689a      	ldr	r2, [r3, #8]
    556e:	693b      	ldr	r3, [r7, #16]
    5570:	60da      	str	r2, [r3, #12]
	}

	/* If all previous data requested are received and user buffer not full
	 * then need to receive other data */
	if ((nb_trans == ep_callback_para->out_buffer_size) && (ptr_job->nb_trans != ptr_job->buf_size)) {
    5572:	69bb      	ldr	r3, [r7, #24]
    5574:	889b      	ldrh	r3, [r3, #4]
    5576:	220a      	movs	r2, #10
    5578:	18ba      	adds	r2, r7, r2
    557a:	8812      	ldrh	r2, [r2, #0]
    557c:	429a      	cmp	r2, r3
    557e:	d16b      	bne.n	5658 <udd_ep_trans_out_next+0x198>
    5580:	693b      	ldr	r3, [r7, #16]
    5582:	68da      	ldr	r2, [r3, #12]
    5584:	693b      	ldr	r3, [r7, #16]
    5586:	689b      	ldr	r3, [r3, #8]
    5588:	429a      	cmp	r2, r3
    558a:	d065      	beq.n	5658 <udd_ep_trans_out_next+0x198>
		next_trans = ptr_job->buf_size - ptr_job->nb_trans;
    558c:	693b      	ldr	r3, [r7, #16]
    558e:	689b      	ldr	r3, [r3, #8]
    5590:	b299      	uxth	r1, r3
    5592:	693b      	ldr	r3, [r7, #16]
    5594:	68db      	ldr	r3, [r3, #12]
    5596:	b29a      	uxth	r2, r3
    5598:	231e      	movs	r3, #30
    559a:	18fb      	adds	r3, r7, r3
    559c:	1a8a      	subs	r2, r1, r2
    559e:	801a      	strh	r2, [r3, #0]
		if (UDD_ENDPOINT_MAX_TRANS < next_trans) {
    55a0:	231e      	movs	r3, #30
    55a2:	18fb      	adds	r3, r7, r3
    55a4:	881b      	ldrh	r3, [r3, #0]
    55a6:	4a3c      	ldr	r2, [pc, #240]	; (5698 <udd_ep_trans_out_next+0x1d8>)
    55a8:	4293      	cmp	r3, r2
    55aa:	d90f      	bls.n	55cc <udd_ep_trans_out_next+0x10c>
		/* The USB hardware support a maximum transfer size
		 * of UDD_ENDPOINT_MAX_TRANS Bytes */
		next_trans = UDD_ENDPOINT_MAX_TRANS - (UDD_ENDPOINT_MAX_TRANS % ep_size);
    55ac:	230c      	movs	r3, #12
    55ae:	18fb      	adds	r3, r7, r3
    55b0:	881a      	ldrh	r2, [r3, #0]
    55b2:	4939      	ldr	r1, [pc, #228]	; (5698 <udd_ep_trans_out_next+0x1d8>)
    55b4:	4b39      	ldr	r3, [pc, #228]	; (569c <udd_ep_trans_out_next+0x1dc>)
    55b6:	1c08      	adds	r0, r1, #0
    55b8:	1c11      	adds	r1, r2, #0
    55ba:	4798      	blx	r3
    55bc:	1c0b      	adds	r3, r1, #0
    55be:	b29a      	uxth	r2, r3
    55c0:	231e      	movs	r3, #30
    55c2:	18fb      	adds	r3, r7, r3
    55c4:	4934      	ldr	r1, [pc, #208]	; (5698 <udd_ep_trans_out_next+0x1d8>)
    55c6:	1a8a      	subs	r2, r1, r2
    55c8:	801a      	strh	r2, [r3, #0]
    55ca:	e012      	b.n	55f2 <udd_ep_trans_out_next+0x132>
		} else {
			next_trans -= next_trans % ep_size;
    55cc:	231e      	movs	r3, #30
    55ce:	18fa      	adds	r2, r7, r3
    55d0:	230c      	movs	r3, #12
    55d2:	18fb      	adds	r3, r7, r3
    55d4:	8811      	ldrh	r1, [r2, #0]
    55d6:	881a      	ldrh	r2, [r3, #0]
    55d8:	4b2d      	ldr	r3, [pc, #180]	; (5690 <udd_ep_trans_out_next+0x1d0>)
    55da:	1c08      	adds	r0, r1, #0
    55dc:	1c11      	adds	r1, r2, #0
    55de:	4798      	blx	r3
    55e0:	1c0b      	adds	r3, r1, #0
    55e2:	b29a      	uxth	r2, r3
    55e4:	231e      	movs	r3, #30
    55e6:	18fb      	adds	r3, r7, r3
    55e8:	211e      	movs	r1, #30
    55ea:	1879      	adds	r1, r7, r1
    55ec:	8809      	ldrh	r1, [r1, #0]
    55ee:	1a8a      	subs	r2, r1, r2
    55f0:	801a      	strh	r2, [r3, #0]
		}

		if (next_trans < ep_size) {
    55f2:	231e      	movs	r3, #30
    55f4:	18fa      	adds	r2, r7, r3
    55f6:	230c      	movs	r3, #12
    55f8:	18fb      	adds	r3, r7, r3
    55fa:	8812      	ldrh	r2, [r2, #0]
    55fc:	881b      	ldrh	r3, [r3, #0]
    55fe:	429a      	cmp	r2, r3
    5600:	d218      	bcs.n	5634 <udd_ep_trans_out_next+0x174>
			/* Use the cache buffer for Bulk or Interrupt size endpoint */
			ptr_job->b_use_out_cache_buffer = true;
    5602:	693b      	ldr	r3, [r7, #16]
    5604:	7c9a      	ldrb	r2, [r3, #18]
    5606:	2104      	movs	r1, #4
    5608:	430a      	orrs	r2, r1
    560a:	749a      	strb	r2, [r3, #18]
			usb_device_endpoint_read_buffer_job(&usb_device,ep_num,udd_ep_out_cache_buffer[ep_num - 1],ep_size);
    560c:	230f      	movs	r3, #15
    560e:	18fb      	adds	r3, r7, r3
    5610:	781b      	ldrb	r3, [r3, #0]
    5612:	3b01      	subs	r3, #1
    5614:	019a      	lsls	r2, r3, #6
    5616:	4b1d      	ldr	r3, [pc, #116]	; (568c <udd_ep_trans_out_next+0x1cc>)
    5618:	18d2      	adds	r2, r2, r3
    561a:	230c      	movs	r3, #12
    561c:	18fb      	adds	r3, r7, r3
    561e:	881c      	ldrh	r4, [r3, #0]
    5620:	491f      	ldr	r1, [pc, #124]	; (56a0 <udd_ep_trans_out_next+0x1e0>)
    5622:	230f      	movs	r3, #15
    5624:	18fb      	adds	r3, r7, r3
    5626:	781b      	ldrb	r3, [r3, #0]
    5628:	1c08      	adds	r0, r1, #0
    562a:	1c19      	adds	r1, r3, #0
    562c:	1c23      	adds	r3, r4, #0
    562e:	4c1d      	ldr	r4, [pc, #116]	; (56a4 <udd_ep_trans_out_next+0x1e4>)
    5630:	47a0      	blx	r4
		} else {
			usb_device_endpoint_read_buffer_job(&usb_device,ep_num,&ptr_job->buf[ptr_job->nb_trans],next_trans);
		}
		return;
    5632:	e025      	b.n	5680 <udd_ep_trans_out_next+0x1c0>
		if (next_trans < ep_size) {
			/* Use the cache buffer for Bulk or Interrupt size endpoint */
			ptr_job->b_use_out_cache_buffer = true;
			usb_device_endpoint_read_buffer_job(&usb_device,ep_num,udd_ep_out_cache_buffer[ep_num - 1],ep_size);
		} else {
			usb_device_endpoint_read_buffer_job(&usb_device,ep_num,&ptr_job->buf[ptr_job->nb_trans],next_trans);
    5634:	693b      	ldr	r3, [r7, #16]
    5636:	685a      	ldr	r2, [r3, #4]
    5638:	693b      	ldr	r3, [r7, #16]
    563a:	68db      	ldr	r3, [r3, #12]
    563c:	18d2      	adds	r2, r2, r3
    563e:	231e      	movs	r3, #30
    5640:	18fb      	adds	r3, r7, r3
    5642:	881c      	ldrh	r4, [r3, #0]
    5644:	4916      	ldr	r1, [pc, #88]	; (56a0 <udd_ep_trans_out_next+0x1e0>)
    5646:	230f      	movs	r3, #15
    5648:	18fb      	adds	r3, r7, r3
    564a:	781b      	ldrb	r3, [r3, #0]
    564c:	1c08      	adds	r0, r1, #0
    564e:	1c19      	adds	r1, r3, #0
    5650:	1c23      	adds	r3, r4, #0
    5652:	4c14      	ldr	r4, [pc, #80]	; (56a4 <udd_ep_trans_out_next+0x1e4>)
    5654:	47a0      	blx	r4
		}
		return;
    5656:	e013      	b.n	5680 <udd_ep_trans_out_next+0x1c0>
	}

	/* Job complete then call callback */
	ptr_job->busy = false;
    5658:	693b      	ldr	r3, [r7, #16]
    565a:	7c9a      	ldrb	r2, [r3, #18]
    565c:	2101      	movs	r1, #1
    565e:	438a      	bics	r2, r1
    5660:	749a      	strb	r2, [r3, #18]
	if (NULL != ptr_job->call_trans) {
    5662:	693b      	ldr	r3, [r7, #16]
    5664:	681b      	ldr	r3, [r3, #0]
    5666:	2b00      	cmp	r3, #0
    5668:	d00a      	beq.n	5680 <udd_ep_trans_out_next+0x1c0>
		ptr_job->call_trans(UDD_EP_TRANSFER_OK, ptr_job->nb_trans, ep);
    566a:	693b      	ldr	r3, [r7, #16]
    566c:	681c      	ldr	r4, [r3, #0]
    566e:	693b      	ldr	r3, [r7, #16]
    5670:	68da      	ldr	r2, [r3, #12]
    5672:	2317      	movs	r3, #23
    5674:	18fb      	adds	r3, r7, r3
    5676:	781b      	ldrb	r3, [r3, #0]
    5678:	2000      	movs	r0, #0
    567a:	1c11      	adds	r1, r2, #0
    567c:	1c1a      	adds	r2, r3, #0
    567e:	47a0      	blx	r4
	}
}
    5680:	46bd      	mov	sp, r7
    5682:	b008      	add	sp, #32
    5684:	bdb0      	pop	{r4, r5, r7, pc}
    5686:	46c0      	nop			; (mov r8, r8)
    5688:	000052f1 	.word	0x000052f1
    568c:	200002b4 	.word	0x200002b4
    5690:	00008961 	.word	0x00008961
    5694:	00008be5 	.word	0x00008be5
    5698:	00001fff 	.word	0x00001fff
    569c:	00008b41 	.word	0x00008b41
    56a0:	200002f4 	.word	0x200002f4
    56a4:	00007a81 	.word	0x00007a81

000056a8 <udd_ep_transfer_process>:
 * \brief     Endpoint Transfer Complete callback function, to do the next transfer depends on the direction(IN or OUT)
 * \param[in] module_inst Pointer to USB module instance
 * \param[in] pointer Pointer to the endpoint transfer status parameter struct from driver layer.
 */
static void udd_ep_transfer_process(struct usb_module *module_inst, void* pointer)
{
    56a8:	b580      	push	{r7, lr}
    56aa:	b084      	sub	sp, #16
    56ac:	af00      	add	r7, sp, #0
    56ae:	6078      	str	r0, [r7, #4]
    56b0:	6039      	str	r1, [r7, #0]
	struct usb_endpoint_callback_parameter *ep_callback_para = (struct usb_endpoint_callback_parameter*)pointer;
    56b2:	683b      	ldr	r3, [r7, #0]
    56b4:	60fb      	str	r3, [r7, #12]
	udd_ep_id_t ep = ep_callback_para->endpoint_address;
    56b6:	230b      	movs	r3, #11
    56b8:	18fb      	adds	r3, r7, r3
    56ba:	68fa      	ldr	r2, [r7, #12]
    56bc:	7992      	ldrb	r2, [r2, #6]
    56be:	701a      	strb	r2, [r3, #0]

	if (ep & USB_EP_DIR_IN) {
    56c0:	230b      	movs	r3, #11
    56c2:	18fb      	adds	r3, r7, r3
    56c4:	781b      	ldrb	r3, [r3, #0]
    56c6:	b25b      	sxtb	r3, r3
    56c8:	2b00      	cmp	r3, #0
    56ca:	da04      	bge.n	56d6 <udd_ep_transfer_process+0x2e>
		udd_ep_trans_in_next(pointer);
    56cc:	683b      	ldr	r3, [r7, #0]
    56ce:	1c18      	adds	r0, r3, #0
    56d0:	4b04      	ldr	r3, [pc, #16]	; (56e4 <udd_ep_transfer_process+0x3c>)
    56d2:	4798      	blx	r3
    56d4:	e003      	b.n	56de <udd_ep_transfer_process+0x36>
	} else {
		udd_ep_trans_out_next(pointer);
    56d6:	683b      	ldr	r3, [r7, #0]
    56d8:	1c18      	adds	r0, r3, #0
    56da:	4b03      	ldr	r3, [pc, #12]	; (56e8 <udd_ep_transfer_process+0x40>)
    56dc:	4798      	blx	r3
	}
}
    56de:	46bd      	mov	sp, r7
    56e0:	b004      	add	sp, #16
    56e2:	bd80      	pop	{r7, pc}
    56e4:	0000532d 	.word	0x0000532d
    56e8:	000054c1 	.word	0x000054c1

000056ec <udd_ep_abort>:

void udd_ep_abort(udd_ep_id_t ep)
{
    56ec:	b590      	push	{r4, r7, lr}
    56ee:	b085      	sub	sp, #20
    56f0:	af00      	add	r7, sp, #0
    56f2:	1c02      	adds	r2, r0, #0
    56f4:	1dfb      	adds	r3, r7, #7
    56f6:	701a      	strb	r2, [r3, #0]
	udd_ep_job_t *ptr_job;

	usb_device_endpoint_abort_job(&usb_device, ep);
    56f8:	4a15      	ldr	r2, [pc, #84]	; (5750 <udd_ep_abort+0x64>)
    56fa:	1dfb      	adds	r3, r7, #7
    56fc:	781b      	ldrb	r3, [r3, #0]
    56fe:	1c10      	adds	r0, r2, #0
    5700:	1c19      	adds	r1, r3, #0
    5702:	4b14      	ldr	r3, [pc, #80]	; (5754 <udd_ep_abort+0x68>)
    5704:	4798      	blx	r3

	/* Job complete then call callback */
	ptr_job = udd_ep_get_job(ep);
    5706:	1dfb      	adds	r3, r7, #7
    5708:	781b      	ldrb	r3, [r3, #0]
    570a:	1c18      	adds	r0, r3, #0
    570c:	4b12      	ldr	r3, [pc, #72]	; (5758 <udd_ep_abort+0x6c>)
    570e:	4798      	blx	r3
    5710:	1c03      	adds	r3, r0, #0
    5712:	60fb      	str	r3, [r7, #12]
	if (!ptr_job->busy) {
    5714:	68fb      	ldr	r3, [r7, #12]
    5716:	7c9b      	ldrb	r3, [r3, #18]
    5718:	2201      	movs	r2, #1
    571a:	4013      	ands	r3, r2
    571c:	b2db      	uxtb	r3, r3
    571e:	2b00      	cmp	r3, #0
    5720:	d100      	bne.n	5724 <udd_ep_abort+0x38>
		return;
    5722:	e012      	b.n	574a <udd_ep_abort+0x5e>
	}
	ptr_job->busy = false;
    5724:	68fb      	ldr	r3, [r7, #12]
    5726:	7c9a      	ldrb	r2, [r3, #18]
    5728:	2101      	movs	r1, #1
    572a:	438a      	bics	r2, r1
    572c:	749a      	strb	r2, [r3, #18]
	if (NULL != ptr_job->call_trans) {
    572e:	68fb      	ldr	r3, [r7, #12]
    5730:	681b      	ldr	r3, [r3, #0]
    5732:	2b00      	cmp	r3, #0
    5734:	d009      	beq.n	574a <udd_ep_abort+0x5e>
		/* It can be a Transfer or stall callback */
		ptr_job->call_trans(UDD_EP_TRANSFER_ABORT, ptr_job->nb_trans, ep);
    5736:	68fb      	ldr	r3, [r7, #12]
    5738:	681c      	ldr	r4, [r3, #0]
    573a:	68fb      	ldr	r3, [r7, #12]
    573c:	68da      	ldr	r2, [r3, #12]
    573e:	1dfb      	adds	r3, r7, #7
    5740:	781b      	ldrb	r3, [r3, #0]
    5742:	2001      	movs	r0, #1
    5744:	1c11      	adds	r1, r2, #0
    5746:	1c1a      	adds	r2, r3, #0
    5748:	47a0      	blx	r4
	}
}
    574a:	46bd      	mov	sp, r7
    574c:	b005      	add	sp, #20
    574e:	bd90      	pop	{r4, r7, pc}
    5750:	200002f4 	.word	0x200002f4
    5754:	00007769 	.word	0x00007769
    5758:	000052f1 	.word	0x000052f1

0000575c <udd_get_frame_number>:
	return false;
#endif
}

uint16_t udd_get_frame_number(void)
{
    575c:	b580      	push	{r7, lr}
    575e:	af00      	add	r7, sp, #0
	return usb_device_get_frame_number(&usb_device);
    5760:	4b03      	ldr	r3, [pc, #12]	; (5770 <udd_get_frame_number+0x14>)
    5762:	1c18      	adds	r0, r3, #0
    5764:	4b03      	ldr	r3, [pc, #12]	; (5774 <udd_get_frame_number+0x18>)
    5766:	4798      	blx	r3
    5768:	1c03      	adds	r3, r0, #0
}
    576a:	1c18      	adds	r0, r3, #0
    576c:	46bd      	mov	sp, r7
    576e:	bd80      	pop	{r7, pc}
    5770:	200002f4 	.word	0x200002f4
    5774:	000050d9 	.word	0x000050d9

00005778 <udd_ep_free>:
{
	return usb_device_get_micro_frame_number(&usb_device);
}

void udd_ep_free(udd_ep_id_t ep)
{
    5778:	b580      	push	{r7, lr}
    577a:	b084      	sub	sp, #16
    577c:	af00      	add	r7, sp, #0
    577e:	1c02      	adds	r2, r0, #0
    5780:	1dfb      	adds	r3, r7, #7
    5782:	701a      	strb	r2, [r3, #0]
	struct usb_device_endpoint_config config_ep;
	usb_device_endpoint_get_config_defaults(&config_ep);
    5784:	2308      	movs	r3, #8
    5786:	18fb      	adds	r3, r7, r3
    5788:	1c18      	adds	r0, r3, #0
    578a:	4b19      	ldr	r3, [pc, #100]	; (57f0 <udd_ep_free+0x78>)
    578c:	4798      	blx	r3

	uint8_t ep_num = ep & USB_EP_ADDR_MASK;
    578e:	230f      	movs	r3, #15
    5790:	18fb      	adds	r3, r7, r3
    5792:	1dfa      	adds	r2, r7, #7
    5794:	7812      	ldrb	r2, [r2, #0]
    5796:	210f      	movs	r1, #15
    5798:	400a      	ands	r2, r1
    579a:	701a      	strb	r2, [r3, #0]
	udd_ep_abort(ep);
    579c:	1dfb      	adds	r3, r7, #7
    579e:	781b      	ldrb	r3, [r3, #0]
    57a0:	1c18      	adds	r0, r3, #0
    57a2:	4b14      	ldr	r3, [pc, #80]	; (57f4 <udd_ep_free+0x7c>)
    57a4:	4798      	blx	r3

	config_ep.ep_address = ep;
    57a6:	2308      	movs	r3, #8
    57a8:	18fb      	adds	r3, r7, r3
    57aa:	1dfa      	adds	r2, r7, #7
    57ac:	7812      	ldrb	r2, [r2, #0]
    57ae:	701a      	strb	r2, [r3, #0]
	config_ep.ep_type = USB_DEVICE_ENDPOINT_TYPE_DISABLE;
    57b0:	2308      	movs	r3, #8
    57b2:	18fb      	adds	r3, r7, r3
    57b4:	2200      	movs	r2, #0
    57b6:	70da      	strb	r2, [r3, #3]
	usb_device_endpoint_set_config(&usb_device, &config_ep);
    57b8:	4a0f      	ldr	r2, [pc, #60]	; (57f8 <udd_ep_free+0x80>)
    57ba:	2308      	movs	r3, #8
    57bc:	18fb      	adds	r3, r7, r3
    57be:	1c10      	adds	r0, r2, #0
    57c0:	1c19      	adds	r1, r3, #0
    57c2:	4b0e      	ldr	r3, [pc, #56]	; (57fc <udd_ep_free+0x84>)
    57c4:	4798      	blx	r3
	usb_device_endpoint_unregister_callback(&usb_device,ep_num,USB_DEVICE_ENDPOINT_CALLBACK_TRCPT);
    57c6:	4a0c      	ldr	r2, [pc, #48]	; (57f8 <udd_ep_free+0x80>)
    57c8:	230f      	movs	r3, #15
    57ca:	18fb      	adds	r3, r7, r3
    57cc:	781b      	ldrb	r3, [r3, #0]
    57ce:	1c10      	adds	r0, r2, #0
    57d0:	1c19      	adds	r1, r3, #0
    57d2:	2200      	movs	r2, #0
    57d4:	4b0a      	ldr	r3, [pc, #40]	; (5800 <udd_ep_free+0x88>)
    57d6:	4798      	blx	r3
	usb_device_endpoint_disable_callback(&usb_device,ep,USB_DEVICE_ENDPOINT_CALLBACK_TRCPT);
    57d8:	4a07      	ldr	r2, [pc, #28]	; (57f8 <udd_ep_free+0x80>)
    57da:	1dfb      	adds	r3, r7, #7
    57dc:	781b      	ldrb	r3, [r3, #0]
    57de:	1c10      	adds	r0, r2, #0
    57e0:	1c19      	adds	r1, r3, #0
    57e2:	2200      	movs	r2, #0
    57e4:	4b07      	ldr	r3, [pc, #28]	; (5804 <udd_ep_free+0x8c>)
    57e6:	4798      	blx	r3
}
    57e8:	46bd      	mov	sp, r7
    57ea:	b004      	add	sp, #16
    57ec:	bd80      	pop	{r7, pc}
    57ee:	46c0      	nop			; (mov r8, r8)
    57f0:	00007265 	.word	0x00007265
    57f4:	000056ed 	.word	0x000056ed
    57f8:	200002f4 	.word	0x200002f4
    57fc:	0000728d 	.word	0x0000728d
    5800:	00006ea9 	.word	0x00006ea9
    5804:	000070bd 	.word	0x000070bd

00005808 <udd_ep_alloc>:

bool udd_ep_alloc(udd_ep_id_t ep, uint8_t bmAttributes, uint16_t MaxEndpointSize)
{
    5808:	b590      	push	{r4, r7, lr}
    580a:	b087      	sub	sp, #28
    580c:	af00      	add	r7, sp, #0
    580e:	1c04      	adds	r4, r0, #0
    5810:	1c08      	adds	r0, r1, #0
    5812:	1c11      	adds	r1, r2, #0
    5814:	1dfb      	adds	r3, r7, #7
    5816:	1c22      	adds	r2, r4, #0
    5818:	701a      	strb	r2, [r3, #0]
    581a:	1dbb      	adds	r3, r7, #6
    581c:	1c02      	adds	r2, r0, #0
    581e:	701a      	strb	r2, [r3, #0]
    5820:	1d3b      	adds	r3, r7, #4
    5822:	1c0a      	adds	r2, r1, #0
    5824:	801a      	strh	r2, [r3, #0]
	struct usb_device_endpoint_config config_ep;
	usb_device_endpoint_get_config_defaults(&config_ep);
    5826:	230c      	movs	r3, #12
    5828:	18fb      	adds	r3, r7, r3
    582a:	1c18      	adds	r0, r3, #0
    582c:	4b5a      	ldr	r3, [pc, #360]	; (5998 <udd_ep_alloc+0x190>)
    582e:	4798      	blx	r3

	config_ep.ep_address = ep;
    5830:	230c      	movs	r3, #12
    5832:	18fb      	adds	r3, r7, r3
    5834:	1dfa      	adds	r2, r7, #7
    5836:	7812      	ldrb	r2, [r2, #0]
    5838:	701a      	strb	r2, [r3, #0]

	if(MaxEndpointSize <= 8) {
    583a:	1d3b      	adds	r3, r7, #4
    583c:	881b      	ldrh	r3, [r3, #0]
    583e:	2b08      	cmp	r3, #8
    5840:	d804      	bhi.n	584c <udd_ep_alloc+0x44>
		config_ep.ep_size = USB_ENDPOINT_8_BYTE;
    5842:	230c      	movs	r3, #12
    5844:	18fb      	adds	r3, r7, r3
    5846:	2200      	movs	r2, #0
    5848:	705a      	strb	r2, [r3, #1]
    584a:	e045      	b.n	58d8 <udd_ep_alloc+0xd0>
	} else if(MaxEndpointSize <= 16) {
    584c:	1d3b      	adds	r3, r7, #4
    584e:	881b      	ldrh	r3, [r3, #0]
    5850:	2b10      	cmp	r3, #16
    5852:	d804      	bhi.n	585e <udd_ep_alloc+0x56>
		config_ep.ep_size = USB_ENDPOINT_16_BYTE;
    5854:	230c      	movs	r3, #12
    5856:	18fb      	adds	r3, r7, r3
    5858:	2201      	movs	r2, #1
    585a:	705a      	strb	r2, [r3, #1]
    585c:	e03c      	b.n	58d8 <udd_ep_alloc+0xd0>
	} else if(MaxEndpointSize <= 32) {
    585e:	1d3b      	adds	r3, r7, #4
    5860:	881b      	ldrh	r3, [r3, #0]
    5862:	2b20      	cmp	r3, #32
    5864:	d804      	bhi.n	5870 <udd_ep_alloc+0x68>
		config_ep.ep_size = USB_ENDPOINT_32_BYTE;
    5866:	230c      	movs	r3, #12
    5868:	18fb      	adds	r3, r7, r3
    586a:	2202      	movs	r2, #2
    586c:	705a      	strb	r2, [r3, #1]
    586e:	e033      	b.n	58d8 <udd_ep_alloc+0xd0>
	} else if(MaxEndpointSize <= 64) {
    5870:	1d3b      	adds	r3, r7, #4
    5872:	881b      	ldrh	r3, [r3, #0]
    5874:	2b40      	cmp	r3, #64	; 0x40
    5876:	d804      	bhi.n	5882 <udd_ep_alloc+0x7a>
		config_ep.ep_size = USB_ENDPOINT_64_BYTE;
    5878:	230c      	movs	r3, #12
    587a:	18fb      	adds	r3, r7, r3
    587c:	2203      	movs	r2, #3
    587e:	705a      	strb	r2, [r3, #1]
    5880:	e02a      	b.n	58d8 <udd_ep_alloc+0xd0>
	} else if(MaxEndpointSize <= 128) {
    5882:	1d3b      	adds	r3, r7, #4
    5884:	881b      	ldrh	r3, [r3, #0]
    5886:	2b80      	cmp	r3, #128	; 0x80
    5888:	d804      	bhi.n	5894 <udd_ep_alloc+0x8c>
		config_ep.ep_size = USB_ENDPOINT_128_BYTE;
    588a:	230c      	movs	r3, #12
    588c:	18fb      	adds	r3, r7, r3
    588e:	2204      	movs	r2, #4
    5890:	705a      	strb	r2, [r3, #1]
    5892:	e021      	b.n	58d8 <udd_ep_alloc+0xd0>
	} else if(MaxEndpointSize <= 256) {
    5894:	1d3b      	adds	r3, r7, #4
    5896:	881a      	ldrh	r2, [r3, #0]
    5898:	2380      	movs	r3, #128	; 0x80
    589a:	005b      	lsls	r3, r3, #1
    589c:	429a      	cmp	r2, r3
    589e:	d804      	bhi.n	58aa <udd_ep_alloc+0xa2>
		config_ep.ep_size = USB_ENDPOINT_256_BYTE;
    58a0:	230c      	movs	r3, #12
    58a2:	18fb      	adds	r3, r7, r3
    58a4:	2205      	movs	r2, #5
    58a6:	705a      	strb	r2, [r3, #1]
    58a8:	e016      	b.n	58d8 <udd_ep_alloc+0xd0>
	} else if(MaxEndpointSize <= 512) {
    58aa:	1d3b      	adds	r3, r7, #4
    58ac:	881a      	ldrh	r2, [r3, #0]
    58ae:	2380      	movs	r3, #128	; 0x80
    58b0:	009b      	lsls	r3, r3, #2
    58b2:	429a      	cmp	r2, r3
    58b4:	d804      	bhi.n	58c0 <udd_ep_alloc+0xb8>
		config_ep.ep_size = USB_ENDPOINT_512_BYTE;
    58b6:	230c      	movs	r3, #12
    58b8:	18fb      	adds	r3, r7, r3
    58ba:	2206      	movs	r2, #6
    58bc:	705a      	strb	r2, [r3, #1]
    58be:	e00b      	b.n	58d8 <udd_ep_alloc+0xd0>
	} else if(MaxEndpointSize <= 1023) {
    58c0:	1d3b      	adds	r3, r7, #4
    58c2:	881b      	ldrh	r3, [r3, #0]
    58c4:	4a35      	ldr	r2, [pc, #212]	; (599c <udd_ep_alloc+0x194>)
    58c6:	4293      	cmp	r3, r2
    58c8:	d804      	bhi.n	58d4 <udd_ep_alloc+0xcc>
		config_ep.ep_size = USB_ENDPOINT_1023_BYTE;
    58ca:	230c      	movs	r3, #12
    58cc:	18fb      	adds	r3, r7, r3
    58ce:	2207      	movs	r2, #7
    58d0:	705a      	strb	r2, [r3, #1]
    58d2:	e001      	b.n	58d8 <udd_ep_alloc+0xd0>
	} else {
		return false;
    58d4:	2300      	movs	r3, #0
    58d6:	e05a      	b.n	598e <udd_ep_alloc+0x186>
	}
	udd_ep_job_t *ptr_job = udd_ep_get_job(ep);
    58d8:	1dfb      	adds	r3, r7, #7
    58da:	781b      	ldrb	r3, [r3, #0]
    58dc:	1c18      	adds	r0, r3, #0
    58de:	4b30      	ldr	r3, [pc, #192]	; (59a0 <udd_ep_alloc+0x198>)
    58e0:	4798      	blx	r3
    58e2:	1c03      	adds	r3, r0, #0
    58e4:	617b      	str	r3, [r7, #20]
	ptr_job->ep_size = MaxEndpointSize;
    58e6:	697b      	ldr	r3, [r7, #20]
    58e8:	1d3a      	adds	r2, r7, #4
    58ea:	8812      	ldrh	r2, [r2, #0]
    58ec:	821a      	strh	r2, [r3, #16]

	bmAttributes = bmAttributes & USB_EP_TYPE_MASK;
    58ee:	1dbb      	adds	r3, r7, #6
    58f0:	1dba      	adds	r2, r7, #6
    58f2:	7812      	ldrb	r2, [r2, #0]
    58f4:	2103      	movs	r1, #3
    58f6:	400a      	ands	r2, r1
    58f8:	701a      	strb	r2, [r3, #0]

	/* Check endpoint type */
	if(USB_EP_TYPE_ISOCHRONOUS == bmAttributes) {
    58fa:	1dbb      	adds	r3, r7, #6
    58fc:	781b      	ldrb	r3, [r3, #0]
    58fe:	2b01      	cmp	r3, #1
    5900:	d104      	bne.n	590c <udd_ep_alloc+0x104>
		config_ep.ep_type = USB_DEVICE_ENDPOINT_TYPE_ISOCHRONOUS;
    5902:	230c      	movs	r3, #12
    5904:	18fb      	adds	r3, r7, r3
    5906:	2202      	movs	r2, #2
    5908:	70da      	strb	r2, [r3, #3]
    590a:	e013      	b.n	5934 <udd_ep_alloc+0x12c>
	} else if (USB_EP_TYPE_BULK == bmAttributes) {
    590c:	1dbb      	adds	r3, r7, #6
    590e:	781b      	ldrb	r3, [r3, #0]
    5910:	2b02      	cmp	r3, #2
    5912:	d104      	bne.n	591e <udd_ep_alloc+0x116>
		config_ep.ep_type = USB_DEVICE_ENDPOINT_TYPE_BULK;
    5914:	230c      	movs	r3, #12
    5916:	18fb      	adds	r3, r7, r3
    5918:	2203      	movs	r2, #3
    591a:	70da      	strb	r2, [r3, #3]
    591c:	e00a      	b.n	5934 <udd_ep_alloc+0x12c>
	} else if (USB_EP_TYPE_INTERRUPT == bmAttributes) {
    591e:	1dbb      	adds	r3, r7, #6
    5920:	781b      	ldrb	r3, [r3, #0]
    5922:	2b03      	cmp	r3, #3
    5924:	d104      	bne.n	5930 <udd_ep_alloc+0x128>
		config_ep.ep_type = USB_DEVICE_ENDPOINT_TYPE_INTERRUPT;
    5926:	230c      	movs	r3, #12
    5928:	18fb      	adds	r3, r7, r3
    592a:	2204      	movs	r2, #4
    592c:	70da      	strb	r2, [r3, #3]
    592e:	e001      	b.n	5934 <udd_ep_alloc+0x12c>
	} else {
		return false;
    5930:	2300      	movs	r3, #0
    5932:	e02c      	b.n	598e <udd_ep_alloc+0x186>
	}

	uint8_t ep_num = ep & USB_EP_ADDR_MASK;
    5934:	2313      	movs	r3, #19
    5936:	18fb      	adds	r3, r7, r3
    5938:	1dfa      	adds	r2, r7, #7
    593a:	7812      	ldrb	r2, [r2, #0]
    593c:	210f      	movs	r1, #15
    593e:	400a      	ands	r2, r1
    5940:	701a      	strb	r2, [r3, #0]

	if (STATUS_OK != usb_device_endpoint_set_config(&usb_device, &config_ep)) {
    5942:	4a18      	ldr	r2, [pc, #96]	; (59a4 <udd_ep_alloc+0x19c>)
    5944:	230c      	movs	r3, #12
    5946:	18fb      	adds	r3, r7, r3
    5948:	1c10      	adds	r0, r2, #0
    594a:	1c19      	adds	r1, r3, #0
    594c:	4b16      	ldr	r3, [pc, #88]	; (59a8 <udd_ep_alloc+0x1a0>)
    594e:	4798      	blx	r3
    5950:	1e03      	subs	r3, r0, #0
    5952:	d001      	beq.n	5958 <udd_ep_alloc+0x150>
		return false;
    5954:	2300      	movs	r3, #0
    5956:	e01a      	b.n	598e <udd_ep_alloc+0x186>
	}
	usb_device_endpoint_register_callback(&usb_device,ep_num,USB_DEVICE_ENDPOINT_CALLBACK_TRCPT,udd_ep_transfer_process);
    5958:	4912      	ldr	r1, [pc, #72]	; (59a4 <udd_ep_alloc+0x19c>)
    595a:	2313      	movs	r3, #19
    595c:	18fb      	adds	r3, r7, r3
    595e:	781a      	ldrb	r2, [r3, #0]
    5960:	4b12      	ldr	r3, [pc, #72]	; (59ac <udd_ep_alloc+0x1a4>)
    5962:	1c08      	adds	r0, r1, #0
    5964:	1c11      	adds	r1, r2, #0
    5966:	2200      	movs	r2, #0
    5968:	4c11      	ldr	r4, [pc, #68]	; (59b0 <udd_ep_alloc+0x1a8>)
    596a:	47a0      	blx	r4
	usb_device_endpoint_enable_callback(&usb_device,ep,USB_DEVICE_ENDPOINT_CALLBACK_TRCPT);
    596c:	4a0d      	ldr	r2, [pc, #52]	; (59a4 <udd_ep_alloc+0x19c>)
    596e:	1dfb      	adds	r3, r7, #7
    5970:	781b      	ldrb	r3, [r3, #0]
    5972:	1c10      	adds	r0, r2, #0
    5974:	1c19      	adds	r1, r3, #0
    5976:	2200      	movs	r2, #0
    5978:	4b0e      	ldr	r3, [pc, #56]	; (59b4 <udd_ep_alloc+0x1ac>)
    597a:	4798      	blx	r3
	usb_device_endpoint_enable_callback(&usb_device,ep,USB_DEVICE_ENDPOINT_CALLBACK_TRFAIL);
    597c:	4a09      	ldr	r2, [pc, #36]	; (59a4 <udd_ep_alloc+0x19c>)
    597e:	1dfb      	adds	r3, r7, #7
    5980:	781b      	ldrb	r3, [r3, #0]
    5982:	1c10      	adds	r0, r2, #0
    5984:	1c19      	adds	r1, r3, #0
    5986:	2201      	movs	r2, #1
    5988:	4b0a      	ldr	r3, [pc, #40]	; (59b4 <udd_ep_alloc+0x1ac>)
    598a:	4798      	blx	r3

	return true;
    598c:	2301      	movs	r3, #1
}
    598e:	1c18      	adds	r0, r3, #0
    5990:	46bd      	mov	sp, r7
    5992:	b007      	add	sp, #28
    5994:	bd90      	pop	{r4, r7, pc}
    5996:	46c0      	nop			; (mov r8, r8)
    5998:	00007265 	.word	0x00007265
    599c:	000003ff 	.word	0x000003ff
    59a0:	000052f1 	.word	0x000052f1
    59a4:	200002f4 	.word	0x200002f4
    59a8:	0000728d 	.word	0x0000728d
    59ac:	000056a9 	.word	0x000056a9
    59b0:	00006e2d 	.word	0x00006e2d
    59b4:	00006f21 	.word	0x00006f21

000059b8 <udd_ep_is_halted>:

bool udd_ep_is_halted(udd_ep_id_t ep)
{
    59b8:	b580      	push	{r7, lr}
    59ba:	b082      	sub	sp, #8
    59bc:	af00      	add	r7, sp, #0
    59be:	1c02      	adds	r2, r0, #0
    59c0:	1dfb      	adds	r3, r7, #7
    59c2:	701a      	strb	r2, [r3, #0]
	return usb_device_endpoint_is_halted(&usb_device, ep);
    59c4:	4a05      	ldr	r2, [pc, #20]	; (59dc <udd_ep_is_halted+0x24>)
    59c6:	1dfb      	adds	r3, r7, #7
    59c8:	781b      	ldrb	r3, [r3, #0]
    59ca:	1c10      	adds	r0, r2, #0
    59cc:	1c19      	adds	r1, r3, #0
    59ce:	4b04      	ldr	r3, [pc, #16]	; (59e0 <udd_ep_is_halted+0x28>)
    59d0:	4798      	blx	r3
    59d2:	1c03      	adds	r3, r0, #0
}
    59d4:	1c18      	adds	r0, r3, #0
    59d6:	46bd      	mov	sp, r7
    59d8:	b002      	add	sp, #8
    59da:	bd80      	pop	{r7, pc}
    59dc:	200002f4 	.word	0x200002f4
    59e0:	000077e9 	.word	0x000077e9

000059e4 <udd_ep_set_halt>:

bool udd_ep_set_halt(udd_ep_id_t ep)
{
    59e4:	b580      	push	{r7, lr}
    59e6:	b084      	sub	sp, #16
    59e8:	af00      	add	r7, sp, #0
    59ea:	1c02      	adds	r2, r0, #0
    59ec:	1dfb      	adds	r3, r7, #7
    59ee:	701a      	strb	r2, [r3, #0]
	uint8_t ep_num = ep & USB_EP_ADDR_MASK;
    59f0:	230f      	movs	r3, #15
    59f2:	18fb      	adds	r3, r7, r3
    59f4:	1dfa      	adds	r2, r7, #7
    59f6:	7812      	ldrb	r2, [r2, #0]
    59f8:	210f      	movs	r1, #15
    59fa:	400a      	ands	r2, r1
    59fc:	701a      	strb	r2, [r3, #0]

	if (USB_DEVICE_MAX_EP < ep_num) {
    59fe:	230f      	movs	r3, #15
    5a00:	18fb      	adds	r3, r7, r3
    5a02:	781b      	ldrb	r3, [r3, #0]
    5a04:	2b01      	cmp	r3, #1
    5a06:	d901      	bls.n	5a0c <udd_ep_set_halt+0x28>
		return false;
    5a08:	2300      	movs	r3, #0
    5a0a:	e00c      	b.n	5a26 <udd_ep_set_halt+0x42>
	}

	usb_device_endpoint_set_halt(&usb_device, ep);
    5a0c:	4a08      	ldr	r2, [pc, #32]	; (5a30 <udd_ep_set_halt+0x4c>)
    5a0e:	1dfb      	adds	r3, r7, #7
    5a10:	781b      	ldrb	r3, [r3, #0]
    5a12:	1c10      	adds	r0, r2, #0
    5a14:	1c19      	adds	r1, r3, #0
    5a16:	4b07      	ldr	r3, [pc, #28]	; (5a34 <udd_ep_set_halt+0x50>)
    5a18:	4798      	blx	r3

	udd_ep_abort(ep);
    5a1a:	1dfb      	adds	r3, r7, #7
    5a1c:	781b      	ldrb	r3, [r3, #0]
    5a1e:	1c18      	adds	r0, r3, #0
    5a20:	4b05      	ldr	r3, [pc, #20]	; (5a38 <udd_ep_set_halt+0x54>)
    5a22:	4798      	blx	r3
	return true;
    5a24:	2301      	movs	r3, #1
}
    5a26:	1c18      	adds	r0, r3, #0
    5a28:	46bd      	mov	sp, r7
    5a2a:	b004      	add	sp, #16
    5a2c:	bd80      	pop	{r7, pc}
    5a2e:	46c0      	nop			; (mov r8, r8)
    5a30:	200002f4 	.word	0x200002f4
    5a34:	00007859 	.word	0x00007859
    5a38:	000056ed 	.word	0x000056ed

00005a3c <udd_ep_clear_halt>:

bool udd_ep_clear_halt(udd_ep_id_t ep)
{
    5a3c:	b580      	push	{r7, lr}
    5a3e:	b084      	sub	sp, #16
    5a40:	af00      	add	r7, sp, #0
    5a42:	1c02      	adds	r2, r0, #0
    5a44:	1dfb      	adds	r3, r7, #7
    5a46:	701a      	strb	r2, [r3, #0]
	udd_ep_job_t *ptr_job;
	uint8_t ep_num = ep & USB_EP_ADDR_MASK;
    5a48:	230f      	movs	r3, #15
    5a4a:	18fb      	adds	r3, r7, r3
    5a4c:	1dfa      	adds	r2, r7, #7
    5a4e:	7812      	ldrb	r2, [r2, #0]
    5a50:	210f      	movs	r1, #15
    5a52:	400a      	ands	r2, r1
    5a54:	701a      	strb	r2, [r3, #0]

	if (USB_DEVICE_MAX_EP < ep_num) {
    5a56:	230f      	movs	r3, #15
    5a58:	18fb      	adds	r3, r7, r3
    5a5a:	781b      	ldrb	r3, [r3, #0]
    5a5c:	2b01      	cmp	r3, #1
    5a5e:	d901      	bls.n	5a64 <udd_ep_clear_halt+0x28>
		return false;
    5a60:	2300      	movs	r3, #0
    5a62:	e01d      	b.n	5aa0 <udd_ep_clear_halt+0x64>
	}
	ptr_job = udd_ep_get_job(ep);
    5a64:	1dfb      	adds	r3, r7, #7
    5a66:	781b      	ldrb	r3, [r3, #0]
    5a68:	1c18      	adds	r0, r3, #0
    5a6a:	4b0f      	ldr	r3, [pc, #60]	; (5aa8 <udd_ep_clear_halt+0x6c>)
    5a6c:	4798      	blx	r3
    5a6e:	1c03      	adds	r3, r0, #0
    5a70:	60bb      	str	r3, [r7, #8]

	usb_device_endpoint_clear_halt(&usb_device, ep);
    5a72:	4a0e      	ldr	r2, [pc, #56]	; (5aac <udd_ep_clear_halt+0x70>)
    5a74:	1dfb      	adds	r3, r7, #7
    5a76:	781b      	ldrb	r3, [r3, #0]
    5a78:	1c10      	adds	r0, r2, #0
    5a7a:	1c19      	adds	r1, r3, #0
    5a7c:	4b0c      	ldr	r3, [pc, #48]	; (5ab0 <udd_ep_clear_halt+0x74>)
    5a7e:	4798      	blx	r3

	/* If a job is register on clear halt action then execute callback */
	if (ptr_job->busy == true) {
    5a80:	68bb      	ldr	r3, [r7, #8]
    5a82:	7c9b      	ldrb	r3, [r3, #18]
    5a84:	2201      	movs	r2, #1
    5a86:	4013      	ands	r3, r2
    5a88:	b2db      	uxtb	r3, r3
    5a8a:	2b00      	cmp	r3, #0
    5a8c:	d007      	beq.n	5a9e <udd_ep_clear_halt+0x62>
		ptr_job->busy = false;
    5a8e:	68bb      	ldr	r3, [r7, #8]
    5a90:	7c9a      	ldrb	r2, [r3, #18]
    5a92:	2101      	movs	r1, #1
    5a94:	438a      	bics	r2, r1
    5a96:	749a      	strb	r2, [r3, #18]
		ptr_job->call_nohalt();
    5a98:	68bb      	ldr	r3, [r7, #8]
    5a9a:	681b      	ldr	r3, [r3, #0]
    5a9c:	4798      	blx	r3
	}

	return true;
    5a9e:	2301      	movs	r3, #1
}
    5aa0:	1c18      	adds	r0, r3, #0
    5aa2:	46bd      	mov	sp, r7
    5aa4:	b004      	add	sp, #16
    5aa6:	bd80      	pop	{r7, pc}
    5aa8:	000052f1 	.word	0x000052f1
    5aac:	200002f4 	.word	0x200002f4
    5ab0:	000078b1 	.word	0x000078b1

00005ab4 <udd_ctrl_stall_data>:

/**
 * \brief Control Endpoint stall sending data
 */
static void udd_ctrl_stall_data(void)
{
    5ab4:	b580      	push	{r7, lr}
    5ab6:	af00      	add	r7, sp, #0
	udd_ep_control_state = UDD_EPCTRL_STALL_REQ;
    5ab8:	4b07      	ldr	r3, [pc, #28]	; (5ad8 <udd_ctrl_stall_data+0x24>)
    5aba:	2205      	movs	r2, #5
    5abc:	701a      	strb	r2, [r3, #0]

	usb_device_endpoint_set_halt(&usb_device, USB_EP_DIR_IN);
    5abe:	4b07      	ldr	r3, [pc, #28]	; (5adc <udd_ctrl_stall_data+0x28>)
    5ac0:	1c18      	adds	r0, r3, #0
    5ac2:	2180      	movs	r1, #128	; 0x80
    5ac4:	4b06      	ldr	r3, [pc, #24]	; (5ae0 <udd_ctrl_stall_data+0x2c>)
    5ac6:	4798      	blx	r3
	usb_device_endpoint_clear_halt(&usb_device, USB_EP_DIR_OUT);
    5ac8:	4b04      	ldr	r3, [pc, #16]	; (5adc <udd_ctrl_stall_data+0x28>)
    5aca:	1c18      	adds	r0, r3, #0
    5acc:	2100      	movs	r1, #0
    5ace:	4b05      	ldr	r3, [pc, #20]	; (5ae4 <udd_ctrl_stall_data+0x30>)
    5ad0:	4798      	blx	r3
}
    5ad2:	46bd      	mov	sp, r7
    5ad4:	bd80      	pop	{r7, pc}
    5ad6:	46c0      	nop			; (mov r8, r8)
    5ad8:	20000160 	.word	0x20000160
    5adc:	200002f4 	.word	0x200002f4
    5ae0:	00007859 	.word	0x00007859
    5ae4:	000078b1 	.word	0x000078b1

00005ae8 <udd_ep_run>:

bool udd_ep_run(udd_ep_id_t ep, bool b_shortpacket, uint8_t * buf, iram_size_t buf_size, udd_callback_trans_t callback)
{
    5ae8:	b590      	push	{r4, r7, lr}
    5aea:	b089      	sub	sp, #36	; 0x24
    5aec:	af00      	add	r7, sp, #0
    5aee:	60ba      	str	r2, [r7, #8]
    5af0:	607b      	str	r3, [r7, #4]
    5af2:	230f      	movs	r3, #15
    5af4:	18fb      	adds	r3, r7, r3
    5af6:	1c02      	adds	r2, r0, #0
    5af8:	701a      	strb	r2, [r3, #0]
    5afa:	230e      	movs	r3, #14
    5afc:	18fb      	adds	r3, r7, r3
    5afe:	1c0a      	adds	r2, r1, #0
    5b00:	701a      	strb	r2, [r3, #0]
	udd_ep_id_t ep_num;
	udd_ep_job_t *ptr_job;
	irqflags_t flags;

	ep_num = ep & USB_EP_ADDR_MASK;
    5b02:	231d      	movs	r3, #29
    5b04:	18fb      	adds	r3, r7, r3
    5b06:	220f      	movs	r2, #15
    5b08:	18ba      	adds	r2, r7, r2
    5b0a:	7812      	ldrb	r2, [r2, #0]
    5b0c:	210f      	movs	r1, #15
    5b0e:	400a      	ands	r2, r1
    5b10:	701a      	strb	r2, [r3, #0]

	if ((USB_DEVICE_MAX_EP < ep_num) || (udd_ep_is_halted(ep))) {
    5b12:	231d      	movs	r3, #29
    5b14:	18fb      	adds	r3, r7, r3
    5b16:	781b      	ldrb	r3, [r3, #0]
    5b18:	2b01      	cmp	r3, #1
    5b1a:	d807      	bhi.n	5b2c <udd_ep_run+0x44>
    5b1c:	230f      	movs	r3, #15
    5b1e:	18fb      	adds	r3, r7, r3
    5b20:	781b      	ldrb	r3, [r3, #0]
    5b22:	1c18      	adds	r0, r3, #0
    5b24:	4ba3      	ldr	r3, [pc, #652]	; (5db4 <udd_ep_run+0x2cc>)
    5b26:	4798      	blx	r3
    5b28:	1e03      	subs	r3, r0, #0
    5b2a:	d001      	beq.n	5b30 <udd_ep_run+0x48>
		return false;
    5b2c:	2300      	movs	r3, #0
    5b2e:	e13c      	b.n	5daa <udd_ep_run+0x2c2>
	}

	ptr_job = udd_ep_get_job(ep);
    5b30:	230f      	movs	r3, #15
    5b32:	18fb      	adds	r3, r7, r3
    5b34:	781b      	ldrb	r3, [r3, #0]
    5b36:	1c18      	adds	r0, r3, #0
    5b38:	4b9f      	ldr	r3, [pc, #636]	; (5db8 <udd_ep_run+0x2d0>)
    5b3a:	4798      	blx	r3
    5b3c:	1c03      	adds	r3, r0, #0
    5b3e:	61bb      	str	r3, [r7, #24]

	flags = cpu_irq_save();
    5b40:	4b9e      	ldr	r3, [pc, #632]	; (5dbc <udd_ep_run+0x2d4>)
    5b42:	4798      	blx	r3
    5b44:	1c03      	adds	r3, r0, #0
    5b46:	617b      	str	r3, [r7, #20]
	if (ptr_job->busy == true) {
    5b48:	69bb      	ldr	r3, [r7, #24]
    5b4a:	7c9b      	ldrb	r3, [r3, #18]
    5b4c:	2201      	movs	r2, #1
    5b4e:	4013      	ands	r3, r2
    5b50:	b2db      	uxtb	r3, r3
    5b52:	2b00      	cmp	r3, #0
    5b54:	d005      	beq.n	5b62 <udd_ep_run+0x7a>
		cpu_irq_restore(flags);
    5b56:	697b      	ldr	r3, [r7, #20]
    5b58:	1c18      	adds	r0, r3, #0
    5b5a:	4b99      	ldr	r3, [pc, #612]	; (5dc0 <udd_ep_run+0x2d8>)
    5b5c:	4798      	blx	r3
		return false; /* Job already on going */
    5b5e:	2300      	movs	r3, #0
    5b60:	e123      	b.n	5daa <udd_ep_run+0x2c2>
	}
	ptr_job->busy = true;
    5b62:	69bb      	ldr	r3, [r7, #24]
    5b64:	7c9a      	ldrb	r2, [r3, #18]
    5b66:	2101      	movs	r1, #1
    5b68:	430a      	orrs	r2, r1
    5b6a:	749a      	strb	r2, [r3, #18]
	cpu_irq_restore(flags);
    5b6c:	697b      	ldr	r3, [r7, #20]
    5b6e:	1c18      	adds	r0, r3, #0
    5b70:	4b93      	ldr	r3, [pc, #588]	; (5dc0 <udd_ep_run+0x2d8>)
    5b72:	4798      	blx	r3

	/* No job running, set up a new one */
	ptr_job->buf = buf;
    5b74:	69bb      	ldr	r3, [r7, #24]
    5b76:	68ba      	ldr	r2, [r7, #8]
    5b78:	605a      	str	r2, [r3, #4]
	ptr_job->buf_size = buf_size;
    5b7a:	69bb      	ldr	r3, [r7, #24]
    5b7c:	687a      	ldr	r2, [r7, #4]
    5b7e:	609a      	str	r2, [r3, #8]
	ptr_job->nb_trans = 0;
    5b80:	69bb      	ldr	r3, [r7, #24]
    5b82:	2200      	movs	r2, #0
    5b84:	60da      	str	r2, [r3, #12]
	ptr_job->call_trans = callback;
    5b86:	69bb      	ldr	r3, [r7, #24]
    5b88:	6b3a      	ldr	r2, [r7, #48]	; 0x30
    5b8a:	601a      	str	r2, [r3, #0]
	ptr_job->b_shortpacket = b_shortpacket;
    5b8c:	69bb      	ldr	r3, [r7, #24]
    5b8e:	220e      	movs	r2, #14
    5b90:	18ba      	adds	r2, r7, r2
    5b92:	7812      	ldrb	r2, [r2, #0]
    5b94:	2101      	movs	r1, #1
    5b96:	400a      	ands	r2, r1
    5b98:	1890      	adds	r0, r2, r2
    5b9a:	7c9a      	ldrb	r2, [r3, #18]
    5b9c:	2102      	movs	r1, #2
    5b9e:	438a      	bics	r2, r1
    5ba0:	1c11      	adds	r1, r2, #0
    5ba2:	1c02      	adds	r2, r0, #0
    5ba4:	430a      	orrs	r2, r1
    5ba6:	749a      	strb	r2, [r3, #18]
	ptr_job->b_use_out_cache_buffer = false;
    5ba8:	69bb      	ldr	r3, [r7, #24]
    5baa:	7c9a      	ldrb	r2, [r3, #18]
    5bac:	2104      	movs	r1, #4
    5bae:	438a      	bics	r2, r1
    5bb0:	749a      	strb	r2, [r3, #18]

	/* Initialize value to simulate a empty transfer */
	uint16_t next_trans;

	if (ep & USB_EP_DIR_IN) {
    5bb2:	230f      	movs	r3, #15
    5bb4:	18fb      	adds	r3, r7, r3
    5bb6:	781b      	ldrb	r3, [r3, #0]
    5bb8:	b25b      	sxtb	r3, r3
    5bba:	2b00      	cmp	r3, #0
    5bbc:	db00      	blt.n	5bc0 <udd_ep_run+0xd8>
    5bbe:	e07b      	b.n	5cb8 <udd_ep_run+0x1d0>
		if (0 != ptr_job->buf_size) {
    5bc0:	69bb      	ldr	r3, [r7, #24]
    5bc2:	689b      	ldr	r3, [r3, #8]
    5bc4:	2b00      	cmp	r3, #0
    5bc6:	d040      	beq.n	5c4a <udd_ep_run+0x162>
			next_trans = ptr_job->buf_size;
    5bc8:	69bb      	ldr	r3, [r7, #24]
    5bca:	689a      	ldr	r2, [r3, #8]
    5bcc:	231e      	movs	r3, #30
    5bce:	18fb      	adds	r3, r7, r3
    5bd0:	801a      	strh	r2, [r3, #0]
			if (UDD_ENDPOINT_MAX_TRANS < next_trans) {
    5bd2:	231e      	movs	r3, #30
    5bd4:	18fb      	adds	r3, r7, r3
    5bd6:	881b      	ldrh	r3, [r3, #0]
    5bd8:	4a7a      	ldr	r2, [pc, #488]	; (5dc4 <udd_ep_run+0x2dc>)
    5bda:	4293      	cmp	r3, r2
    5bdc:	d90d      	bls.n	5bfa <udd_ep_run+0x112>
				next_trans = UDD_ENDPOINT_MAX_TRANS -
						(UDD_ENDPOINT_MAX_TRANS % ptr_job->ep_size);
    5bde:	69bb      	ldr	r3, [r7, #24]
    5be0:	8a1b      	ldrh	r3, [r3, #16]
    5be2:	1c19      	adds	r1, r3, #0
    5be4:	4a77      	ldr	r2, [pc, #476]	; (5dc4 <udd_ep_run+0x2dc>)
    5be6:	4b78      	ldr	r3, [pc, #480]	; (5dc8 <udd_ep_run+0x2e0>)
    5be8:	1c10      	adds	r0, r2, #0
    5bea:	4798      	blx	r3
    5bec:	1c0b      	adds	r3, r1, #0

	if (ep & USB_EP_DIR_IN) {
		if (0 != ptr_job->buf_size) {
			next_trans = ptr_job->buf_size;
			if (UDD_ENDPOINT_MAX_TRANS < next_trans) {
				next_trans = UDD_ENDPOINT_MAX_TRANS -
    5bee:	b29a      	uxth	r2, r3
    5bf0:	231e      	movs	r3, #30
    5bf2:	18fb      	adds	r3, r7, r3
    5bf4:	4973      	ldr	r1, [pc, #460]	; (5dc4 <udd_ep_run+0x2dc>)
    5bf6:	1a8a      	subs	r2, r1, r2
    5bf8:	801a      	strh	r2, [r3, #0]
						(UDD_ENDPOINT_MAX_TRANS % ptr_job->ep_size);
			}
			ptr_job->b_shortpacket = ptr_job->b_shortpacket &&
    5bfa:	69bb      	ldr	r3, [r7, #24]
    5bfc:	7c9b      	ldrb	r3, [r3, #18]
    5bfe:	2202      	movs	r2, #2
    5c00:	4013      	ands	r3, r2
    5c02:	b2db      	uxtb	r3, r3
    5c04:	2b00      	cmp	r3, #0
    5c06:	d00e      	beq.n	5c26 <udd_ep_run+0x13e>
					(0 == (next_trans % ptr_job->ep_size));
    5c08:	69bb      	ldr	r3, [r7, #24]
    5c0a:	8a1a      	ldrh	r2, [r3, #16]
    5c0c:	231e      	movs	r3, #30
    5c0e:	18fb      	adds	r3, r7, r3
    5c10:	8819      	ldrh	r1, [r3, #0]
    5c12:	4b6e      	ldr	r3, [pc, #440]	; (5dcc <udd_ep_run+0x2e4>)
    5c14:	1c08      	adds	r0, r1, #0
    5c16:	1c11      	adds	r1, r2, #0
    5c18:	4798      	blx	r3
    5c1a:	1c0b      	adds	r3, r1, #0
    5c1c:	b29b      	uxth	r3, r3
			next_trans = ptr_job->buf_size;
			if (UDD_ENDPOINT_MAX_TRANS < next_trans) {
				next_trans = UDD_ENDPOINT_MAX_TRANS -
						(UDD_ENDPOINT_MAX_TRANS % ptr_job->ep_size);
			}
			ptr_job->b_shortpacket = ptr_job->b_shortpacket &&
    5c1e:	2b00      	cmp	r3, #0
    5c20:	d101      	bne.n	5c26 <udd_ep_run+0x13e>
    5c22:	2301      	movs	r3, #1
    5c24:	e000      	b.n	5c28 <udd_ep_run+0x140>
    5c26:	2300      	movs	r3, #0
    5c28:	b2db      	uxtb	r3, r3
    5c2a:	1c1a      	adds	r2, r3, #0
    5c2c:	2301      	movs	r3, #1
    5c2e:	4013      	ands	r3, r2
    5c30:	b2da      	uxtb	r2, r3
    5c32:	69bb      	ldr	r3, [r7, #24]
    5c34:	2101      	movs	r1, #1
    5c36:	400a      	ands	r2, r1
    5c38:	1890      	adds	r0, r2, r2
    5c3a:	7c9a      	ldrb	r2, [r3, #18]
    5c3c:	2102      	movs	r1, #2
    5c3e:	438a      	bics	r2, r1
    5c40:	1c11      	adds	r1, r2, #0
    5c42:	1c02      	adds	r2, r0, #0
    5c44:	430a      	orrs	r2, r1
    5c46:	749a      	strb	r2, [r3, #18]
    5c48:	e023      	b.n	5c92 <udd_ep_run+0x1aa>
					(0 == (next_trans % ptr_job->ep_size));
		} else if (true == ptr_job->b_shortpacket) {
    5c4a:	69bb      	ldr	r3, [r7, #24]
    5c4c:	7c9b      	ldrb	r3, [r3, #18]
    5c4e:	2202      	movs	r2, #2
    5c50:	4013      	ands	r3, r2
    5c52:	b2db      	uxtb	r3, r3
    5c54:	2b00      	cmp	r3, #0
    5c56:	d009      	beq.n	5c6c <udd_ep_run+0x184>
			ptr_job->b_shortpacket = false; /* avoid to send zero length packet again */
    5c58:	69bb      	ldr	r3, [r7, #24]
    5c5a:	7c9a      	ldrb	r2, [r3, #18]
    5c5c:	2102      	movs	r1, #2
    5c5e:	438a      	bics	r2, r1
    5c60:	749a      	strb	r2, [r3, #18]
			next_trans = 0;
    5c62:	231e      	movs	r3, #30
    5c64:	18fb      	adds	r3, r7, r3
    5c66:	2200      	movs	r2, #0
    5c68:	801a      	strh	r2, [r3, #0]
    5c6a:	e012      	b.n	5c92 <udd_ep_run+0x1aa>
		} else {
			ptr_job->busy = false;
    5c6c:	69bb      	ldr	r3, [r7, #24]
    5c6e:	7c9a      	ldrb	r2, [r3, #18]
    5c70:	2101      	movs	r1, #1
    5c72:	438a      	bics	r2, r1
    5c74:	749a      	strb	r2, [r3, #18]
			if (NULL != ptr_job->call_trans) {
    5c76:	69bb      	ldr	r3, [r7, #24]
    5c78:	681b      	ldr	r3, [r3, #0]
    5c7a:	2b00      	cmp	r3, #0
    5c7c:	d007      	beq.n	5c8e <udd_ep_run+0x1a6>
				ptr_job->call_trans(UDD_EP_TRANSFER_OK, 0, ep);
    5c7e:	69bb      	ldr	r3, [r7, #24]
    5c80:	681b      	ldr	r3, [r3, #0]
    5c82:	220f      	movs	r2, #15
    5c84:	18ba      	adds	r2, r7, r2
    5c86:	7812      	ldrb	r2, [r2, #0]
    5c88:	2000      	movs	r0, #0
    5c8a:	2100      	movs	r1, #0
    5c8c:	4798      	blx	r3
			}
			return true;
    5c8e:	2301      	movs	r3, #1
    5c90:	e08b      	b.n	5daa <udd_ep_run+0x2c2>
		}
		return (STATUS_OK ==
				usb_device_endpoint_write_buffer_job(&usb_device,
    5c92:	69bb      	ldr	r3, [r7, #24]
    5c94:	685a      	ldr	r2, [r3, #4]
    5c96:	231e      	movs	r3, #30
    5c98:	18fb      	adds	r3, r7, r3
    5c9a:	881c      	ldrh	r4, [r3, #0]
    5c9c:	494c      	ldr	r1, [pc, #304]	; (5dd0 <udd_ep_run+0x2e8>)
    5c9e:	231d      	movs	r3, #29
    5ca0:	18fb      	adds	r3, r7, r3
    5ca2:	781b      	ldrb	r3, [r3, #0]
    5ca4:	1c08      	adds	r0, r1, #0
    5ca6:	1c19      	adds	r1, r3, #0
    5ca8:	1c23      	adds	r3, r4, #0
    5caa:	4c4a      	ldr	r4, [pc, #296]	; (5dd4 <udd_ep_run+0x2ec>)
    5cac:	47a0      	blx	r4
    5cae:	1c03      	adds	r3, r0, #0
			if (NULL != ptr_job->call_trans) {
				ptr_job->call_trans(UDD_EP_TRANSFER_OK, 0, ep);
			}
			return true;
		}
		return (STATUS_OK ==
    5cb0:	425a      	negs	r2, r3
    5cb2:	4153      	adcs	r3, r2
    5cb4:	b2db      	uxtb	r3, r3
    5cb6:	e078      	b.n	5daa <udd_ep_run+0x2c2>
				usb_device_endpoint_write_buffer_job(&usb_device,
						ep_num,&ptr_job->buf[0],next_trans));
	} else {
		if (0 != ptr_job->buf_size) {
    5cb8:	69bb      	ldr	r3, [r7, #24]
    5cba:	689b      	ldr	r3, [r3, #8]
    5cbc:	2b00      	cmp	r3, #0
    5cbe:	d062      	beq.n	5d86 <udd_ep_run+0x29e>
			next_trans = ptr_job->buf_size;
    5cc0:	69bb      	ldr	r3, [r7, #24]
    5cc2:	689a      	ldr	r2, [r3, #8]
    5cc4:	231e      	movs	r3, #30
    5cc6:	18fb      	adds	r3, r7, r3
    5cc8:	801a      	strh	r2, [r3, #0]
			if (UDD_ENDPOINT_MAX_TRANS < next_trans) {
    5cca:	231e      	movs	r3, #30
    5ccc:	18fb      	adds	r3, r7, r3
    5cce:	881b      	ldrh	r3, [r3, #0]
    5cd0:	4a3c      	ldr	r2, [pc, #240]	; (5dc4 <udd_ep_run+0x2dc>)
    5cd2:	4293      	cmp	r3, r2
    5cd4:	d90e      	bls.n	5cf4 <udd_ep_run+0x20c>
				/* The USB hardware support a maximum transfer size
				 * of UDD_ENDPOINT_MAX_TRANS Bytes */
				next_trans = UDD_ENDPOINT_MAX_TRANS -
						(UDD_ENDPOINT_MAX_TRANS % ptr_job->ep_size);
    5cd6:	69bb      	ldr	r3, [r7, #24]
    5cd8:	8a1b      	ldrh	r3, [r3, #16]
    5cda:	1c19      	adds	r1, r3, #0
    5cdc:	4a39      	ldr	r2, [pc, #228]	; (5dc4 <udd_ep_run+0x2dc>)
    5cde:	4b3a      	ldr	r3, [pc, #232]	; (5dc8 <udd_ep_run+0x2e0>)
    5ce0:	1c10      	adds	r0, r2, #0
    5ce2:	4798      	blx	r3
    5ce4:	1c0b      	adds	r3, r1, #0
		if (0 != ptr_job->buf_size) {
			next_trans = ptr_job->buf_size;
			if (UDD_ENDPOINT_MAX_TRANS < next_trans) {
				/* The USB hardware support a maximum transfer size
				 * of UDD_ENDPOINT_MAX_TRANS Bytes */
				next_trans = UDD_ENDPOINT_MAX_TRANS -
    5ce6:	b29a      	uxth	r2, r3
    5ce8:	231e      	movs	r3, #30
    5cea:	18fb      	adds	r3, r7, r3
    5cec:	4935      	ldr	r1, [pc, #212]	; (5dc4 <udd_ep_run+0x2dc>)
    5cee:	1a8a      	subs	r2, r1, r2
    5cf0:	801a      	strh	r2, [r3, #0]
    5cf2:	e011      	b.n	5d18 <udd_ep_run+0x230>
						(UDD_ENDPOINT_MAX_TRANS % ptr_job->ep_size);
			} else {
				next_trans -= next_trans % ptr_job->ep_size;
    5cf4:	69bb      	ldr	r3, [r7, #24]
    5cf6:	8a1a      	ldrh	r2, [r3, #16]
    5cf8:	231e      	movs	r3, #30
    5cfa:	18fb      	adds	r3, r7, r3
    5cfc:	8819      	ldrh	r1, [r3, #0]
    5cfe:	4b33      	ldr	r3, [pc, #204]	; (5dcc <udd_ep_run+0x2e4>)
    5d00:	1c08      	adds	r0, r1, #0
    5d02:	1c11      	adds	r1, r2, #0
    5d04:	4798      	blx	r3
    5d06:	1c0b      	adds	r3, r1, #0
    5d08:	b29a      	uxth	r2, r3
    5d0a:	231e      	movs	r3, #30
    5d0c:	18fb      	adds	r3, r7, r3
    5d0e:	211e      	movs	r1, #30
    5d10:	1879      	adds	r1, r7, r1
    5d12:	8809      	ldrh	r1, [r1, #0]
    5d14:	1a8a      	subs	r2, r1, r2
    5d16:	801a      	strh	r2, [r3, #0]
			}
			if (next_trans < ptr_job->ep_size) {
    5d18:	69bb      	ldr	r3, [r7, #24]
    5d1a:	8a1b      	ldrh	r3, [r3, #16]
    5d1c:	221e      	movs	r2, #30
    5d1e:	18ba      	adds	r2, r7, r2
    5d20:	8812      	ldrh	r2, [r2, #0]
    5d22:	429a      	cmp	r2, r3
    5d24:	d21c      	bcs.n	5d60 <udd_ep_run+0x278>
				ptr_job->b_use_out_cache_buffer = true;
    5d26:	69bb      	ldr	r3, [r7, #24]
    5d28:	7c9a      	ldrb	r2, [r3, #18]
    5d2a:	2104      	movs	r1, #4
    5d2c:	430a      	orrs	r2, r1
    5d2e:	749a      	strb	r2, [r3, #18]
				return (STATUS_OK ==
						usb_device_endpoint_read_buffer_job(&usb_device, ep_num,
								udd_ep_out_cache_buffer[ep_num - 1],
    5d30:	231d      	movs	r3, #29
    5d32:	18fb      	adds	r3, r7, r3
    5d34:	781b      	ldrb	r3, [r3, #0]
    5d36:	3b01      	subs	r3, #1
    5d38:	019a      	lsls	r2, r3, #6
    5d3a:	4b27      	ldr	r3, [pc, #156]	; (5dd8 <udd_ep_run+0x2f0>)
    5d3c:	18d2      	adds	r2, r2, r3
								ptr_job->ep_size));
    5d3e:	69bb      	ldr	r3, [r7, #24]
    5d40:	8a1b      	ldrh	r3, [r3, #16]
				next_trans -= next_trans % ptr_job->ep_size;
			}
			if (next_trans < ptr_job->ep_size) {
				ptr_job->b_use_out_cache_buffer = true;
				return (STATUS_OK ==
						usb_device_endpoint_read_buffer_job(&usb_device, ep_num,
    5d42:	1c1c      	adds	r4, r3, #0
    5d44:	4922      	ldr	r1, [pc, #136]	; (5dd0 <udd_ep_run+0x2e8>)
    5d46:	231d      	movs	r3, #29
    5d48:	18fb      	adds	r3, r7, r3
    5d4a:	781b      	ldrb	r3, [r3, #0]
    5d4c:	1c08      	adds	r0, r1, #0
    5d4e:	1c19      	adds	r1, r3, #0
    5d50:	1c23      	adds	r3, r4, #0
    5d52:	4c22      	ldr	r4, [pc, #136]	; (5ddc <udd_ep_run+0x2f4>)
    5d54:	47a0      	blx	r4
    5d56:	1c03      	adds	r3, r0, #0
			} else {
				next_trans -= next_trans % ptr_job->ep_size;
			}
			if (next_trans < ptr_job->ep_size) {
				ptr_job->b_use_out_cache_buffer = true;
				return (STATUS_OK ==
    5d58:	425a      	negs	r2, r3
    5d5a:	4153      	adcs	r3, r2
    5d5c:	b2db      	uxtb	r3, r3
    5d5e:	e024      	b.n	5daa <udd_ep_run+0x2c2>
						usb_device_endpoint_read_buffer_job(&usb_device, ep_num,
								udd_ep_out_cache_buffer[ep_num - 1],
								ptr_job->ep_size));
			} else {
				return (STATUS_OK ==
						usb_device_endpoint_read_buffer_job(&usb_device, ep_num,
    5d60:	69bb      	ldr	r3, [r7, #24]
    5d62:	685a      	ldr	r2, [r3, #4]
    5d64:	231e      	movs	r3, #30
    5d66:	18fb      	adds	r3, r7, r3
    5d68:	881c      	ldrh	r4, [r3, #0]
    5d6a:	4919      	ldr	r1, [pc, #100]	; (5dd0 <udd_ep_run+0x2e8>)
    5d6c:	231d      	movs	r3, #29
    5d6e:	18fb      	adds	r3, r7, r3
    5d70:	781b      	ldrb	r3, [r3, #0]
    5d72:	1c08      	adds	r0, r1, #0
    5d74:	1c19      	adds	r1, r3, #0
    5d76:	1c23      	adds	r3, r4, #0
    5d78:	4c18      	ldr	r4, [pc, #96]	; (5ddc <udd_ep_run+0x2f4>)
    5d7a:	47a0      	blx	r4
    5d7c:	1c03      	adds	r3, r0, #0
				return (STATUS_OK ==
						usb_device_endpoint_read_buffer_job(&usb_device, ep_num,
								udd_ep_out_cache_buffer[ep_num - 1],
								ptr_job->ep_size));
			} else {
				return (STATUS_OK ==
    5d7e:	425a      	negs	r2, r3
    5d80:	4153      	adcs	r3, r2
    5d82:	b2db      	uxtb	r3, r3
    5d84:	e011      	b.n	5daa <udd_ep_run+0x2c2>
						usb_device_endpoint_read_buffer_job(&usb_device, ep_num,
								&ptr_job->buf[0],next_trans));
			}
		} else {
			ptr_job->busy = false;
    5d86:	69bb      	ldr	r3, [r7, #24]
    5d88:	7c9a      	ldrb	r2, [r3, #18]
    5d8a:	2101      	movs	r1, #1
    5d8c:	438a      	bics	r2, r1
    5d8e:	749a      	strb	r2, [r3, #18]
			if (NULL != ptr_job->call_trans) {
    5d90:	69bb      	ldr	r3, [r7, #24]
    5d92:	681b      	ldr	r3, [r3, #0]
    5d94:	2b00      	cmp	r3, #0
    5d96:	d007      	beq.n	5da8 <udd_ep_run+0x2c0>
				ptr_job->call_trans(UDD_EP_TRANSFER_OK, 0, ep);
    5d98:	69bb      	ldr	r3, [r7, #24]
    5d9a:	681b      	ldr	r3, [r3, #0]
    5d9c:	220f      	movs	r2, #15
    5d9e:	18ba      	adds	r2, r7, r2
    5da0:	7812      	ldrb	r2, [r2, #0]
    5da2:	2000      	movs	r0, #0
    5da4:	2100      	movs	r1, #0
    5da6:	4798      	blx	r3
			}
			return true;
    5da8:	2301      	movs	r3, #1
		}
	}
}
    5daa:	1c18      	adds	r0, r3, #0
    5dac:	46bd      	mov	sp, r7
    5dae:	b009      	add	sp, #36	; 0x24
    5db0:	bd90      	pop	{r4, r7, pc}
    5db2:	46c0      	nop			; (mov r8, r8)
    5db4:	000059b9 	.word	0x000059b9
    5db8:	000052f1 	.word	0x000052f1
    5dbc:	00004f75 	.word	0x00004f75
    5dc0:	00004fbd 	.word	0x00004fbd
    5dc4:	00001fff 	.word	0x00001fff
    5dc8:	00008b41 	.word	0x00008b41
    5dcc:	00008961 	.word	0x00008961
    5dd0:	200002f4 	.word	0x200002f4
    5dd4:	000079c9 	.word	0x000079c9
    5dd8:	200002b4 	.word	0x200002b4
    5ddc:	00007a81 	.word	0x00007a81

00005de0 <udd_set_address>:

void udd_set_address(uint8_t address)
{
    5de0:	b580      	push	{r7, lr}
    5de2:	b082      	sub	sp, #8
    5de4:	af00      	add	r7, sp, #0
    5de6:	1c02      	adds	r2, r0, #0
    5de8:	1dfb      	adds	r3, r7, #7
    5dea:	701a      	strb	r2, [r3, #0]
	usb_device_set_address(&usb_device,address);
    5dec:	4a04      	ldr	r2, [pc, #16]	; (5e00 <udd_set_address+0x20>)
    5dee:	1dfb      	adds	r3, r7, #7
    5df0:	781b      	ldrb	r3, [r3, #0]
    5df2:	1c10      	adds	r0, r2, #0
    5df4:	1c19      	adds	r1, r3, #0
    5df6:	4b03      	ldr	r3, [pc, #12]	; (5e04 <udd_set_address+0x24>)
    5df8:	4798      	blx	r3
}
    5dfa:	46bd      	mov	sp, r7
    5dfc:	b002      	add	sp, #8
    5dfe:	bd80      	pop	{r7, pc}
    5e00:	200002f4 	.word	0x200002f4
    5e04:	000050b1 	.word	0x000050b1

00005e08 <udd_getaddress>:

uint8_t udd_getaddress(void)
{
    5e08:	b580      	push	{r7, lr}
    5e0a:	af00      	add	r7, sp, #0
	return usb_device_get_address(&usb_device);
    5e0c:	4b03      	ldr	r3, [pc, #12]	; (5e1c <udd_getaddress+0x14>)
    5e0e:	1c18      	adds	r0, r3, #0
    5e10:	4b03      	ldr	r3, [pc, #12]	; (5e20 <udd_getaddress+0x18>)
    5e12:	4798      	blx	r3
    5e14:	1c03      	adds	r3, r0, #0
}
    5e16:	1c18      	adds	r0, r3, #0
    5e18:	46bd      	mov	sp, r7
    5e1a:	bd80      	pop	{r7, pc}
    5e1c:	200002f4 	.word	0x200002f4
    5e20:	00005095 	.word	0x00005095

00005e24 <udd_set_setup_payload>:
		usb_device_send_remote_wake_up(&usb_device);
	}
}

void udd_set_setup_payload( uint8_t *payload, uint16_t payload_size )
{
    5e24:	b580      	push	{r7, lr}
    5e26:	b082      	sub	sp, #8
    5e28:	af00      	add	r7, sp, #0
    5e2a:	6078      	str	r0, [r7, #4]
    5e2c:	1c0a      	adds	r2, r1, #0
    5e2e:	1cbb      	adds	r3, r7, #2
    5e30:	801a      	strh	r2, [r3, #0]
	udd_g_ctrlreq.payload = payload;
    5e32:	4b05      	ldr	r3, [pc, #20]	; (5e48 <udd_set_setup_payload+0x24>)
    5e34:	687a      	ldr	r2, [r7, #4]
    5e36:	609a      	str	r2, [r3, #8]
	udd_g_ctrlreq.payload_size = payload_size;
    5e38:	4b03      	ldr	r3, [pc, #12]	; (5e48 <udd_set_setup_payload+0x24>)
    5e3a:	1cba      	adds	r2, r7, #2
    5e3c:	8812      	ldrh	r2, [r2, #0]
    5e3e:	819a      	strh	r2, [r3, #12]
}
    5e40:	46bd      	mov	sp, r7
    5e42:	b002      	add	sp, #8
    5e44:	bd80      	pop	{r7, pc}
    5e46:	46c0      	nop			; (mov r8, r8)
    5e48:	2000045c 	.word	0x2000045c

00005e4c <udd_ctrl_fetch_ram>:

/**
 * \brief Control Endpoint translate the data in buffer into Device Request Struct
 */
static void udd_ctrl_fetch_ram(void)
{
    5e4c:	b580      	push	{r7, lr}
    5e4e:	af00      	add	r7, sp, #0
	udd_g_ctrlreq.req.bmRequestType = udd_ctrl_buffer[0];
    5e50:	4b16      	ldr	r3, [pc, #88]	; (5eac <udd_ctrl_fetch_ram+0x60>)
    5e52:	781a      	ldrb	r2, [r3, #0]
    5e54:	4b16      	ldr	r3, [pc, #88]	; (5eb0 <udd_ctrl_fetch_ram+0x64>)
    5e56:	701a      	strb	r2, [r3, #0]
	udd_g_ctrlreq.req.bRequest = udd_ctrl_buffer[1];
    5e58:	4b14      	ldr	r3, [pc, #80]	; (5eac <udd_ctrl_fetch_ram+0x60>)
    5e5a:	785a      	ldrb	r2, [r3, #1]
    5e5c:	4b14      	ldr	r3, [pc, #80]	; (5eb0 <udd_ctrl_fetch_ram+0x64>)
    5e5e:	705a      	strb	r2, [r3, #1]
	udd_g_ctrlreq.req.wValue = ((uint16_t)(udd_ctrl_buffer[3]) << 8) + udd_ctrl_buffer[2];
    5e60:	4b12      	ldr	r3, [pc, #72]	; (5eac <udd_ctrl_fetch_ram+0x60>)
    5e62:	78db      	ldrb	r3, [r3, #3]
    5e64:	b29b      	uxth	r3, r3
    5e66:	021b      	lsls	r3, r3, #8
    5e68:	b29a      	uxth	r2, r3
    5e6a:	4b10      	ldr	r3, [pc, #64]	; (5eac <udd_ctrl_fetch_ram+0x60>)
    5e6c:	789b      	ldrb	r3, [r3, #2]
    5e6e:	b29b      	uxth	r3, r3
    5e70:	18d3      	adds	r3, r2, r3
    5e72:	b29a      	uxth	r2, r3
    5e74:	4b0e      	ldr	r3, [pc, #56]	; (5eb0 <udd_ctrl_fetch_ram+0x64>)
    5e76:	805a      	strh	r2, [r3, #2]
	udd_g_ctrlreq.req.wIndex = ((uint16_t)(udd_ctrl_buffer[5]) << 8) + udd_ctrl_buffer[4];
    5e78:	4b0c      	ldr	r3, [pc, #48]	; (5eac <udd_ctrl_fetch_ram+0x60>)
    5e7a:	795b      	ldrb	r3, [r3, #5]
    5e7c:	b29b      	uxth	r3, r3
    5e7e:	021b      	lsls	r3, r3, #8
    5e80:	b29a      	uxth	r2, r3
    5e82:	4b0a      	ldr	r3, [pc, #40]	; (5eac <udd_ctrl_fetch_ram+0x60>)
    5e84:	791b      	ldrb	r3, [r3, #4]
    5e86:	b29b      	uxth	r3, r3
    5e88:	18d3      	adds	r3, r2, r3
    5e8a:	b29a      	uxth	r2, r3
    5e8c:	4b08      	ldr	r3, [pc, #32]	; (5eb0 <udd_ctrl_fetch_ram+0x64>)
    5e8e:	809a      	strh	r2, [r3, #4]
	udd_g_ctrlreq.req.wLength = ((uint16_t)(udd_ctrl_buffer[7]) << 8) + udd_ctrl_buffer[6];
    5e90:	4b06      	ldr	r3, [pc, #24]	; (5eac <udd_ctrl_fetch_ram+0x60>)
    5e92:	79db      	ldrb	r3, [r3, #7]
    5e94:	b29b      	uxth	r3, r3
    5e96:	021b      	lsls	r3, r3, #8
    5e98:	b29a      	uxth	r2, r3
    5e9a:	4b04      	ldr	r3, [pc, #16]	; (5eac <udd_ctrl_fetch_ram+0x60>)
    5e9c:	799b      	ldrb	r3, [r3, #6]
    5e9e:	b29b      	uxth	r3, r3
    5ea0:	18d3      	adds	r3, r2, r3
    5ea2:	b29a      	uxth	r2, r3
    5ea4:	4b02      	ldr	r3, [pc, #8]	; (5eb0 <udd_ctrl_fetch_ram+0x64>)
    5ea6:	80da      	strh	r2, [r3, #6]
}
    5ea8:	46bd      	mov	sp, r7
    5eaa:	bd80      	pop	{r7, pc}
    5eac:	20000474 	.word	0x20000474
    5eb0:	2000045c 	.word	0x2000045c

00005eb4 <udd_ctrl_send_zlp_in>:

/**
 * \brief Control Endpoint send out zero length packet
 */
static void udd_ctrl_send_zlp_in(void)
{
    5eb4:	b598      	push	{r3, r4, r7, lr}
    5eb6:	af00      	add	r7, sp, #0
	udd_ep_control_state = UDD_EPCTRL_HANDSHAKE_WAIT_IN_ZLP;
    5eb8:	4b09      	ldr	r3, [pc, #36]	; (5ee0 <udd_ctrl_send_zlp_in+0x2c>)
    5eba:	2203      	movs	r2, #3
    5ebc:	701a      	strb	r2, [r3, #0]
	usb_device_endpoint_setup_buffer_job(&usb_device,udd_ctrl_buffer);
    5ebe:	4a09      	ldr	r2, [pc, #36]	; (5ee4 <udd_ctrl_send_zlp_in+0x30>)
    5ec0:	4b09      	ldr	r3, [pc, #36]	; (5ee8 <udd_ctrl_send_zlp_in+0x34>)
    5ec2:	1c10      	adds	r0, r2, #0
    5ec4:	1c19      	adds	r1, r3, #0
    5ec6:	4b09      	ldr	r3, [pc, #36]	; (5eec <udd_ctrl_send_zlp_in+0x38>)
    5ec8:	4798      	blx	r3
	usb_device_endpoint_write_buffer_job(&usb_device,0,udd_g_ctrlreq.payload,0);
    5eca:	4b09      	ldr	r3, [pc, #36]	; (5ef0 <udd_ctrl_send_zlp_in+0x3c>)
    5ecc:	689b      	ldr	r3, [r3, #8]
    5ece:	4a05      	ldr	r2, [pc, #20]	; (5ee4 <udd_ctrl_send_zlp_in+0x30>)
    5ed0:	1c10      	adds	r0, r2, #0
    5ed2:	2100      	movs	r1, #0
    5ed4:	1c1a      	adds	r2, r3, #0
    5ed6:	2300      	movs	r3, #0
    5ed8:	4c06      	ldr	r4, [pc, #24]	; (5ef4 <udd_ctrl_send_zlp_in+0x40>)
    5eda:	47a0      	blx	r4
}
    5edc:	46bd      	mov	sp, r7
    5ede:	bd98      	pop	{r3, r4, r7, pc}
    5ee0:	20000160 	.word	0x20000160
    5ee4:	200002f4 	.word	0x200002f4
    5ee8:	20000474 	.word	0x20000474
    5eec:	00007b2d 	.word	0x00007b2d
    5ef0:	2000045c 	.word	0x2000045c
    5ef4:	000079c9 	.word	0x000079c9

00005ef8 <udd_ctrl_in_sent>:

/**
 * \brief Process control endpoint IN transaction
 */
static void udd_ctrl_in_sent(void)
{
    5ef8:	b590      	push	{r4, r7, lr}
    5efa:	b083      	sub	sp, #12
    5efc:	af00      	add	r7, sp, #0
	static bool b_shortpacket = false;
	uint16_t nb_remain;

	nb_remain = udd_g_ctrlreq.payload_size - udd_ctrl_payload_nb_trans;
    5efe:	4b30      	ldr	r3, [pc, #192]	; (5fc0 <udd_ctrl_in_sent+0xc8>)
    5f00:	8999      	ldrh	r1, [r3, #12]
    5f02:	4b30      	ldr	r3, [pc, #192]	; (5fc4 <udd_ctrl_in_sent+0xcc>)
    5f04:	881a      	ldrh	r2, [r3, #0]
    5f06:	1dbb      	adds	r3, r7, #6
    5f08:	1a8a      	subs	r2, r1, r2
    5f0a:	801a      	strh	r2, [r3, #0]

	if (0 == nb_remain) {
    5f0c:	1dbb      	adds	r3, r7, #6
    5f0e:	881b      	ldrh	r3, [r3, #0]
    5f10:	2b00      	cmp	r3, #0
    5f12:	d130      	bne.n	5f76 <udd_ctrl_in_sent+0x7e>
		/* All content of current buffer payload are sent Update number of total data sending by previous payload buffer */
		udd_ctrl_prev_payload_nb_trans += udd_ctrl_payload_nb_trans;
    5f14:	4b2c      	ldr	r3, [pc, #176]	; (5fc8 <udd_ctrl_in_sent+0xd0>)
    5f16:	881a      	ldrh	r2, [r3, #0]
    5f18:	4b2a      	ldr	r3, [pc, #168]	; (5fc4 <udd_ctrl_in_sent+0xcc>)
    5f1a:	881b      	ldrh	r3, [r3, #0]
    5f1c:	18d3      	adds	r3, r2, r3
    5f1e:	b29a      	uxth	r2, r3
    5f20:	4b29      	ldr	r3, [pc, #164]	; (5fc8 <udd_ctrl_in_sent+0xd0>)
    5f22:	801a      	strh	r2, [r3, #0]
		if ((udd_g_ctrlreq.req.wLength == udd_ctrl_prev_payload_nb_trans) || b_shortpacket) {
    5f24:	4b26      	ldr	r3, [pc, #152]	; (5fc0 <udd_ctrl_in_sent+0xc8>)
    5f26:	88da      	ldrh	r2, [r3, #6]
    5f28:	4b27      	ldr	r3, [pc, #156]	; (5fc8 <udd_ctrl_in_sent+0xd0>)
    5f2a:	881b      	ldrh	r3, [r3, #0]
    5f2c:	429a      	cmp	r2, r3
    5f2e:	d003      	beq.n	5f38 <udd_ctrl_in_sent+0x40>
    5f30:	4b26      	ldr	r3, [pc, #152]	; (5fcc <udd_ctrl_in_sent+0xd4>)
    5f32:	781b      	ldrb	r3, [r3, #0]
    5f34:	2b00      	cmp	r3, #0
    5f36:	d009      	beq.n	5f4c <udd_ctrl_in_sent+0x54>
			/* All data requested are transferred or a short packet has been sent, then it is the end of data phase.
			 * Generate an OUT ZLP for handshake phase */
			udd_ep_control_state = UDD_EPCTRL_HANDSHAKE_WAIT_OUT_ZLP;
    5f38:	4b25      	ldr	r3, [pc, #148]	; (5fd0 <udd_ctrl_in_sent+0xd8>)
    5f3a:	2204      	movs	r2, #4
    5f3c:	701a      	strb	r2, [r3, #0]
			usb_device_endpoint_setup_buffer_job(&usb_device,udd_ctrl_buffer);
    5f3e:	4a25      	ldr	r2, [pc, #148]	; (5fd4 <udd_ctrl_in_sent+0xdc>)
    5f40:	4b25      	ldr	r3, [pc, #148]	; (5fd8 <udd_ctrl_in_sent+0xe0>)
    5f42:	1c10      	adds	r0, r2, #0
    5f44:	1c19      	adds	r1, r3, #0
    5f46:	4b25      	ldr	r3, [pc, #148]	; (5fdc <udd_ctrl_in_sent+0xe4>)
    5f48:	4798      	blx	r3
			return;
    5f4a:	e036      	b.n	5fba <udd_ctrl_in_sent+0xc2>
		}
		/* Need of new buffer because the data phase is not complete */
		if ((!udd_g_ctrlreq.over_under_run) || (!udd_g_ctrlreq.over_under_run())) {
    5f4c:	4b1c      	ldr	r3, [pc, #112]	; (5fc0 <udd_ctrl_in_sent+0xc8>)
    5f4e:	695b      	ldr	r3, [r3, #20]
    5f50:	2b00      	cmp	r3, #0
    5f52:	d010      	beq.n	5f76 <udd_ctrl_in_sent+0x7e>
    5f54:	4b1a      	ldr	r3, [pc, #104]	; (5fc0 <udd_ctrl_in_sent+0xc8>)
    5f56:	695b      	ldr	r3, [r3, #20]
    5f58:	4798      	blx	r3
    5f5a:	1c03      	adds	r3, r0, #0
    5f5c:	1c1a      	adds	r2, r3, #0
    5f5e:	2301      	movs	r3, #1
    5f60:	4053      	eors	r3, r2
    5f62:	b2db      	uxtb	r3, r3
    5f64:	2b00      	cmp	r3, #0
    5f66:	d106      	bne.n	5f76 <udd_ctrl_in_sent+0x7e>
			/* Under run then send zlp on IN
			 * Here nb_remain=0, this allows to send a IN ZLP */
		} else {
			/* A new payload buffer is given */
			udd_ctrl_payload_nb_trans = 0;
    5f68:	4b16      	ldr	r3, [pc, #88]	; (5fc4 <udd_ctrl_in_sent+0xcc>)
    5f6a:	2200      	movs	r2, #0
    5f6c:	801a      	strh	r2, [r3, #0]
			nb_remain = udd_g_ctrlreq.payload_size;
    5f6e:	1dbb      	adds	r3, r7, #6
    5f70:	4a13      	ldr	r2, [pc, #76]	; (5fc0 <udd_ctrl_in_sent+0xc8>)
    5f72:	8992      	ldrh	r2, [r2, #12]
    5f74:	801a      	strh	r2, [r3, #0]
		}
	}

	/* Continue transfer and send next data */
	if (nb_remain >= USB_DEVICE_EP_CTRL_SIZE) {
    5f76:	1dbb      	adds	r3, r7, #6
    5f78:	881b      	ldrh	r3, [r3, #0]
    5f7a:	2b07      	cmp	r3, #7
    5f7c:	d906      	bls.n	5f8c <udd_ctrl_in_sent+0x94>
		nb_remain = USB_DEVICE_EP_CTRL_SIZE;
    5f7e:	1dbb      	adds	r3, r7, #6
    5f80:	2208      	movs	r2, #8
    5f82:	801a      	strh	r2, [r3, #0]
		b_shortpacket = false;
    5f84:	4b11      	ldr	r3, [pc, #68]	; (5fcc <udd_ctrl_in_sent+0xd4>)
    5f86:	2200      	movs	r2, #0
    5f88:	701a      	strb	r2, [r3, #0]
    5f8a:	e002      	b.n	5f92 <udd_ctrl_in_sent+0x9a>
	} else {
		b_shortpacket = true;
    5f8c:	4b0f      	ldr	r3, [pc, #60]	; (5fcc <udd_ctrl_in_sent+0xd4>)
    5f8e:	2201      	movs	r2, #1
    5f90:	701a      	strb	r2, [r3, #0]
	}

	/* Link payload buffer directly on USB hardware */
	usb_device_endpoint_write_buffer_job(&usb_device,0,udd_g_ctrlreq.payload + udd_ctrl_payload_nb_trans,nb_remain);
    5f92:	4b0b      	ldr	r3, [pc, #44]	; (5fc0 <udd_ctrl_in_sent+0xc8>)
    5f94:	689b      	ldr	r3, [r3, #8]
    5f96:	4a0b      	ldr	r2, [pc, #44]	; (5fc4 <udd_ctrl_in_sent+0xcc>)
    5f98:	8812      	ldrh	r2, [r2, #0]
    5f9a:	189a      	adds	r2, r3, r2
    5f9c:	1dbb      	adds	r3, r7, #6
    5f9e:	881b      	ldrh	r3, [r3, #0]
    5fa0:	490c      	ldr	r1, [pc, #48]	; (5fd4 <udd_ctrl_in_sent+0xdc>)
    5fa2:	1c08      	adds	r0, r1, #0
    5fa4:	2100      	movs	r1, #0
    5fa6:	4c0e      	ldr	r4, [pc, #56]	; (5fe0 <udd_ctrl_in_sent+0xe8>)
    5fa8:	47a0      	blx	r4

	udd_ctrl_payload_nb_trans += nb_remain;
    5faa:	4b06      	ldr	r3, [pc, #24]	; (5fc4 <udd_ctrl_in_sent+0xcc>)
    5fac:	881a      	ldrh	r2, [r3, #0]
    5fae:	1dbb      	adds	r3, r7, #6
    5fb0:	881b      	ldrh	r3, [r3, #0]
    5fb2:	18d3      	adds	r3, r2, r3
    5fb4:	b29a      	uxth	r2, r3
    5fb6:	4b03      	ldr	r3, [pc, #12]	; (5fc4 <udd_ctrl_in_sent+0xcc>)
    5fb8:	801a      	strh	r2, [r3, #0]
}
    5fba:	46bd      	mov	sp, r7
    5fbc:	b003      	add	sp, #12
    5fbe:	bd90      	pop	{r4, r7, pc}
    5fc0:	2000045c 	.word	0x2000045c
    5fc4:	20000164 	.word	0x20000164
    5fc8:	20000162 	.word	0x20000162
    5fcc:	20000191 	.word	0x20000191
    5fd0:	20000160 	.word	0x20000160
    5fd4:	200002f4 	.word	0x200002f4
    5fd8:	20000474 	.word	0x20000474
    5fdc:	00007b2d 	.word	0x00007b2d
    5fe0:	000079c9 	.word	0x000079c9

00005fe4 <udd_ctrl_out_received>:
/**
 * \brief Process control endpoint OUT transaction
 * \param[in] pointer Pointer to the endpoint transfer status parameter struct from driver layer.
 */
static void udd_ctrl_out_received(void* pointer)
{
    5fe4:	b590      	push	{r4, r7, lr}
    5fe6:	b085      	sub	sp, #20
    5fe8:	af00      	add	r7, sp, #0
    5fea:	6078      	str	r0, [r7, #4]
	struct usb_endpoint_callback_parameter *ep_callback_para = (struct usb_endpoint_callback_parameter*)pointer;
    5fec:	687b      	ldr	r3, [r7, #4]
    5fee:	60bb      	str	r3, [r7, #8]

	uint16_t nb_data;
	nb_data = ep_callback_para->received_bytes; /* Read data received during OUT phase */
    5ff0:	230e      	movs	r3, #14
    5ff2:	18fb      	adds	r3, r7, r3
    5ff4:	68ba      	ldr	r2, [r7, #8]
    5ff6:	8812      	ldrh	r2, [r2, #0]
    5ff8:	801a      	strh	r2, [r3, #0]

	if (udd_g_ctrlreq.payload_size < (udd_ctrl_payload_nb_trans + nb_data)) {
    5ffa:	4b47      	ldr	r3, [pc, #284]	; (6118 <udd_ctrl_out_received+0x134>)
    5ffc:	899b      	ldrh	r3, [r3, #12]
    5ffe:	1c1a      	adds	r2, r3, #0
    6000:	4b46      	ldr	r3, [pc, #280]	; (611c <udd_ctrl_out_received+0x138>)
    6002:	881b      	ldrh	r3, [r3, #0]
    6004:	1c19      	adds	r1, r3, #0
    6006:	230e      	movs	r3, #14
    6008:	18fb      	adds	r3, r7, r3
    600a:	881b      	ldrh	r3, [r3, #0]
    600c:	18cb      	adds	r3, r1, r3
    600e:	429a      	cmp	r2, r3
    6010:	da07      	bge.n	6022 <udd_ctrl_out_received+0x3e>
		/* Payload buffer too small */
		nb_data = udd_g_ctrlreq.payload_size - udd_ctrl_payload_nb_trans;
    6012:	4b41      	ldr	r3, [pc, #260]	; (6118 <udd_ctrl_out_received+0x134>)
    6014:	8999      	ldrh	r1, [r3, #12]
    6016:	4b41      	ldr	r3, [pc, #260]	; (611c <udd_ctrl_out_received+0x138>)
    6018:	881a      	ldrh	r2, [r3, #0]
    601a:	230e      	movs	r3, #14
    601c:	18fb      	adds	r3, r7, r3
    601e:	1a8a      	subs	r2, r1, r2
    6020:	801a      	strh	r2, [r3, #0]
	}

	memcpy((uint8_t *) (udd_g_ctrlreq.payload + udd_ctrl_payload_nb_trans), udd_ctrl_buffer, nb_data);
    6022:	4b3d      	ldr	r3, [pc, #244]	; (6118 <udd_ctrl_out_received+0x134>)
    6024:	689b      	ldr	r3, [r3, #8]
    6026:	4a3d      	ldr	r2, [pc, #244]	; (611c <udd_ctrl_out_received+0x138>)
    6028:	8812      	ldrh	r2, [r2, #0]
    602a:	1899      	adds	r1, r3, r2
    602c:	230e      	movs	r3, #14
    602e:	18fb      	adds	r3, r7, r3
    6030:	881b      	ldrh	r3, [r3, #0]
    6032:	4a3b      	ldr	r2, [pc, #236]	; (6120 <udd_ctrl_out_received+0x13c>)
    6034:	1c08      	adds	r0, r1, #0
    6036:	1c11      	adds	r1, r2, #0
    6038:	1c1a      	adds	r2, r3, #0
    603a:	4b3a      	ldr	r3, [pc, #232]	; (6124 <udd_ctrl_out_received+0x140>)
    603c:	4798      	blx	r3
	udd_ctrl_payload_nb_trans += nb_data;
    603e:	4b37      	ldr	r3, [pc, #220]	; (611c <udd_ctrl_out_received+0x138>)
    6040:	881a      	ldrh	r2, [r3, #0]
    6042:	230e      	movs	r3, #14
    6044:	18fb      	adds	r3, r7, r3
    6046:	881b      	ldrh	r3, [r3, #0]
    6048:	18d3      	adds	r3, r2, r3
    604a:	b29a      	uxth	r2, r3
    604c:	4b33      	ldr	r3, [pc, #204]	; (611c <udd_ctrl_out_received+0x138>)
    604e:	801a      	strh	r2, [r3, #0]

	if ((USB_DEVICE_EP_CTRL_SIZE != nb_data) || \
    6050:	230e      	movs	r3, #14
    6052:	18fb      	adds	r3, r7, r3
    6054:	881b      	ldrh	r3, [r3, #0]
    6056:	2b08      	cmp	r3, #8
    6058:	d10a      	bne.n	6070 <udd_ctrl_out_received+0x8c>
	(udd_g_ctrlreq.req.wLength <= (udd_ctrl_prev_payload_nb_trans + udd_ctrl_payload_nb_trans))) {
    605a:	4b2f      	ldr	r3, [pc, #188]	; (6118 <udd_ctrl_out_received+0x134>)
    605c:	88db      	ldrh	r3, [r3, #6]
    605e:	1c1a      	adds	r2, r3, #0
    6060:	4b31      	ldr	r3, [pc, #196]	; (6128 <udd_ctrl_out_received+0x144>)
    6062:	881b      	ldrh	r3, [r3, #0]
    6064:	1c19      	adds	r1, r3, #0
    6066:	4b2d      	ldr	r3, [pc, #180]	; (611c <udd_ctrl_out_received+0x138>)
    6068:	881b      	ldrh	r3, [r3, #0]
    606a:	18cb      	adds	r3, r1, r3
	}

	memcpy((uint8_t *) (udd_g_ctrlreq.payload + udd_ctrl_payload_nb_trans), udd_ctrl_buffer, nb_data);
	udd_ctrl_payload_nb_trans += nb_data;

	if ((USB_DEVICE_EP_CTRL_SIZE != nb_data) || \
    606c:	429a      	cmp	r2, r3
    606e:	dc1b      	bgt.n	60a8 <udd_ctrl_out_received+0xc4>
		/* End of reception because it is a short packet
		 * or all data are transferred */

		/* Before send ZLP, call intermediate callback
		 * in case of data receive generate a stall */
		udd_g_ctrlreq.payload_size = udd_ctrl_payload_nb_trans;
    6070:	4b2a      	ldr	r3, [pc, #168]	; (611c <udd_ctrl_out_received+0x138>)
    6072:	881a      	ldrh	r2, [r3, #0]
    6074:	4b28      	ldr	r3, [pc, #160]	; (6118 <udd_ctrl_out_received+0x134>)
    6076:	819a      	strh	r2, [r3, #12]
		if (NULL != udd_g_ctrlreq.over_under_run) {
    6078:	4b27      	ldr	r3, [pc, #156]	; (6118 <udd_ctrl_out_received+0x134>)
    607a:	695b      	ldr	r3, [r3, #20]
    607c:	2b00      	cmp	r3, #0
    607e:	d010      	beq.n	60a2 <udd_ctrl_out_received+0xbe>
			if (!udd_g_ctrlreq.over_under_run()) {
    6080:	4b25      	ldr	r3, [pc, #148]	; (6118 <udd_ctrl_out_received+0x134>)
    6082:	695b      	ldr	r3, [r3, #20]
    6084:	4798      	blx	r3
    6086:	1c03      	adds	r3, r0, #0
    6088:	1c1a      	adds	r2, r3, #0
    608a:	2301      	movs	r3, #1
    608c:	4053      	eors	r3, r2
    608e:	b2db      	uxtb	r3, r3
    6090:	2b00      	cmp	r3, #0
    6092:	d006      	beq.n	60a2 <udd_ctrl_out_received+0xbe>
				/* Stall ZLP */
				udd_ep_control_state = UDD_EPCTRL_STALL_REQ;
    6094:	4b25      	ldr	r3, [pc, #148]	; (612c <udd_ctrl_out_received+0x148>)
    6096:	2205      	movs	r2, #5
    6098:	701a      	strb	r2, [r3, #0]
				/* Stall all packets on IN & OUT control endpoint */
				udd_ep_set_halt(0);
    609a:	2000      	movs	r0, #0
    609c:	4b24      	ldr	r3, [pc, #144]	; (6130 <udd_ctrl_out_received+0x14c>)
    609e:	4798      	blx	r3
				/* Ack reception of OUT to replace NAK by a STALL */
				return;
    60a0:	e037      	b.n	6112 <udd_ctrl_out_received+0x12e>
			}
		}
		/* Send IN ZLP to ACK setup request */
		udd_ctrl_send_zlp_in();
    60a2:	4b24      	ldr	r3, [pc, #144]	; (6134 <udd_ctrl_out_received+0x150>)
    60a4:	4798      	blx	r3
		return;
    60a6:	e034      	b.n	6112 <udd_ctrl_out_received+0x12e>
	}

	if (udd_g_ctrlreq.payload_size == udd_ctrl_payload_nb_trans) {
    60a8:	4b1b      	ldr	r3, [pc, #108]	; (6118 <udd_ctrl_out_received+0x134>)
    60aa:	899a      	ldrh	r2, [r3, #12]
    60ac:	4b1b      	ldr	r3, [pc, #108]	; (611c <udd_ctrl_out_received+0x138>)
    60ae:	881b      	ldrh	r3, [r3, #0]
    60b0:	429a      	cmp	r2, r3
    60b2:	d126      	bne.n	6102 <udd_ctrl_out_received+0x11e>
		/* Overrun then request a new payload buffer */
		if (!udd_g_ctrlreq.over_under_run) {
    60b4:	4b18      	ldr	r3, [pc, #96]	; (6118 <udd_ctrl_out_received+0x134>)
    60b6:	695b      	ldr	r3, [r3, #20]
    60b8:	2b00      	cmp	r3, #0
    60ba:	d106      	bne.n	60ca <udd_ctrl_out_received+0xe6>
			/* No callback available to request a new payload buffer
			 * Stall ZLP */
			udd_ep_control_state = UDD_EPCTRL_STALL_REQ;
    60bc:	4b1b      	ldr	r3, [pc, #108]	; (612c <udd_ctrl_out_received+0x148>)
    60be:	2205      	movs	r2, #5
    60c0:	701a      	strb	r2, [r3, #0]
			/* Stall all packets on IN & OUT control endpoint */
			udd_ep_set_halt(0);
    60c2:	2000      	movs	r0, #0
    60c4:	4b1a      	ldr	r3, [pc, #104]	; (6130 <udd_ctrl_out_received+0x14c>)
    60c6:	4798      	blx	r3
			return;
    60c8:	e023      	b.n	6112 <udd_ctrl_out_received+0x12e>
		}
		if (!udd_g_ctrlreq.over_under_run()) {
    60ca:	4b13      	ldr	r3, [pc, #76]	; (6118 <udd_ctrl_out_received+0x134>)
    60cc:	695b      	ldr	r3, [r3, #20]
    60ce:	4798      	blx	r3
    60d0:	1c03      	adds	r3, r0, #0
    60d2:	1c1a      	adds	r2, r3, #0
    60d4:	2301      	movs	r3, #1
    60d6:	4053      	eors	r3, r2
    60d8:	b2db      	uxtb	r3, r3
    60da:	2b00      	cmp	r3, #0
    60dc:	d006      	beq.n	60ec <udd_ctrl_out_received+0x108>
			/* No new payload buffer delivered
			 * Stall ZLP */
			udd_ep_control_state = UDD_EPCTRL_STALL_REQ;
    60de:	4b13      	ldr	r3, [pc, #76]	; (612c <udd_ctrl_out_received+0x148>)
    60e0:	2205      	movs	r2, #5
    60e2:	701a      	strb	r2, [r3, #0]
			/* Stall all packets on IN & OUT control endpoint */
			udd_ep_set_halt(0);
    60e4:	2000      	movs	r0, #0
    60e6:	4b12      	ldr	r3, [pc, #72]	; (6130 <udd_ctrl_out_received+0x14c>)
    60e8:	4798      	blx	r3
			return;
    60ea:	e012      	b.n	6112 <udd_ctrl_out_received+0x12e>
		}
		/* New payload buffer available
		 * Update number of total data received */
		udd_ctrl_prev_payload_nb_trans += udd_ctrl_payload_nb_trans;
    60ec:	4b0e      	ldr	r3, [pc, #56]	; (6128 <udd_ctrl_out_received+0x144>)
    60ee:	881a      	ldrh	r2, [r3, #0]
    60f0:	4b0a      	ldr	r3, [pc, #40]	; (611c <udd_ctrl_out_received+0x138>)
    60f2:	881b      	ldrh	r3, [r3, #0]
    60f4:	18d3      	adds	r3, r2, r3
    60f6:	b29a      	uxth	r2, r3
    60f8:	4b0b      	ldr	r3, [pc, #44]	; (6128 <udd_ctrl_out_received+0x144>)
    60fa:	801a      	strh	r2, [r3, #0]

		/* Reinitialize reception on payload buffer */
		udd_ctrl_payload_nb_trans = 0;
    60fc:	4b07      	ldr	r3, [pc, #28]	; (611c <udd_ctrl_out_received+0x138>)
    60fe:	2200      	movs	r2, #0
    6100:	801a      	strh	r2, [r3, #0]
	}
	usb_device_endpoint_read_buffer_job(&usb_device,0,udd_ctrl_buffer,USB_DEVICE_EP_CTRL_SIZE);
    6102:	4a0d      	ldr	r2, [pc, #52]	; (6138 <udd_ctrl_out_received+0x154>)
    6104:	4b06      	ldr	r3, [pc, #24]	; (6120 <udd_ctrl_out_received+0x13c>)
    6106:	1c10      	adds	r0, r2, #0
    6108:	2100      	movs	r1, #0
    610a:	1c1a      	adds	r2, r3, #0
    610c:	2308      	movs	r3, #8
    610e:	4c0b      	ldr	r4, [pc, #44]	; (613c <udd_ctrl_out_received+0x158>)
    6110:	47a0      	blx	r4
}
    6112:	46bd      	mov	sp, r7
    6114:	b005      	add	sp, #20
    6116:	bd90      	pop	{r4, r7, pc}
    6118:	2000045c 	.word	0x2000045c
    611c:	20000164 	.word	0x20000164
    6120:	20000474 	.word	0x20000474
    6124:	00008be5 	.word	0x00008be5
    6128:	20000162 	.word	0x20000162
    612c:	20000160 	.word	0x20000160
    6130:	000059e5 	.word	0x000059e5
    6134:	00005eb5 	.word	0x00005eb5
    6138:	200002f4 	.word	0x200002f4
    613c:	00007a81 	.word	0x00007a81

00006140 <_usb_ep0_on_setup>:
 * \brief     Endpoint 0 (control) SETUP received callback
 * \param[in] module_inst pointer to USB module instance
 * \param[in] pointer Pointer to the endpoint transfer status parameter struct from driver layer.
 */
static void _usb_ep0_on_setup(struct usb_module *module_inst, void* pointer)
{
    6140:	b590      	push	{r4, r7, lr}
    6142:	b085      	sub	sp, #20
    6144:	af00      	add	r7, sp, #0
    6146:	6078      	str	r0, [r7, #4]
    6148:	6039      	str	r1, [r7, #0]
	struct usb_endpoint_callback_parameter *ep_callback_para = (struct usb_endpoint_callback_parameter*)pointer;
    614a:	683b      	ldr	r3, [r7, #0]
    614c:	60fb      	str	r3, [r7, #12]

	if (UDD_EPCTRL_SETUP != udd_ep_control_state) {
    614e:	4b2c      	ldr	r3, [pc, #176]	; (6200 <_usb_ep0_on_setup+0xc0>)
    6150:	781b      	ldrb	r3, [r3, #0]
    6152:	2b00      	cmp	r3, #0
    6154:	d009      	beq.n	616a <_usb_ep0_on_setup+0x2a>
		if (NULL != udd_g_ctrlreq.callback) {
    6156:	4b2b      	ldr	r3, [pc, #172]	; (6204 <_usb_ep0_on_setup+0xc4>)
    6158:	691b      	ldr	r3, [r3, #16]
    615a:	2b00      	cmp	r3, #0
    615c:	d002      	beq.n	6164 <_usb_ep0_on_setup+0x24>
			udd_g_ctrlreq.callback();
    615e:	4b29      	ldr	r3, [pc, #164]	; (6204 <_usb_ep0_on_setup+0xc4>)
    6160:	691b      	ldr	r3, [r3, #16]
    6162:	4798      	blx	r3
		}
		udd_ep_control_state = UDD_EPCTRL_SETUP;
    6164:	4b26      	ldr	r3, [pc, #152]	; (6200 <_usb_ep0_on_setup+0xc0>)
    6166:	2200      	movs	r2, #0
    6168:	701a      	strb	r2, [r3, #0]
	}
	if ( 8 != ep_callback_para->received_bytes) {
    616a:	68fb      	ldr	r3, [r7, #12]
    616c:	881b      	ldrh	r3, [r3, #0]
    616e:	2b08      	cmp	r3, #8
    6170:	d002      	beq.n	6178 <_usb_ep0_on_setup+0x38>
		udd_ctrl_stall_data();
    6172:	4b25      	ldr	r3, [pc, #148]	; (6208 <_usb_ep0_on_setup+0xc8>)
    6174:	4798      	blx	r3
		return;
    6176:	e03f      	b.n	61f8 <_usb_ep0_on_setup+0xb8>
	} else {
		udd_ctrl_fetch_ram();
    6178:	4b24      	ldr	r3, [pc, #144]	; (620c <_usb_ep0_on_setup+0xcc>)
    617a:	4798      	blx	r3
		if (false == udc_process_setup()) {
    617c:	4b24      	ldr	r3, [pc, #144]	; (6210 <_usb_ep0_on_setup+0xd0>)
    617e:	4798      	blx	r3
    6180:	1c03      	adds	r3, r0, #0
    6182:	1c1a      	adds	r2, r3, #0
    6184:	2301      	movs	r3, #1
    6186:	4053      	eors	r3, r2
    6188:	b2db      	uxtb	r3, r3
    618a:	2b00      	cmp	r3, #0
    618c:	d002      	beq.n	6194 <_usb_ep0_on_setup+0x54>
			udd_ctrl_stall_data();
    618e:	4b1e      	ldr	r3, [pc, #120]	; (6208 <_usb_ep0_on_setup+0xc8>)
    6190:	4798      	blx	r3
			return;
    6192:	e031      	b.n	61f8 <_usb_ep0_on_setup+0xb8>
		} else if (Udd_setup_is_in()) {
    6194:	4b1b      	ldr	r3, [pc, #108]	; (6204 <_usb_ep0_on_setup+0xc4>)
    6196:	781b      	ldrb	r3, [r3, #0]
    6198:	b2db      	uxtb	r3, r3
    619a:	b25b      	sxtb	r3, r3
    619c:	2b00      	cmp	r3, #0
    619e:	da13      	bge.n	61c8 <_usb_ep0_on_setup+0x88>
			udd_ctrl_prev_payload_nb_trans = 0;
    61a0:	4b1c      	ldr	r3, [pc, #112]	; (6214 <_usb_ep0_on_setup+0xd4>)
    61a2:	2200      	movs	r2, #0
    61a4:	801a      	strh	r2, [r3, #0]
			udd_ctrl_payload_nb_trans = 0;
    61a6:	4b1c      	ldr	r3, [pc, #112]	; (6218 <_usb_ep0_on_setup+0xd8>)
    61a8:	2200      	movs	r2, #0
    61aa:	801a      	strh	r2, [r3, #0]
			udd_ep_control_state = UDD_EPCTRL_DATA_IN;
    61ac:	4b14      	ldr	r3, [pc, #80]	; (6200 <_usb_ep0_on_setup+0xc0>)
    61ae:	2202      	movs	r2, #2
    61b0:	701a      	strb	r2, [r3, #0]
			usb_device_endpoint_read_buffer_job(&usb_device,0,udd_ctrl_buffer,USB_DEVICE_EP_CTRL_SIZE);
    61b2:	4a1a      	ldr	r2, [pc, #104]	; (621c <_usb_ep0_on_setup+0xdc>)
    61b4:	4b1a      	ldr	r3, [pc, #104]	; (6220 <_usb_ep0_on_setup+0xe0>)
    61b6:	1c10      	adds	r0, r2, #0
    61b8:	2100      	movs	r1, #0
    61ba:	1c1a      	adds	r2, r3, #0
    61bc:	2308      	movs	r3, #8
    61be:	4c19      	ldr	r4, [pc, #100]	; (6224 <_usb_ep0_on_setup+0xe4>)
    61c0:	47a0      	blx	r4
			udd_ctrl_in_sent();
    61c2:	4b19      	ldr	r3, [pc, #100]	; (6228 <_usb_ep0_on_setup+0xe8>)
    61c4:	4798      	blx	r3
    61c6:	e017      	b.n	61f8 <_usb_ep0_on_setup+0xb8>
		} else {
			if(0 == udd_g_ctrlreq.req.wLength) {
    61c8:	4b0e      	ldr	r3, [pc, #56]	; (6204 <_usb_ep0_on_setup+0xc4>)
    61ca:	88db      	ldrh	r3, [r3, #6]
    61cc:	2b00      	cmp	r3, #0
    61ce:	d102      	bne.n	61d6 <_usb_ep0_on_setup+0x96>
				udd_ctrl_send_zlp_in();
    61d0:	4b16      	ldr	r3, [pc, #88]	; (622c <_usb_ep0_on_setup+0xec>)
    61d2:	4798      	blx	r3
				return;
    61d4:	e010      	b.n	61f8 <_usb_ep0_on_setup+0xb8>
			} else {
				udd_ctrl_prev_payload_nb_trans = 0;
    61d6:	4b0f      	ldr	r3, [pc, #60]	; (6214 <_usb_ep0_on_setup+0xd4>)
    61d8:	2200      	movs	r2, #0
    61da:	801a      	strh	r2, [r3, #0]
				udd_ctrl_payload_nb_trans = 0;
    61dc:	4b0e      	ldr	r3, [pc, #56]	; (6218 <_usb_ep0_on_setup+0xd8>)
    61de:	2200      	movs	r2, #0
    61e0:	801a      	strh	r2, [r3, #0]
				udd_ep_control_state = UDD_EPCTRL_DATA_OUT;
    61e2:	4b07      	ldr	r3, [pc, #28]	; (6200 <_usb_ep0_on_setup+0xc0>)
    61e4:	2201      	movs	r2, #1
    61e6:	701a      	strb	r2, [r3, #0]
				/* Initialize buffer size and enable OUT bank */
				usb_device_endpoint_read_buffer_job(&usb_device,0,udd_ctrl_buffer,USB_DEVICE_EP_CTRL_SIZE);
    61e8:	4a0c      	ldr	r2, [pc, #48]	; (621c <_usb_ep0_on_setup+0xdc>)
    61ea:	4b0d      	ldr	r3, [pc, #52]	; (6220 <_usb_ep0_on_setup+0xe0>)
    61ec:	1c10      	adds	r0, r2, #0
    61ee:	2100      	movs	r1, #0
    61f0:	1c1a      	adds	r2, r3, #0
    61f2:	2308      	movs	r3, #8
    61f4:	4c0b      	ldr	r4, [pc, #44]	; (6224 <_usb_ep0_on_setup+0xe4>)
    61f6:	47a0      	blx	r4
			}
		}
	}
}
    61f8:	46bd      	mov	sp, r7
    61fa:	b005      	add	sp, #20
    61fc:	bd90      	pop	{r4, r7, pc}
    61fe:	46c0      	nop			; (mov r8, r8)
    6200:	20000160 	.word	0x20000160
    6204:	2000045c 	.word	0x2000045c
    6208:	00005ab5 	.word	0x00005ab5
    620c:	00005e4d 	.word	0x00005e4d
    6210:	000038d1 	.word	0x000038d1
    6214:	20000162 	.word	0x20000162
    6218:	20000164 	.word	0x20000164
    621c:	200002f4 	.word	0x200002f4
    6220:	20000474 	.word	0x20000474
    6224:	00007a81 	.word	0x00007a81
    6228:	00005ef9 	.word	0x00005ef9
    622c:	00005eb5 	.word	0x00005eb5

00006230 <udd_ctrl_underflow>:
/**
 * \brief Control Endpoint Process when underflow condition has occurred
 * \param[in] pointer Pointer to the endpoint transfer status parameter struct from driver layer.
 */
static void udd_ctrl_underflow(void* pointer)
{
    6230:	b580      	push	{r7, lr}
    6232:	b084      	sub	sp, #16
    6234:	af00      	add	r7, sp, #0
    6236:	6078      	str	r0, [r7, #4]
	struct usb_endpoint_callback_parameter *ep_callback_para = (struct usb_endpoint_callback_parameter*)pointer;
    6238:	687b      	ldr	r3, [r7, #4]
    623a:	60fb      	str	r3, [r7, #12]

	if (UDD_EPCTRL_DATA_OUT == udd_ep_control_state) {
    623c:	4b0a      	ldr	r3, [pc, #40]	; (6268 <udd_ctrl_underflow+0x38>)
    623e:	781b      	ldrb	r3, [r3, #0]
    6240:	2b01      	cmp	r3, #1
    6242:	d102      	bne.n	624a <udd_ctrl_underflow+0x1a>
		/* Host want to stop OUT transaction
		 * then stop to wait OUT data phase and wait IN ZLP handshake */
		udd_ctrl_send_zlp_in();
    6244:	4b09      	ldr	r3, [pc, #36]	; (626c <udd_ctrl_underflow+0x3c>)
    6246:	4798      	blx	r3
    6248:	e00a      	b.n	6260 <udd_ctrl_underflow+0x30>
	} else if (UDD_EPCTRL_HANDSHAKE_WAIT_OUT_ZLP == udd_ep_control_state) {
    624a:	4b07      	ldr	r3, [pc, #28]	; (6268 <udd_ctrl_underflow+0x38>)
    624c:	781b      	ldrb	r3, [r3, #0]
    624e:	2b04      	cmp	r3, #4
    6250:	d106      	bne.n	6260 <udd_ctrl_underflow+0x30>
		/* A OUT handshake is waiting by device,
		 * but host want extra IN data then stall extra IN data */
		usb_device_endpoint_set_halt(&usb_device, ep_callback_para->endpoint_address);
    6252:	68fb      	ldr	r3, [r7, #12]
    6254:	799b      	ldrb	r3, [r3, #6]
    6256:	4a06      	ldr	r2, [pc, #24]	; (6270 <udd_ctrl_underflow+0x40>)
    6258:	1c10      	adds	r0, r2, #0
    625a:	1c19      	adds	r1, r3, #0
    625c:	4b05      	ldr	r3, [pc, #20]	; (6274 <udd_ctrl_underflow+0x44>)
    625e:	4798      	blx	r3
	}
}
    6260:	46bd      	mov	sp, r7
    6262:	b004      	add	sp, #16
    6264:	bd80      	pop	{r7, pc}
    6266:	46c0      	nop			; (mov r8, r8)
    6268:	20000160 	.word	0x20000160
    626c:	00005eb5 	.word	0x00005eb5
    6270:	200002f4 	.word	0x200002f4
    6274:	00007859 	.word	0x00007859

00006278 <udd_ctrl_overflow>:
/**
 * \brief Control Endpoint Process when overflow condition has occurred
 * \param[in] pointer Pointer to the endpoint transfer status parameter struct from driver layer.
 */
static void udd_ctrl_overflow(void* pointer)
{
    6278:	b580      	push	{r7, lr}
    627a:	b084      	sub	sp, #16
    627c:	af00      	add	r7, sp, #0
    627e:	6078      	str	r0, [r7, #4]
	struct usb_endpoint_callback_parameter *ep_callback_para = (struct usb_endpoint_callback_parameter*)pointer;
    6280:	687b      	ldr	r3, [r7, #4]
    6282:	60fb      	str	r3, [r7, #12]

	if (UDD_EPCTRL_DATA_IN == udd_ep_control_state) {
    6284:	4b0a      	ldr	r3, [pc, #40]	; (62b0 <udd_ctrl_overflow+0x38>)
    6286:	781b      	ldrb	r3, [r3, #0]
    6288:	2b02      	cmp	r3, #2
    628a:	d103      	bne.n	6294 <udd_ctrl_overflow+0x1c>
		/* Host want to stop IN transaction
		 * then stop to wait IN data phase and wait OUT ZLP handshake */
		udd_ep_control_state = UDD_EPCTRL_HANDSHAKE_WAIT_OUT_ZLP;
    628c:	4b08      	ldr	r3, [pc, #32]	; (62b0 <udd_ctrl_overflow+0x38>)
    628e:	2204      	movs	r2, #4
    6290:	701a      	strb	r2, [r3, #0]
    6292:	e00a      	b.n	62aa <udd_ctrl_overflow+0x32>
	} else if (UDD_EPCTRL_HANDSHAKE_WAIT_IN_ZLP == udd_ep_control_state) {
    6294:	4b06      	ldr	r3, [pc, #24]	; (62b0 <udd_ctrl_overflow+0x38>)
    6296:	781b      	ldrb	r3, [r3, #0]
    6298:	2b03      	cmp	r3, #3
    629a:	d106      	bne.n	62aa <udd_ctrl_overflow+0x32>
		/* A IN handshake is waiting by device,
		 * but host want extra OUT data then stall extra OUT data and following status stage */
		usb_device_endpoint_set_halt(&usb_device, ep_callback_para->endpoint_address);
    629c:	68fb      	ldr	r3, [r7, #12]
    629e:	799b      	ldrb	r3, [r3, #6]
    62a0:	4a04      	ldr	r2, [pc, #16]	; (62b4 <udd_ctrl_overflow+0x3c>)
    62a2:	1c10      	adds	r0, r2, #0
    62a4:	1c19      	adds	r1, r3, #0
    62a6:	4b04      	ldr	r3, [pc, #16]	; (62b8 <udd_ctrl_overflow+0x40>)
    62a8:	4798      	blx	r3
	}
}
    62aa:	46bd      	mov	sp, r7
    62ac:	b004      	add	sp, #16
    62ae:	bd80      	pop	{r7, pc}
    62b0:	20000160 	.word	0x20000160
    62b4:	200002f4 	.word	0x200002f4
    62b8:	00007859 	.word	0x00007859

000062bc <_usb_ep0_on_tansfer_fail>:
 * \brief Control endpoint transfer fail callback function
 * \param[in] module_inst Pointer to USB module instance
 * \param[in] pointer Pointer to the endpoint transfer status parameter struct from driver layer.
 */
static void _usb_ep0_on_tansfer_fail(struct usb_module *module_inst, void* pointer)
{
    62bc:	b580      	push	{r7, lr}
    62be:	b084      	sub	sp, #16
    62c0:	af00      	add	r7, sp, #0
    62c2:	6078      	str	r0, [r7, #4]
    62c4:	6039      	str	r1, [r7, #0]
	struct usb_endpoint_callback_parameter *ep_callback_para = (struct usb_endpoint_callback_parameter*)pointer;
    62c6:	683b      	ldr	r3, [r7, #0]
    62c8:	60fb      	str	r3, [r7, #12]

	if(ep_callback_para->endpoint_address & USB_EP_DIR_IN) {
    62ca:	68fb      	ldr	r3, [r7, #12]
    62cc:	799b      	ldrb	r3, [r3, #6]
    62ce:	b2db      	uxtb	r3, r3
    62d0:	b25b      	sxtb	r3, r3
    62d2:	2b00      	cmp	r3, #0
    62d4:	da04      	bge.n	62e0 <_usb_ep0_on_tansfer_fail+0x24>
		udd_ctrl_underflow(pointer);
    62d6:	683b      	ldr	r3, [r7, #0]
    62d8:	1c18      	adds	r0, r3, #0
    62da:	4b05      	ldr	r3, [pc, #20]	; (62f0 <_usb_ep0_on_tansfer_fail+0x34>)
    62dc:	4798      	blx	r3
    62de:	e003      	b.n	62e8 <_usb_ep0_on_tansfer_fail+0x2c>
	} else {
		udd_ctrl_overflow(pointer);
    62e0:	683b      	ldr	r3, [r7, #0]
    62e2:	1c18      	adds	r0, r3, #0
    62e4:	4b03      	ldr	r3, [pc, #12]	; (62f4 <_usb_ep0_on_tansfer_fail+0x38>)
    62e6:	4798      	blx	r3
	}
}
    62e8:	46bd      	mov	sp, r7
    62ea:	b004      	add	sp, #16
    62ec:	bd80      	pop	{r7, pc}
    62ee:	46c0      	nop			; (mov r8, r8)
    62f0:	00006231 	.word	0x00006231
    62f4:	00006279 	.word	0x00006279

000062f8 <_usb_ep0_on_tansfer_ok>:
 * \brief Control endpoint transfer complete callback function
 * \param[in] module_inst Pointer to USB module instance
 * \param[in] pointer Pointer to the endpoint transfer status parameter struct from driver layer.
 */
static void _usb_ep0_on_tansfer_ok(struct usb_module *module_inst, void * pointer)
{
    62f8:	b580      	push	{r7, lr}
    62fa:	b082      	sub	sp, #8
    62fc:	af00      	add	r7, sp, #0
    62fe:	6078      	str	r0, [r7, #4]
    6300:	6039      	str	r1, [r7, #0]
		if (UDD_EPCTRL_DATA_OUT  == udd_ep_control_state) { /* handshake Out for status stage */
    6302:	4b0e      	ldr	r3, [pc, #56]	; (633c <_usb_ep0_on_tansfer_ok+0x44>)
    6304:	781b      	ldrb	r3, [r3, #0]
    6306:	2b01      	cmp	r3, #1
    6308:	d104      	bne.n	6314 <_usb_ep0_on_tansfer_ok+0x1c>
			udd_ctrl_out_received(pointer);
    630a:	683b      	ldr	r3, [r7, #0]
    630c:	1c18      	adds	r0, r3, #0
    630e:	4b0c      	ldr	r3, [pc, #48]	; (6340 <_usb_ep0_on_tansfer_ok+0x48>)
    6310:	4798      	blx	r3
    6312:	e010      	b.n	6336 <_usb_ep0_on_tansfer_ok+0x3e>
		} else if (UDD_EPCTRL_DATA_IN == udd_ep_control_state) { /* handshake In for status stage */
    6314:	4b09      	ldr	r3, [pc, #36]	; (633c <_usb_ep0_on_tansfer_ok+0x44>)
    6316:	781b      	ldrb	r3, [r3, #0]
    6318:	2b02      	cmp	r3, #2
    631a:	d102      	bne.n	6322 <_usb_ep0_on_tansfer_ok+0x2a>
			udd_ctrl_in_sent();
    631c:	4b09      	ldr	r3, [pc, #36]	; (6344 <_usb_ep0_on_tansfer_ok+0x4c>)
    631e:	4798      	blx	r3
    6320:	e009      	b.n	6336 <_usb_ep0_on_tansfer_ok+0x3e>
		} else {
			if (NULL != udd_g_ctrlreq.callback) {
    6322:	4b09      	ldr	r3, [pc, #36]	; (6348 <_usb_ep0_on_tansfer_ok+0x50>)
    6324:	691b      	ldr	r3, [r3, #16]
    6326:	2b00      	cmp	r3, #0
    6328:	d002      	beq.n	6330 <_usb_ep0_on_tansfer_ok+0x38>
				udd_g_ctrlreq.callback();
    632a:	4b07      	ldr	r3, [pc, #28]	; (6348 <_usb_ep0_on_tansfer_ok+0x50>)
    632c:	691b      	ldr	r3, [r3, #16]
    632e:	4798      	blx	r3
			}
			udd_ep_control_state = UDD_EPCTRL_SETUP;
    6330:	4b02      	ldr	r3, [pc, #8]	; (633c <_usb_ep0_on_tansfer_ok+0x44>)
    6332:	2200      	movs	r2, #0
    6334:	701a      	strb	r2, [r3, #0]
		}
}
    6336:	46bd      	mov	sp, r7
    6338:	b002      	add	sp, #8
    633a:	bd80      	pop	{r7, pc}
    633c:	20000160 	.word	0x20000160
    6340:	00005fe5 	.word	0x00005fe5
    6344:	00005ef9 	.word	0x00005ef9
    6348:	2000045c 	.word	0x2000045c

0000634c <udd_ctrl_ep_enable>:
/**
 * \brief Enable Control Endpoint
 * \param[in] module_inst Pointer to USB module instance
 */
static void udd_ctrl_ep_enable(struct usb_module *module_inst)
{
    634c:	b590      	push	{r4, r7, lr}
    634e:	b085      	sub	sp, #20
    6350:	af00      	add	r7, sp, #0
    6352:	6078      	str	r0, [r7, #4]
	/* USB Device Endpoint0 Configuration */
	 struct usb_device_endpoint_config config_ep0;

	 usb_device_endpoint_get_config_defaults(&config_ep0);
    6354:	230c      	movs	r3, #12
    6356:	18fb      	adds	r3, r7, r3
    6358:	1c18      	adds	r0, r3, #0
    635a:	4b22      	ldr	r3, [pc, #136]	; (63e4 <udd_ctrl_ep_enable+0x98>)
    635c:	4798      	blx	r3
	 config_ep0.ep_size = (enum usb_endpoint_size)(32 - clz(((uint32_t)Min(Max(USB_DEVICE_EP_CTRL_SIZE, 8), 1024) << 1) - 1) - 1 - 3);
    635e:	230c      	movs	r3, #12
    6360:	18fb      	adds	r3, r7, r3
    6362:	2200      	movs	r2, #0
    6364:	705a      	strb	r2, [r3, #1]
	 usb_device_endpoint_set_config(module_inst,&config_ep0);
    6366:	687a      	ldr	r2, [r7, #4]
    6368:	230c      	movs	r3, #12
    636a:	18fb      	adds	r3, r7, r3
    636c:	1c10      	adds	r0, r2, #0
    636e:	1c19      	adds	r1, r3, #0
    6370:	4b1d      	ldr	r3, [pc, #116]	; (63e8 <udd_ctrl_ep_enable+0x9c>)
    6372:	4798      	blx	r3

	 usb_device_endpoint_setup_buffer_job(module_inst,udd_ctrl_buffer);
    6374:	687a      	ldr	r2, [r7, #4]
    6376:	4b1d      	ldr	r3, [pc, #116]	; (63ec <udd_ctrl_ep_enable+0xa0>)
    6378:	1c10      	adds	r0, r2, #0
    637a:	1c19      	adds	r1, r3, #0
    637c:	4b1c      	ldr	r3, [pc, #112]	; (63f0 <udd_ctrl_ep_enable+0xa4>)
    637e:	4798      	blx	r3

	 usb_device_endpoint_register_callback(module_inst,0,USB_DEVICE_ENDPOINT_CALLBACK_RXSTP, _usb_ep0_on_setup );
    6380:	687a      	ldr	r2, [r7, #4]
    6382:	4b1c      	ldr	r3, [pc, #112]	; (63f4 <udd_ctrl_ep_enable+0xa8>)
    6384:	1c10      	adds	r0, r2, #0
    6386:	2100      	movs	r1, #0
    6388:	2202      	movs	r2, #2
    638a:	4c1b      	ldr	r4, [pc, #108]	; (63f8 <udd_ctrl_ep_enable+0xac>)
    638c:	47a0      	blx	r4
	 usb_device_endpoint_register_callback(module_inst,0,USB_DEVICE_ENDPOINT_CALLBACK_TRCPT,_usb_ep0_on_tansfer_ok );
    638e:	687a      	ldr	r2, [r7, #4]
    6390:	4b1a      	ldr	r3, [pc, #104]	; (63fc <udd_ctrl_ep_enable+0xb0>)
    6392:	1c10      	adds	r0, r2, #0
    6394:	2100      	movs	r1, #0
    6396:	2200      	movs	r2, #0
    6398:	4c17      	ldr	r4, [pc, #92]	; (63f8 <udd_ctrl_ep_enable+0xac>)
    639a:	47a0      	blx	r4
	 usb_device_endpoint_register_callback(module_inst,0,USB_DEVICE_ENDPOINT_CALLBACK_TRFAIL,_usb_ep0_on_tansfer_fail );
    639c:	687a      	ldr	r2, [r7, #4]
    639e:	4b18      	ldr	r3, [pc, #96]	; (6400 <udd_ctrl_ep_enable+0xb4>)
    63a0:	1c10      	adds	r0, r2, #0
    63a2:	2100      	movs	r1, #0
    63a4:	2201      	movs	r2, #1
    63a6:	4c14      	ldr	r4, [pc, #80]	; (63f8 <udd_ctrl_ep_enable+0xac>)
    63a8:	47a0      	blx	r4
	 usb_device_endpoint_enable_callback(module_inst,0,USB_DEVICE_ENDPOINT_CALLBACK_RXSTP);
    63aa:	687b      	ldr	r3, [r7, #4]
    63ac:	1c18      	adds	r0, r3, #0
    63ae:	2100      	movs	r1, #0
    63b0:	2202      	movs	r2, #2
    63b2:	4b14      	ldr	r3, [pc, #80]	; (6404 <udd_ctrl_ep_enable+0xb8>)
    63b4:	4798      	blx	r3
	 usb_device_endpoint_enable_callback(module_inst,0,USB_DEVICE_ENDPOINT_CALLBACK_TRCPT);
    63b6:	687b      	ldr	r3, [r7, #4]
    63b8:	1c18      	adds	r0, r3, #0
    63ba:	2100      	movs	r1, #0
    63bc:	2200      	movs	r2, #0
    63be:	4b11      	ldr	r3, [pc, #68]	; (6404 <udd_ctrl_ep_enable+0xb8>)
    63c0:	4798      	blx	r3
	 usb_device_endpoint_enable_callback(module_inst,0,USB_DEVICE_ENDPOINT_CALLBACK_TRFAIL);
    63c2:	687b      	ldr	r3, [r7, #4]
    63c4:	1c18      	adds	r0, r3, #0
    63c6:	2100      	movs	r1, #0
    63c8:	2201      	movs	r2, #1
    63ca:	4b0e      	ldr	r3, [pc, #56]	; (6404 <udd_ctrl_ep_enable+0xb8>)
    63cc:	4798      	blx	r3

#ifdef  USB_DEVICE_LPM_SUPPORT
	 // Enable LPM feature
	 usb_device_set_lpm_mode(module_inst, USB_DEVICE_LPM_ACK);
    63ce:	687b      	ldr	r3, [r7, #4]
    63d0:	1c18      	adds	r0, r3, #0
    63d2:	2101      	movs	r1, #1
    63d4:	4b0c      	ldr	r3, [pc, #48]	; (6408 <udd_ctrl_ep_enable+0xbc>)
    63d6:	4798      	blx	r3
#endif

	 udd_ep_control_state = UDD_EPCTRL_SETUP;
    63d8:	4b0c      	ldr	r3, [pc, #48]	; (640c <udd_ctrl_ep_enable+0xc0>)
    63da:	2200      	movs	r2, #0
    63dc:	701a      	strb	r2, [r3, #0]
}
    63de:	46bd      	mov	sp, r7
    63e0:	b005      	add	sp, #20
    63e2:	bd90      	pop	{r4, r7, pc}
    63e4:	00007265 	.word	0x00007265
    63e8:	0000728d 	.word	0x0000728d
    63ec:	20000474 	.word	0x20000474
    63f0:	00007b2d 	.word	0x00007b2d
    63f4:	00006141 	.word	0x00006141
    63f8:	00006e2d 	.word	0x00006e2d
    63fc:	000062f9 	.word	0x000062f9
    6400:	000062bd 	.word	0x000062bd
    6404:	00006f21 	.word	0x00006f21
    6408:	000050f9 	.word	0x000050f9
    640c:	20000160 	.word	0x20000160

00006410 <_usb_on_suspend>:
 * \brief Control endpoint Suspend callback function
 * \param[in] module_inst Pointer to USB module instance
 * \param[in] pointer Pointer to the callback parameter from driver layer.
 */
static void _usb_on_suspend(struct usb_module *module_inst, void *pointer)
{
    6410:	b580      	push	{r7, lr}
    6412:	b082      	sub	sp, #8
    6414:	af00      	add	r7, sp, #0
    6416:	6078      	str	r0, [r7, #4]
    6418:	6039      	str	r1, [r7, #0]
	usb_device_disable_callback(&usb_device, USB_DEVICE_CALLBACK_SUSPEND);
    641a:	4b09      	ldr	r3, [pc, #36]	; (6440 <_usb_on_suspend+0x30>)
    641c:	1c18      	adds	r0, r3, #0
    641e:	2104      	movs	r1, #4
    6420:	4b08      	ldr	r3, [pc, #32]	; (6444 <_usb_on_suspend+0x34>)
    6422:	4798      	blx	r3
	usb_device_enable_callback(&usb_device, USB_DEVICE_CALLBACK_WAKEUP);
    6424:	4b06      	ldr	r3, [pc, #24]	; (6440 <_usb_on_suspend+0x30>)
    6426:	1c18      	adds	r0, r3, #0
    6428:	2102      	movs	r1, #2
    642a:	4b07      	ldr	r3, [pc, #28]	; (6448 <_usb_on_suspend+0x38>)
    642c:	4798      	blx	r3
	udd_sleep_mode(UDD_STATE_SUSPEND);
    642e:	2001      	movs	r0, #1
    6430:	4b06      	ldr	r3, [pc, #24]	; (644c <_usb_on_suspend+0x3c>)
    6432:	4798      	blx	r3
#ifdef UDC_SUSPEND_EVENT
	UDC_SUSPEND_EVENT();
    6434:	4b06      	ldr	r3, [pc, #24]	; (6450 <_usb_on_suspend+0x40>)
    6436:	4798      	blx	r3
#endif
}
    6438:	46bd      	mov	sp, r7
    643a:	b002      	add	sp, #8
    643c:	bd80      	pop	{r7, pc}
    643e:	46c0      	nop			; (mov r8, r8)
    6440:	200002f4 	.word	0x200002f4
    6444:	00006dd5 	.word	0x00006dd5
    6448:	00006d79 	.word	0x00006d79
    644c:	0000526d 	.word	0x0000526d
    6450:	00008785 	.word	0x00008785

00006454 <_usb_device_lpm_suspend>:

#ifdef  USB_DEVICE_LPM_SUPPORT
static void _usb_device_lpm_suspend(struct usb_module *module_inst, void *pointer)
{
    6454:	b580      	push	{r7, lr}
    6456:	b084      	sub	sp, #16
    6458:	af00      	add	r7, sp, #0
    645a:	6078      	str	r0, [r7, #4]
    645c:	6039      	str	r1, [r7, #0]
	dbg_print("LPM_SUSP\n");

	uint32_t *lpm_wakeup_enable;
	lpm_wakeup_enable = (uint32_t *)pointer;
    645e:	683b      	ldr	r3, [r7, #0]
    6460:	60fb      	str	r3, [r7, #12]

	usb_device_disable_callback(&usb_device, USB_DEVICE_CALLBACK_LPMSUSP);
    6462:	4b11      	ldr	r3, [pc, #68]	; (64a8 <_usb_device_lpm_suspend+0x54>)
    6464:	1c18      	adds	r0, r3, #0
    6466:	2106      	movs	r1, #6
    6468:	4b10      	ldr	r3, [pc, #64]	; (64ac <_usb_device_lpm_suspend+0x58>)
    646a:	4798      	blx	r3
	usb_device_disable_callback(&usb_device, USB_DEVICE_CALLBACK_SUSPEND);
    646c:	4b0e      	ldr	r3, [pc, #56]	; (64a8 <_usb_device_lpm_suspend+0x54>)
    646e:	1c18      	adds	r0, r3, #0
    6470:	2104      	movs	r1, #4
    6472:	4b0e      	ldr	r3, [pc, #56]	; (64ac <_usb_device_lpm_suspend+0x58>)
    6474:	4798      	blx	r3
	usb_device_enable_callback(&usb_device, USB_DEVICE_CALLBACK_WAKEUP);
    6476:	4b0c      	ldr	r3, [pc, #48]	; (64a8 <_usb_device_lpm_suspend+0x54>)
    6478:	1c18      	adds	r0, r3, #0
    647a:	2102      	movs	r1, #2
    647c:	4b0c      	ldr	r3, [pc, #48]	; (64b0 <_usb_device_lpm_suspend+0x5c>)
    647e:	4798      	blx	r3

//#warning Here the sleep mode must be choose to have a DFLL startup time < bmAttribut.HIRD
	udd_sleep_mode(UDD_STATE_SUSPEND_LPM);  // Enter in LPM SUSPEND mode
    6480:	2002      	movs	r0, #2
    6482:	4b0c      	ldr	r3, [pc, #48]	; (64b4 <_usb_device_lpm_suspend+0x60>)
    6484:	4798      	blx	r3
	if ((*lpm_wakeup_enable)) {
    6486:	68fb      	ldr	r3, [r7, #12]
    6488:	681b      	ldr	r3, [r3, #0]
    648a:	2b00      	cmp	r3, #0
    648c:	d001      	beq.n	6492 <_usb_device_lpm_suspend+0x3e>
		UDC_REMOTEWAKEUP_LPM_ENABLE();
    648e:	4b0a      	ldr	r3, [pc, #40]	; (64b8 <_usb_device_lpm_suspend+0x64>)
    6490:	4798      	blx	r3
	}
	if (!(*lpm_wakeup_enable)) {
    6492:	68fb      	ldr	r3, [r7, #12]
    6494:	681b      	ldr	r3, [r3, #0]
    6496:	2b00      	cmp	r3, #0
    6498:	d101      	bne.n	649e <_usb_device_lpm_suspend+0x4a>
		UDC_REMOTEWAKEUP_LPM_DISABLE();
    649a:	4b08      	ldr	r3, [pc, #32]	; (64bc <_usb_device_lpm_suspend+0x68>)
    649c:	4798      	blx	r3
	}
	UDC_SUSPEND_LPM_EVENT();
    649e:	4b08      	ldr	r3, [pc, #32]	; (64c0 <_usb_device_lpm_suspend+0x6c>)
    64a0:	4798      	blx	r3
}
    64a2:	46bd      	mov	sp, r7
    64a4:	b004      	add	sp, #16
    64a6:	bd80      	pop	{r7, pc}
    64a8:	200002f4 	.word	0x200002f4
    64ac:	00006dd5 	.word	0x00006dd5
    64b0:	00006d79 	.word	0x00006d79
    64b4:	0000526d 	.word	0x0000526d
    64b8:	00008819 	.word	0x00008819
    64bc:	00008809 	.word	0x00008809
    64c0:	000087f9 	.word	0x000087f9

000064c4 <_usb_on_sof_notify>:
 * \brief Control endpoint SOF callback function
 * \param[in] module_inst Pointer to USB module instance
 * \param[in] pointer Pointer to the callback parameter from driver layer.
 */
static void _usb_on_sof_notify(struct usb_module *module_inst, void *pointer)
{
    64c4:	b580      	push	{r7, lr}
    64c6:	b082      	sub	sp, #8
    64c8:	af00      	add	r7, sp, #0
    64ca:	6078      	str	r0, [r7, #4]
    64cc:	6039      	str	r1, [r7, #0]
	udc_sof_notify();
    64ce:	4b03      	ldr	r3, [pc, #12]	; (64dc <_usb_on_sof_notify+0x18>)
    64d0:	4798      	blx	r3
#ifdef UDC_SOF_EVENT
	UDC_SOF_EVENT();
    64d2:	4b03      	ldr	r3, [pc, #12]	; (64e0 <_usb_on_sof_notify+0x1c>)
    64d4:	4798      	blx	r3
#endif
}
    64d6:	46bd      	mov	sp, r7
    64d8:	b002      	add	sp, #8
    64da:	bd80      	pop	{r7, pc}
    64dc:	00003005 	.word	0x00003005
    64e0:	000087a5 	.word	0x000087a5

000064e4 <_usb_on_bus_reset>:
 * \brief Control endpoint Reset callback function
 * \param[in] module_inst Pointer to USB module instance
 * \param[in] pointer Pointer to the callback parameter from driver layer.
 */
static void _usb_on_bus_reset(struct usb_module *module_inst, void *pointer)
{
    64e4:	b580      	push	{r7, lr}
    64e6:	b082      	sub	sp, #8
    64e8:	af00      	add	r7, sp, #0
    64ea:	6078      	str	r0, [r7, #4]
    64ec:	6039      	str	r1, [r7, #0]
	// Reset USB Device Stack Core
	udc_reset();
    64ee:	4b07      	ldr	r3, [pc, #28]	; (650c <_usb_on_bus_reset+0x28>)
    64f0:	4798      	blx	r3
	usb_device_set_address(module_inst,0);
    64f2:	687b      	ldr	r3, [r7, #4]
    64f4:	1c18      	adds	r0, r3, #0
    64f6:	2100      	movs	r1, #0
    64f8:	4b05      	ldr	r3, [pc, #20]	; (6510 <_usb_on_bus_reset+0x2c>)
    64fa:	4798      	blx	r3
	udd_ctrl_ep_enable(module_inst);
    64fc:	687b      	ldr	r3, [r7, #4]
    64fe:	1c18      	adds	r0, r3, #0
    6500:	4b04      	ldr	r3, [pc, #16]	; (6514 <_usb_on_bus_reset+0x30>)
    6502:	4798      	blx	r3
}
    6504:	46bd      	mov	sp, r7
    6506:	b002      	add	sp, #8
    6508:	bd80      	pop	{r7, pc}
    650a:	46c0      	nop			; (mov r8, r8)
    650c:	00002f91 	.word	0x00002f91
    6510:	000050b1 	.word	0x000050b1
    6514:	0000634d 	.word	0x0000634d

00006518 <_usb_on_wakeup>:
 * \brief Control endpoint Wakeup callback function
 * \param[in] module_inst Pointer to USB module instance
 * \param[in] pointer Pointer to the callback parameter from driver layer.
 */
static void _usb_on_wakeup(struct usb_module *module_inst, void *pointer)
{
    6518:	b580      	push	{r7, lr}
    651a:	b082      	sub	sp, #8
    651c:	af00      	add	r7, sp, #0
    651e:	6078      	str	r0, [r7, #4]
    6520:	6039      	str	r1, [r7, #0]
	udd_wait_clock_ready();
    6522:	4b10      	ldr	r3, [pc, #64]	; (6564 <_usb_on_wakeup+0x4c>)
    6524:	4798      	blx	r3

	usb_device_disable_callback(&usb_device, USB_DEVICE_CALLBACK_WAKEUP);
    6526:	4b10      	ldr	r3, [pc, #64]	; (6568 <_usb_on_wakeup+0x50>)
    6528:	1c18      	adds	r0, r3, #0
    652a:	2102      	movs	r1, #2
    652c:	4b0f      	ldr	r3, [pc, #60]	; (656c <_usb_on_wakeup+0x54>)
    652e:	4798      	blx	r3
	usb_device_enable_callback(&usb_device, USB_DEVICE_CALLBACK_SUSPEND);
    6530:	4b0d      	ldr	r3, [pc, #52]	; (6568 <_usb_on_wakeup+0x50>)
    6532:	1c18      	adds	r0, r3, #0
    6534:	2104      	movs	r1, #4
    6536:	4b0e      	ldr	r3, [pc, #56]	; (6570 <_usb_on_wakeup+0x58>)
    6538:	4798      	blx	r3
#ifdef  USB_DEVICE_LPM_SUPPORT
	usb_device_register_callback(&usb_device, USB_DEVICE_CALLBACK_LPMSUSP, _usb_device_lpm_suspend);
    653a:	4a0b      	ldr	r2, [pc, #44]	; (6568 <_usb_on_wakeup+0x50>)
    653c:	4b0d      	ldr	r3, [pc, #52]	; (6574 <_usb_on_wakeup+0x5c>)
    653e:	1c10      	adds	r0, r2, #0
    6540:	2106      	movs	r1, #6
    6542:	1c1a      	adds	r2, r3, #0
    6544:	4b0c      	ldr	r3, [pc, #48]	; (6578 <_usb_on_wakeup+0x60>)
    6546:	4798      	blx	r3
	usb_device_enable_callback(&usb_device, USB_DEVICE_CALLBACK_LPMSUSP);
    6548:	4b07      	ldr	r3, [pc, #28]	; (6568 <_usb_on_wakeup+0x50>)
    654a:	1c18      	adds	r0, r3, #0
    654c:	2106      	movs	r1, #6
    654e:	4b08      	ldr	r3, [pc, #32]	; (6570 <_usb_on_wakeup+0x58>)
    6550:	4798      	blx	r3
#endif
	udd_sleep_mode(UDD_STATE_IDLE);
    6552:	2003      	movs	r0, #3
    6554:	4b09      	ldr	r3, [pc, #36]	; (657c <_usb_on_wakeup+0x64>)
    6556:	4798      	blx	r3
#ifdef UDC_RESUME_EVENT
	UDC_RESUME_EVENT();
    6558:	4b09      	ldr	r3, [pc, #36]	; (6580 <_usb_on_wakeup+0x68>)
    655a:	4798      	blx	r3
#endif
}
    655c:	46bd      	mov	sp, r7
    655e:	b002      	add	sp, #8
    6560:	bd80      	pop	{r7, pc}
    6562:	46c0      	nop			; (mov r8, r8)
    6564:	00005235 	.word	0x00005235
    6568:	200002f4 	.word	0x200002f4
    656c:	00006dd5 	.word	0x00006dd5
    6570:	00006d79 	.word	0x00006d79
    6574:	00006455 	.word	0x00006455
    6578:	00006d29 	.word	0x00006d29
    657c:	0000526d 	.word	0x0000526d
    6580:	00008795 	.word	0x00008795

00006584 <udd_detach>:

void udd_detach(void)
{
    6584:	b580      	push	{r7, lr}
    6586:	af00      	add	r7, sp, #0
	usb_device_detach(&usb_device);
    6588:	4b04      	ldr	r3, [pc, #16]	; (659c <udd_detach+0x18>)
    658a:	1c18      	adds	r0, r3, #0
    658c:	4b04      	ldr	r3, [pc, #16]	; (65a0 <udd_detach+0x1c>)
    658e:	4798      	blx	r3
	udd_sleep_mode(UDD_STATE_SUSPEND);
    6590:	2001      	movs	r0, #1
    6592:	4b04      	ldr	r3, [pc, #16]	; (65a4 <udd_detach+0x20>)
    6594:	4798      	blx	r3
}
    6596:	46bd      	mov	sp, r7
    6598:	bd80      	pop	{r7, pc}
    659a:	46c0      	nop			; (mov r8, r8)
    659c:	200002f4 	.word	0x200002f4
    65a0:	00005071 	.word	0x00005071
    65a4:	0000526d 	.word	0x0000526d

000065a8 <udd_attach>:

void udd_attach(void)
{
    65a8:	b580      	push	{r7, lr}
    65aa:	af00      	add	r7, sp, #0
	udd_sleep_mode(UDD_STATE_IDLE);
    65ac:	2003      	movs	r0, #3
    65ae:	4b22      	ldr	r3, [pc, #136]	; (6638 <udd_attach+0x90>)
    65b0:	4798      	blx	r3
	usb_device_attach(&usb_device);
    65b2:	4b22      	ldr	r3, [pc, #136]	; (663c <udd_attach+0x94>)
    65b4:	1c18      	adds	r0, r3, #0
    65b6:	4b22      	ldr	r3, [pc, #136]	; (6640 <udd_attach+0x98>)
    65b8:	4798      	blx	r3

	usb_device_register_callback(&usb_device, USB_DEVICE_CALLBACK_SUSPEND, _usb_on_suspend);
    65ba:	4a20      	ldr	r2, [pc, #128]	; (663c <udd_attach+0x94>)
    65bc:	4b21      	ldr	r3, [pc, #132]	; (6644 <udd_attach+0x9c>)
    65be:	1c10      	adds	r0, r2, #0
    65c0:	2104      	movs	r1, #4
    65c2:	1c1a      	adds	r2, r3, #0
    65c4:	4b20      	ldr	r3, [pc, #128]	; (6648 <udd_attach+0xa0>)
    65c6:	4798      	blx	r3
	usb_device_register_callback(&usb_device, USB_DEVICE_CALLBACK_SOF, _usb_on_sof_notify);
    65c8:	4a1c      	ldr	r2, [pc, #112]	; (663c <udd_attach+0x94>)
    65ca:	4b20      	ldr	r3, [pc, #128]	; (664c <udd_attach+0xa4>)
    65cc:	1c10      	adds	r0, r2, #0
    65ce:	2100      	movs	r1, #0
    65d0:	1c1a      	adds	r2, r3, #0
    65d2:	4b1d      	ldr	r3, [pc, #116]	; (6648 <udd_attach+0xa0>)
    65d4:	4798      	blx	r3
	usb_device_register_callback(&usb_device, USB_DEVICE_CALLBACK_RESET, _usb_on_bus_reset);
    65d6:	4a19      	ldr	r2, [pc, #100]	; (663c <udd_attach+0x94>)
    65d8:	4b1d      	ldr	r3, [pc, #116]	; (6650 <udd_attach+0xa8>)
    65da:	1c10      	adds	r0, r2, #0
    65dc:	2101      	movs	r1, #1
    65de:	1c1a      	adds	r2, r3, #0
    65e0:	4b19      	ldr	r3, [pc, #100]	; (6648 <udd_attach+0xa0>)
    65e2:	4798      	blx	r3
	usb_device_register_callback(&usb_device, USB_DEVICE_CALLBACK_WAKEUP, _usb_on_wakeup);
    65e4:	4a15      	ldr	r2, [pc, #84]	; (663c <udd_attach+0x94>)
    65e6:	4b1b      	ldr	r3, [pc, #108]	; (6654 <udd_attach+0xac>)
    65e8:	1c10      	adds	r0, r2, #0
    65ea:	2102      	movs	r1, #2
    65ec:	1c1a      	adds	r2, r3, #0
    65ee:	4b16      	ldr	r3, [pc, #88]	; (6648 <udd_attach+0xa0>)
    65f0:	4798      	blx	r3

	usb_device_enable_callback(&usb_device, USB_DEVICE_CALLBACK_SUSPEND);
    65f2:	4b12      	ldr	r3, [pc, #72]	; (663c <udd_attach+0x94>)
    65f4:	1c18      	adds	r0, r3, #0
    65f6:	2104      	movs	r1, #4
    65f8:	4b17      	ldr	r3, [pc, #92]	; (6658 <udd_attach+0xb0>)
    65fa:	4798      	blx	r3
	usb_device_enable_callback(&usb_device, USB_DEVICE_CALLBACK_SOF);
    65fc:	4b0f      	ldr	r3, [pc, #60]	; (663c <udd_attach+0x94>)
    65fe:	1c18      	adds	r0, r3, #0
    6600:	2100      	movs	r1, #0
    6602:	4b15      	ldr	r3, [pc, #84]	; (6658 <udd_attach+0xb0>)
    6604:	4798      	blx	r3
	usb_device_enable_callback(&usb_device, USB_DEVICE_CALLBACK_RESET);
    6606:	4b0d      	ldr	r3, [pc, #52]	; (663c <udd_attach+0x94>)
    6608:	1c18      	adds	r0, r3, #0
    660a:	2101      	movs	r1, #1
    660c:	4b12      	ldr	r3, [pc, #72]	; (6658 <udd_attach+0xb0>)
    660e:	4798      	blx	r3
	usb_device_enable_callback(&usb_device, USB_DEVICE_CALLBACK_WAKEUP);
    6610:	4b0a      	ldr	r3, [pc, #40]	; (663c <udd_attach+0x94>)
    6612:	1c18      	adds	r0, r3, #0
    6614:	2102      	movs	r1, #2
    6616:	4b10      	ldr	r3, [pc, #64]	; (6658 <udd_attach+0xb0>)
    6618:	4798      	blx	r3
#ifdef  USB_DEVICE_LPM_SUPPORT
	usb_device_register_callback(&usb_device, USB_DEVICE_CALLBACK_LPMSUSP, _usb_device_lpm_suspend);
    661a:	4a08      	ldr	r2, [pc, #32]	; (663c <udd_attach+0x94>)
    661c:	4b0f      	ldr	r3, [pc, #60]	; (665c <udd_attach+0xb4>)
    661e:	1c10      	adds	r0, r2, #0
    6620:	2106      	movs	r1, #6
    6622:	1c1a      	adds	r2, r3, #0
    6624:	4b08      	ldr	r3, [pc, #32]	; (6648 <udd_attach+0xa0>)
    6626:	4798      	blx	r3
	usb_device_enable_callback(&usb_device, USB_DEVICE_CALLBACK_LPMSUSP);
    6628:	4b04      	ldr	r3, [pc, #16]	; (663c <udd_attach+0x94>)
    662a:	1c18      	adds	r0, r3, #0
    662c:	2106      	movs	r1, #6
    662e:	4b0a      	ldr	r3, [pc, #40]	; (6658 <udd_attach+0xb0>)
    6630:	4798      	blx	r3
#endif
}
    6632:	46bd      	mov	sp, r7
    6634:	bd80      	pop	{r7, pc}
    6636:	46c0      	nop			; (mov r8, r8)
    6638:	0000526d 	.word	0x0000526d
    663c:	200002f4 	.word	0x200002f4
    6640:	0000504d 	.word	0x0000504d
    6644:	00006411 	.word	0x00006411
    6648:	00006d29 	.word	0x00006d29
    664c:	000064c5 	.word	0x000064c5
    6650:	000064e5 	.word	0x000064e5
    6654:	00006519 	.word	0x00006519
    6658:	00006d79 	.word	0x00006d79
    665c:	00006455 	.word	0x00006455

00006660 <_uhd_vbus_handler>:
/**
 * \internal
 * \brief USB VBUS pin change handler
 */
static void _uhd_vbus_handler(void)
{
    6660:	b580      	push	{r7, lr}
    6662:	af00      	add	r7, sp, #0
	extint_chan_disable_callback(USB_VBUS_EIC_LINE,
    6664:	200e      	movs	r0, #14
    6666:	2100      	movs	r1, #0
    6668:	4b08      	ldr	r3, [pc, #32]	; (668c <_uhd_vbus_handler+0x2c>)
    666a:	4798      	blx	r3
			EXTINT_CALLBACK_TYPE_DETECT);
# ifndef USB_DEVICE_ATTACH_AUTO_DISABLE
	if (is_usb_vbus_high()) {
    666c:	200e      	movs	r0, #14
    666e:	4b08      	ldr	r3, [pc, #32]	; (6690 <_uhd_vbus_handler+0x30>)
    6670:	4798      	blx	r3
    6672:	1e03      	subs	r3, r0, #0
    6674:	d002      	beq.n	667c <_uhd_vbus_handler+0x1c>
		udd_attach();
    6676:	4b07      	ldr	r3, [pc, #28]	; (6694 <_uhd_vbus_handler+0x34>)
    6678:	4798      	blx	r3
    667a:	e001      	b.n	6680 <_uhd_vbus_handler+0x20>
	} else {
		udd_detach();
    667c:	4b06      	ldr	r3, [pc, #24]	; (6698 <_uhd_vbus_handler+0x38>)
    667e:	4798      	blx	r3
	}
# endif
# ifdef UDC_VBUS_EVENT
	UDC_VBUS_EVENT(is_usb_vbus_high());
# endif
	extint_chan_enable_callback(USB_VBUS_EIC_LINE,
    6680:	200e      	movs	r0, #14
    6682:	2100      	movs	r1, #0
    6684:	4b05      	ldr	r3, [pc, #20]	; (669c <_uhd_vbus_handler+0x3c>)
    6686:	4798      	blx	r3
			EXTINT_CALLBACK_TYPE_DETECT);
}
    6688:	46bd      	mov	sp, r7
    668a:	bd80      	pop	{r7, pc}
    668c:	00003cad 	.word	0x00003cad
    6690:	00005159 	.word	0x00005159
    6694:	000065a9 	.word	0x000065a9
    6698:	00006585 	.word	0x00006585
    669c:	00003c65 	.word	0x00003c65

000066a0 <_usb_vbus_config>:
/**
 * \internal
 * \brief USB VBUS pin configuration
 */
static void _usb_vbus_config(void)
{
    66a0:	b580      	push	{r7, lr}
    66a2:	b084      	sub	sp, #16
    66a4:	af00      	add	r7, sp, #0

	/* Initialize EIC for vbus checking */
	struct extint_chan_conf eint_chan_conf;
	extint_chan_get_config_defaults(&eint_chan_conf);
    66a6:	1d3b      	adds	r3, r7, #4
    66a8:	1c18      	adds	r0, r3, #0
    66aa:	4b13      	ldr	r3, [pc, #76]	; (66f8 <_usb_vbus_config+0x58>)
    66ac:	4798      	blx	r3

	eint_chan_conf.gpio_pin           = USB_VBUS_PIN;
    66ae:	1d3b      	adds	r3, r7, #4
    66b0:	220e      	movs	r2, #14
    66b2:	601a      	str	r2, [r3, #0]
	eint_chan_conf.gpio_pin_mux       = USB_VBUS_EIC_MUX;
    66b4:	1d3b      	adds	r3, r7, #4
    66b6:	2200      	movs	r2, #0
    66b8:	605a      	str	r2, [r3, #4]
	eint_chan_conf.gpio_pin_pull      = EXTINT_PULL_NONE;
    66ba:	1d3b      	adds	r3, r7, #4
    66bc:	2200      	movs	r2, #0
    66be:	721a      	strb	r2, [r3, #8]
	eint_chan_conf.detection_criteria = EXTINT_DETECT_BOTH;
    66c0:	1d3b      	adds	r3, r7, #4
    66c2:	2203      	movs	r2, #3
    66c4:	72da      	strb	r2, [r3, #11]
	eint_chan_conf.filter_input_signal = true;
    66c6:	1d3b      	adds	r3, r7, #4
    66c8:	2201      	movs	r2, #1
    66ca:	729a      	strb	r2, [r3, #10]

	extint_chan_disable_callback(USB_VBUS_EIC_LINE,
    66cc:	200e      	movs	r0, #14
    66ce:	2100      	movs	r1, #0
    66d0:	4b0a      	ldr	r3, [pc, #40]	; (66fc <_usb_vbus_config+0x5c>)
    66d2:	4798      	blx	r3
			EXTINT_CALLBACK_TYPE_DETECT);
	extint_chan_set_config(USB_VBUS_EIC_LINE, &eint_chan_conf);
    66d4:	1d3b      	adds	r3, r7, #4
    66d6:	200e      	movs	r0, #14
    66d8:	1c19      	adds	r1, r3, #0
    66da:	4b09      	ldr	r3, [pc, #36]	; (6700 <_usb_vbus_config+0x60>)
    66dc:	4798      	blx	r3
	extint_register_callback(_uhd_vbus_handler,
    66de:	4b09      	ldr	r3, [pc, #36]	; (6704 <_usb_vbus_config+0x64>)
    66e0:	1c18      	adds	r0, r3, #0
    66e2:	210e      	movs	r1, #14
    66e4:	2200      	movs	r2, #0
    66e6:	4b08      	ldr	r3, [pc, #32]	; (6708 <_usb_vbus_config+0x68>)
    66e8:	4798      	blx	r3
			USB_VBUS_EIC_LINE,
			EXTINT_CALLBACK_TYPE_DETECT);
	extint_chan_enable_callback(USB_VBUS_EIC_LINE,
    66ea:	200e      	movs	r0, #14
    66ec:	2100      	movs	r1, #0
    66ee:	4b07      	ldr	r3, [pc, #28]	; (670c <_usb_vbus_config+0x6c>)
    66f0:	4798      	blx	r3
			EXTINT_CALLBACK_TYPE_DETECT);
}
    66f2:	46bd      	mov	sp, r7
    66f4:	b004      	add	sp, #16
    66f6:	bd80      	pop	{r7, pc}
    66f8:	00003ff9 	.word	0x00003ff9
    66fc:	00003cad 	.word	0x00003cad
    6700:	0000402d 	.word	0x0000402d
    6704:	00006661 	.word	0x00006661
    6708:	00003c01 	.word	0x00003c01
    670c:	00003c65 	.word	0x00003c65

00006710 <udd_enable>:
	return false;
#endif
}

void udd_enable(void)
{
    6710:	b580      	push	{r7, lr}
    6712:	b082      	sub	sp, #8
    6714:	af00      	add	r7, sp, #0
	irqflags_t flags;

	/* To avoid USB interrupt before end of initialization */
	flags = cpu_irq_save();
    6716:	4b15      	ldr	r3, [pc, #84]	; (676c <udd_enable+0x5c>)
    6718:	4798      	blx	r3
    671a:	1c03      	adds	r3, r0, #0
    671c:	607b      	str	r3, [r7, #4]
	}
#endif
	struct usb_config config_usb;

	/* USB Module configuration */
	usb_get_config_defaults(&config_usb);
    671e:	1c3b      	adds	r3, r7, #0
    6720:	1c18      	adds	r0, r3, #0
    6722:	4b13      	ldr	r3, [pc, #76]	; (6770 <udd_enable+0x60>)
    6724:	4798      	blx	r3
	config_usb.source_generator = UDD_CLOCK_GEN;
    6726:	1c3b      	adds	r3, r7, #0
    6728:	2200      	movs	r2, #0
    672a:	709a      	strb	r2, [r3, #2]
	usb_init(&usb_device, USB, &config_usb);
    672c:	4a11      	ldr	r2, [pc, #68]	; (6774 <udd_enable+0x64>)
    672e:	4912      	ldr	r1, [pc, #72]	; (6778 <udd_enable+0x68>)
    6730:	1c3b      	adds	r3, r7, #0
    6732:	1c10      	adds	r0, r2, #0
    6734:	1c1a      	adds	r2, r3, #0
    6736:	4b11      	ldr	r3, [pc, #68]	; (677c <udd_enable+0x6c>)
    6738:	4798      	blx	r3

	/* USB Module Enable */
	usb_enable(&usb_device);
    673a:	4b0e      	ldr	r3, [pc, #56]	; (6774 <udd_enable+0x64>)
    673c:	1c18      	adds	r0, r3, #0
    673e:	4b10      	ldr	r3, [pc, #64]	; (6780 <udd_enable+0x70>)
    6740:	4798      	blx	r3

	/* Check clock after enable module, request the clock */
	udd_wait_clock_ready();
    6742:	4b10      	ldr	r3, [pc, #64]	; (6784 <udd_enable+0x74>)
    6744:	4798      	blx	r3

	udd_sleep_mode(UDD_STATE_SUSPEND);
    6746:	2001      	movs	r0, #1
    6748:	4b0f      	ldr	r3, [pc, #60]	; (6788 <udd_enable+0x78>)
    674a:	4798      	blx	r3

#if USB_VBUS_EIC
	_usb_vbus_config();
    674c:	4b0f      	ldr	r3, [pc, #60]	; (678c <udd_enable+0x7c>)
    674e:	4798      	blx	r3
	if (is_usb_vbus_high()) {
    6750:	200e      	movs	r0, #14
    6752:	4b0f      	ldr	r3, [pc, #60]	; (6790 <udd_enable+0x80>)
    6754:	4798      	blx	r3
    6756:	1e03      	subs	r3, r0, #0
    6758:	d001      	beq.n	675e <udd_enable+0x4e>
		/* USB Attach */
		_uhd_vbus_handler();
    675a:	4b0e      	ldr	r3, [pc, #56]	; (6794 <udd_enable+0x84>)
    675c:	4798      	blx	r3
# ifndef USB_DEVICE_ATTACH_AUTO_DISABLE
	udd_attach();
# endif
#endif

	cpu_irq_restore(flags);
    675e:	687b      	ldr	r3, [r7, #4]
    6760:	1c18      	adds	r0, r3, #0
    6762:	4b0d      	ldr	r3, [pc, #52]	; (6798 <udd_enable+0x88>)
    6764:	4798      	blx	r3
}
    6766:	46bd      	mov	sp, r7
    6768:	b002      	add	sp, #8
    676a:	bd80      	pop	{r7, pc}
    676c:	00004f75 	.word	0x00004f75
    6770:	00008135 	.word	0x00008135
    6774:	200002f4 	.word	0x200002f4
    6778:	41005000 	.word	0x41005000
    677c:	0000815d 	.word	0x0000815d
    6780:	000080d5 	.word	0x000080d5
    6784:	00005235 	.word	0x00005235
    6788:	0000526d 	.word	0x0000526d
    678c:	000066a1 	.word	0x000066a1
    6790:	00005159 	.word	0x00005159
    6794:	00006661 	.word	0x00006661
    6798:	00004fbd 	.word	0x00004fbd

0000679c <system_gclk_chan_get_config_defaults>:
 *
 * \param[out] config  Configuration structure to initialize to default values
 */
static inline void system_gclk_chan_get_config_defaults(
		struct system_gclk_chan_config *const config)
{
    679c:	b580      	push	{r7, lr}
    679e:	b082      	sub	sp, #8
    67a0:	af00      	add	r7, sp, #0
    67a2:	6078      	str	r0, [r7, #4]
	/* Sanity check arguments */
	Assert(config);

	/* Default configuration values */
	config->source_generator = GCLK_GENERATOR_0;
    67a4:	687b      	ldr	r3, [r7, #4]
    67a6:	2200      	movs	r2, #0
    67a8:	701a      	strb	r2, [r3, #0]
}
    67aa:	46bd      	mov	sp, r7
    67ac:	b002      	add	sp, #8
    67ae:	bd80      	pop	{r7, pc}

000067b0 <system_apb_clock_set_mask>:
 * \retval STATUS_OK               The clock mask was set successfully
 */
static inline enum status_code system_apb_clock_set_mask(
		const enum system_clock_apb_bus bus,
		const uint32_t mask)
{
    67b0:	b580      	push	{r7, lr}
    67b2:	b082      	sub	sp, #8
    67b4:	af00      	add	r7, sp, #0
    67b6:	1c02      	adds	r2, r0, #0
    67b8:	6039      	str	r1, [r7, #0]
    67ba:	1dfb      	adds	r3, r7, #7
    67bc:	701a      	strb	r2, [r3, #0]
	switch (bus) {
    67be:	1dfb      	adds	r3, r7, #7
    67c0:	781b      	ldrb	r3, [r3, #0]
    67c2:	2b01      	cmp	r3, #1
    67c4:	d00a      	beq.n	67dc <system_apb_clock_set_mask+0x2c>
    67c6:	2b02      	cmp	r3, #2
    67c8:	d00f      	beq.n	67ea <system_apb_clock_set_mask+0x3a>
    67ca:	2b00      	cmp	r3, #0
    67cc:	d114      	bne.n	67f8 <system_apb_clock_set_mask+0x48>
		case SYSTEM_CLOCK_APB_APBA:
			PM->APBAMASK.reg |= mask;
    67ce:	4b0e      	ldr	r3, [pc, #56]	; (6808 <system_apb_clock_set_mask+0x58>)
    67d0:	4a0d      	ldr	r2, [pc, #52]	; (6808 <system_apb_clock_set_mask+0x58>)
    67d2:	6991      	ldr	r1, [r2, #24]
    67d4:	683a      	ldr	r2, [r7, #0]
    67d6:	430a      	orrs	r2, r1
    67d8:	619a      	str	r2, [r3, #24]
			break;
    67da:	e00f      	b.n	67fc <system_apb_clock_set_mask+0x4c>

		case SYSTEM_CLOCK_APB_APBB:
			PM->APBBMASK.reg |= mask;
    67dc:	4b0a      	ldr	r3, [pc, #40]	; (6808 <system_apb_clock_set_mask+0x58>)
    67de:	4a0a      	ldr	r2, [pc, #40]	; (6808 <system_apb_clock_set_mask+0x58>)
    67e0:	69d1      	ldr	r1, [r2, #28]
    67e2:	683a      	ldr	r2, [r7, #0]
    67e4:	430a      	orrs	r2, r1
    67e6:	61da      	str	r2, [r3, #28]
			break;
    67e8:	e008      	b.n	67fc <system_apb_clock_set_mask+0x4c>

		case SYSTEM_CLOCK_APB_APBC:
			PM->APBCMASK.reg |= mask;
    67ea:	4b07      	ldr	r3, [pc, #28]	; (6808 <system_apb_clock_set_mask+0x58>)
    67ec:	4a06      	ldr	r2, [pc, #24]	; (6808 <system_apb_clock_set_mask+0x58>)
    67ee:	6a11      	ldr	r1, [r2, #32]
    67f0:	683a      	ldr	r2, [r7, #0]
    67f2:	430a      	orrs	r2, r1
    67f4:	621a      	str	r2, [r3, #32]
			break;
    67f6:	e001      	b.n	67fc <system_apb_clock_set_mask+0x4c>

		default:
			Assert(false);
			return STATUS_ERR_INVALID_ARG;
    67f8:	2317      	movs	r3, #23
    67fa:	e000      	b.n	67fe <system_apb_clock_set_mask+0x4e>

	}

	return STATUS_OK;
    67fc:	2300      	movs	r3, #0
}
    67fe:	1c18      	adds	r0, r3, #0
    6800:	46bd      	mov	sp, r7
    6802:	b002      	add	sp, #8
    6804:	bd80      	pop	{r7, pc}
    6806:	46c0      	nop			; (mov r8, r8)
    6808:	40000400 	.word	0x40000400

0000680c <system_pinmux_get_config_defaults>:
 *
 * \param[out] config  Configuration structure to initialize to default values
 */
static inline void system_pinmux_get_config_defaults(
		struct system_pinmux_config *const config)
{
    680c:	b580      	push	{r7, lr}
    680e:	b082      	sub	sp, #8
    6810:	af00      	add	r7, sp, #0
    6812:	6078      	str	r0, [r7, #4]
	/* Sanity check arguments */
	Assert(config);

	/* Default configuration values */
	config->mux_position = SYSTEM_PINMUX_GPIO;
    6814:	687b      	ldr	r3, [r7, #4]
    6816:	2280      	movs	r2, #128	; 0x80
    6818:	701a      	strb	r2, [r3, #0]
	config->direction    = SYSTEM_PINMUX_PIN_DIR_INPUT;
    681a:	687b      	ldr	r3, [r7, #4]
    681c:	2200      	movs	r2, #0
    681e:	705a      	strb	r2, [r3, #1]
	config->input_pull   = SYSTEM_PINMUX_PIN_PULL_UP;
    6820:	687b      	ldr	r3, [r7, #4]
    6822:	2201      	movs	r2, #1
    6824:	709a      	strb	r2, [r3, #2]
	config->powersave    = false;
    6826:	687b      	ldr	r3, [r7, #4]
    6828:	2200      	movs	r2, #0
    682a:	70da      	strb	r2, [r3, #3]
}
    682c:	46bd      	mov	sp, r7
    682e:	b002      	add	sp, #8
    6830:	bd80      	pop	{r7, pc}
    6832:	46c0      	nop			; (mov r8, r8)

00006834 <system_interrupt_enable>:
 *
 * \param[in] vector Interrupt vector to enable
 */
static inline void system_interrupt_enable(
		const enum system_interrupt_vector vector)
{
    6834:	b580      	push	{r7, lr}
    6836:	b082      	sub	sp, #8
    6838:	af00      	add	r7, sp, #0
    683a:	1c02      	adds	r2, r0, #0
    683c:	1dfb      	adds	r3, r7, #7
    683e:	701a      	strb	r2, [r3, #0]
	NVIC->ISER[0] = (uint32_t)(1 << ((uint32_t)vector & 0x0000001f));
    6840:	4b06      	ldr	r3, [pc, #24]	; (685c <system_interrupt_enable+0x28>)
    6842:	1dfa      	adds	r2, r7, #7
    6844:	7812      	ldrb	r2, [r2, #0]
    6846:	1c11      	adds	r1, r2, #0
    6848:	221f      	movs	r2, #31
    684a:	400a      	ands	r2, r1
    684c:	2101      	movs	r1, #1
    684e:	4091      	lsls	r1, r2
    6850:	1c0a      	adds	r2, r1, #0
    6852:	601a      	str	r2, [r3, #0]
}
    6854:	46bd      	mov	sp, r7
    6856:	b002      	add	sp, #8
    6858:	bd80      	pop	{r7, pc}
    685a:	46c0      	nop			; (mov r8, r8)
    685c:	e000e100 	.word	0xe000e100

00006860 <_usb_host_interrupt_handler>:
 *   (Device dis/connection, SOF, reset, resume, wakeup, error)
 * - Pipe events
 *   (End of data transfer, setup, stall, error)
 */
static void _usb_host_interrupt_handler(void)
{
    6860:	b580      	push	{r7, lr}
    6862:	b082      	sub	sp, #8
    6864:	af00      	add	r7, sp, #0
	uint32_t pipe_int;
	uint32_t flags;

	/* Manage pipe interrupts */
	pipe_int = ctz(_usb_instances->hw->HOST.PINTSMRY.reg);
    6866:	4bbb      	ldr	r3, [pc, #748]	; (6b54 <_usb_host_interrupt_handler+0x2f4>)
    6868:	681b      	ldr	r3, [r3, #0]
    686a:	681b      	ldr	r3, [r3, #0]
    686c:	8c1b      	ldrh	r3, [r3, #32]
    686e:	b29b      	uxth	r3, r3
    6870:	1c1a      	adds	r2, r3, #0
    6872:	4bb9      	ldr	r3, [pc, #740]	; (6b58 <_usb_host_interrupt_handler+0x2f8>)
    6874:	1c10      	adds	r0, r2, #0
    6876:	4798      	blx	r3
    6878:	1c03      	adds	r3, r0, #0
    687a:	607b      	str	r3, [r7, #4]
	if (pipe_int < 32) {
    687c:	687b      	ldr	r3, [r7, #4]
    687e:	2b1f      	cmp	r3, #31
    6880:	d900      	bls.n	6884 <_usb_host_interrupt_handler+0x24>
    6882:	e173      	b.n	6b6c <_usb_host_interrupt_handler+0x30c>
		/* pipe interrupts */

		/* get interrupt flags */
		flags = _usb_instances->hw->HOST.HostPipe[pipe_int].PINTFLAG.reg;
    6884:	4bb3      	ldr	r3, [pc, #716]	; (6b54 <_usb_host_interrupt_handler+0x2f4>)
    6886:	681b      	ldr	r3, [r3, #0]
    6888:	681a      	ldr	r2, [r3, #0]
    688a:	687b      	ldr	r3, [r7, #4]
    688c:	3308      	adds	r3, #8
    688e:	015b      	lsls	r3, r3, #5
    6890:	18d3      	adds	r3, r2, r3
    6892:	79db      	ldrb	r3, [r3, #7]
    6894:	b2db      	uxtb	r3, r3
    6896:	603b      	str	r3, [r7, #0]

		/* host pipe transfer complete interrupt */
		if (flags & USB_HOST_PINTFLAG_TRCPT_Msk) {
    6898:	683b      	ldr	r3, [r7, #0]
    689a:	2203      	movs	r2, #3
    689c:	4013      	ands	r3, r2
    689e:	d100      	bne.n	68a2 <_usb_host_interrupt_handler+0x42>
    68a0:	e089      	b.n	69b6 <_usb_host_interrupt_handler+0x156>
			/* Clear busy status */
			host_pipe_job_busy_status &= ~(1 << pipe_int);
    68a2:	687b      	ldr	r3, [r7, #4]
    68a4:	2201      	movs	r2, #1
    68a6:	409a      	lsls	r2, r3
    68a8:	1c13      	adds	r3, r2, #0
    68aa:	43db      	mvns	r3, r3
    68ac:	1c1a      	adds	r2, r3, #0
    68ae:	4bab      	ldr	r3, [pc, #684]	; (6b5c <_usb_host_interrupt_handler+0x2fc>)
    68b0:	681b      	ldr	r3, [r3, #0]
    68b2:	401a      	ands	r2, r3
    68b4:	4ba9      	ldr	r3, [pc, #676]	; (6b5c <_usb_host_interrupt_handler+0x2fc>)
    68b6:	601a      	str	r2, [r3, #0]
			/* clear the flag */
			_usb_instances->hw->HOST.HostPipe[pipe_int].PINTFLAG.reg =
    68b8:	4ba6      	ldr	r3, [pc, #664]	; (6b54 <_usb_host_interrupt_handler+0x2f4>)
    68ba:	681b      	ldr	r3, [r3, #0]
    68bc:	681a      	ldr	r2, [r3, #0]
    68be:	687b      	ldr	r3, [r7, #4]
    68c0:	3308      	adds	r3, #8
    68c2:	015b      	lsls	r3, r3, #5
    68c4:	18d3      	adds	r3, r2, r3
    68c6:	2203      	movs	r2, #3
    68c8:	71da      	strb	r2, [r3, #7]
					USB_HOST_PINTFLAG_TRCPT_Msk;
			if(_usb_instances->host_pipe_enabled_callback_mask[pipe_int] &
    68ca:	4ba2      	ldr	r3, [pc, #648]	; (6b54 <_usb_host_interrupt_handler+0x2f4>)
    68cc:	681a      	ldr	r2, [r3, #0]
    68ce:	21a8      	movs	r1, #168	; 0xa8
    68d0:	687b      	ldr	r3, [r7, #4]
    68d2:	18d3      	adds	r3, r2, r3
    68d4:	185b      	adds	r3, r3, r1
    68d6:	799b      	ldrb	r3, [r3, #6]
    68d8:	1c1a      	adds	r2, r3, #0
    68da:	2301      	movs	r3, #1
    68dc:	4013      	ands	r3, r2
    68de:	d06a      	beq.n	69b6 <_usb_host_interrupt_handler+0x156>
					(1 << USB_HOST_PIPE_CALLBACK_TRANSFER_COMPLETE)) {
				pipe_callback_para.pipe_num = pipe_int;
    68e0:	687b      	ldr	r3, [r7, #4]
    68e2:	b2da      	uxtb	r2, r3
    68e4:	4b9e      	ldr	r3, [pc, #632]	; (6b60 <_usb_host_interrupt_handler+0x300>)
    68e6:	701a      	strb	r2, [r3, #0]
				if (_usb_instances->hw->HOST.HostPipe[pipe_int].PCFG.bit.PTOKEN ==
    68e8:	4b9a      	ldr	r3, [pc, #616]	; (6b54 <_usb_host_interrupt_handler+0x2f4>)
    68ea:	681b      	ldr	r3, [r3, #0]
    68ec:	681b      	ldr	r3, [r3, #0]
    68ee:	687a      	ldr	r2, [r7, #4]
    68f0:	3208      	adds	r2, #8
    68f2:	0152      	lsls	r2, r2, #5
    68f4:	5cd3      	ldrb	r3, [r2, r3]
    68f6:	2203      	movs	r2, #3
    68f8:	4013      	ands	r3, r2
    68fa:	b2db      	uxtb	r3, r3
    68fc:	2b01      	cmp	r3, #1
    68fe:	d11f      	bne.n	6940 <_usb_host_interrupt_handler+0xe0>
							USB_HOST_PIPE_TOKEN_IN) {
					/* in  */
					pipe_callback_para.transfered_size = usb_descriptor_table.usb_pipe_table[pipe_int].HostDescBank[0].PCKSIZE.bit.BYTE_COUNT;
    6900:	4a98      	ldr	r2, [pc, #608]	; (6b64 <_usb_host_interrupt_handler+0x304>)
    6902:	687b      	ldr	r3, [r7, #4]
    6904:	015b      	lsls	r3, r3, #5
    6906:	18d3      	adds	r3, r2, r3
    6908:	685b      	ldr	r3, [r3, #4]
    690a:	049b      	lsls	r3, r3, #18
    690c:	0c9b      	lsrs	r3, r3, #18
    690e:	b29b      	uxth	r3, r3
    6910:	1c1a      	adds	r2, r3, #0
    6912:	4b93      	ldr	r3, [pc, #588]	; (6b60 <_usb_host_interrupt_handler+0x300>)
    6914:	805a      	strh	r2, [r3, #2]
					pipe_callback_para.required_size = usb_descriptor_table.usb_pipe_table[pipe_int].HostDescBank[0].PCKSIZE.bit.MULTI_PACKET_SIZE;
    6916:	4a93      	ldr	r2, [pc, #588]	; (6b64 <_usb_host_interrupt_handler+0x304>)
    6918:	687b      	ldr	r3, [r7, #4]
    691a:	015b      	lsls	r3, r3, #5
    691c:	18d3      	adds	r3, r2, r3
    691e:	685b      	ldr	r3, [r3, #4]
    6920:	0b9b      	lsrs	r3, r3, #14
    6922:	049b      	lsls	r3, r3, #18
    6924:	0c9b      	lsrs	r3, r3, #18
    6926:	b29b      	uxth	r3, r3
    6928:	1c1a      	adds	r2, r3, #0
    692a:	4b8d      	ldr	r3, [pc, #564]	; (6b60 <_usb_host_interrupt_handler+0x300>)
    692c:	809a      	strh	r2, [r3, #4]
					usb_descriptor_table.usb_pipe_table[pipe_int].HostDescBank[0].PCKSIZE.bit.BYTE_COUNT = 0;
    692e:	4a8d      	ldr	r2, [pc, #564]	; (6b64 <_usb_host_interrupt_handler+0x304>)
    6930:	687b      	ldr	r3, [r7, #4]
    6932:	015b      	lsls	r3, r3, #5
    6934:	18d3      	adds	r3, r2, r3
    6936:	685a      	ldr	r2, [r3, #4]
    6938:	0b92      	lsrs	r2, r2, #14
    693a:	0392      	lsls	r2, r2, #14
    693c:	605a      	str	r2, [r3, #4]
    693e:	e02d      	b.n	699c <_usb_host_interrupt_handler+0x13c>
				} else {
					/* out */
					pipe_callback_para.transfered_size = usb_descriptor_table.usb_pipe_table[pipe_int].HostDescBank[0].PCKSIZE.bit.MULTI_PACKET_SIZE;
    6940:	4a88      	ldr	r2, [pc, #544]	; (6b64 <_usb_host_interrupt_handler+0x304>)
    6942:	687b      	ldr	r3, [r7, #4]
    6944:	015b      	lsls	r3, r3, #5
    6946:	18d3      	adds	r3, r2, r3
    6948:	685b      	ldr	r3, [r3, #4]
    694a:	0b9b      	lsrs	r3, r3, #14
    694c:	049b      	lsls	r3, r3, #18
    694e:	0c9b      	lsrs	r3, r3, #18
    6950:	b29b      	uxth	r3, r3
    6952:	1c1a      	adds	r2, r3, #0
    6954:	4b82      	ldr	r3, [pc, #520]	; (6b60 <_usb_host_interrupt_handler+0x300>)
    6956:	805a      	strh	r2, [r3, #2]
					pipe_callback_para.required_size = usb_descriptor_table.usb_pipe_table[pipe_int].HostDescBank[0].PCKSIZE.bit.BYTE_COUNT;
    6958:	4a82      	ldr	r2, [pc, #520]	; (6b64 <_usb_host_interrupt_handler+0x304>)
    695a:	687b      	ldr	r3, [r7, #4]
    695c:	015b      	lsls	r3, r3, #5
    695e:	18d3      	adds	r3, r2, r3
    6960:	685b      	ldr	r3, [r3, #4]
    6962:	049b      	lsls	r3, r3, #18
    6964:	0c9b      	lsrs	r3, r3, #18
    6966:	b29b      	uxth	r3, r3
    6968:	1c1a      	adds	r2, r3, #0
    696a:	4b7d      	ldr	r3, [pc, #500]	; (6b60 <_usb_host_interrupt_handler+0x300>)
    696c:	809a      	strh	r2, [r3, #4]
					usb_descriptor_table.usb_pipe_table[pipe_int].HostDescBank[0].PCKSIZE.bit.MULTI_PACKET_SIZE = 0;
    696e:	4a7d      	ldr	r2, [pc, #500]	; (6b64 <_usb_host_interrupt_handler+0x304>)
    6970:	687b      	ldr	r3, [r7, #4]
    6972:	015b      	lsls	r3, r3, #5
    6974:	18d3      	adds	r3, r2, r3
    6976:	685a      	ldr	r2, [r3, #4]
    6978:	497b      	ldr	r1, [pc, #492]	; (6b68 <_usb_host_interrupt_handler+0x308>)
    697a:	400a      	ands	r2, r1
    697c:	605a      	str	r2, [r3, #4]
					if (0 == pipe_callback_para.transfered_size) {
    697e:	4b78      	ldr	r3, [pc, #480]	; (6b60 <_usb_host_interrupt_handler+0x300>)
    6980:	885b      	ldrh	r3, [r3, #2]
    6982:	2b00      	cmp	r3, #0
    6984:	d10a      	bne.n	699c <_usb_host_interrupt_handler+0x13c>
						pipe_callback_para.transfered_size = usb_descriptor_table.usb_pipe_table[pipe_int].HostDescBank[0].PCKSIZE.bit.BYTE_COUNT;
    6986:	4a77      	ldr	r2, [pc, #476]	; (6b64 <_usb_host_interrupt_handler+0x304>)
    6988:	687b      	ldr	r3, [r7, #4]
    698a:	015b      	lsls	r3, r3, #5
    698c:	18d3      	adds	r3, r2, r3
    698e:	685b      	ldr	r3, [r3, #4]
    6990:	049b      	lsls	r3, r3, #18
    6992:	0c9b      	lsrs	r3, r3, #18
    6994:	b29b      	uxth	r3, r3
    6996:	1c1a      	adds	r2, r3, #0
    6998:	4b71      	ldr	r3, [pc, #452]	; (6b60 <_usb_host_interrupt_handler+0x300>)
    699a:	805a      	strh	r2, [r3, #2]
					}
				}
				(_usb_instances->host_pipe_callback[pipe_int]
    699c:	4b6d      	ldr	r3, [pc, #436]	; (6b54 <_usb_host_interrupt_handler+0x2f4>)
    699e:	681a      	ldr	r2, [r3, #0]
						[USB_HOST_PIPE_CALLBACK_TRANSFER_COMPLETE])(_usb_instances, &pipe_callback_para);
    69a0:	687b      	ldr	r3, [r7, #4]
    69a2:	3302      	adds	r3, #2
    69a4:	011b      	lsls	r3, r3, #4
    69a6:	18d3      	adds	r3, r2, r3
    69a8:	685a      	ldr	r2, [r3, #4]
					usb_descriptor_table.usb_pipe_table[pipe_int].HostDescBank[0].PCKSIZE.bit.MULTI_PACKET_SIZE = 0;
					if (0 == pipe_callback_para.transfered_size) {
						pipe_callback_para.transfered_size = usb_descriptor_table.usb_pipe_table[pipe_int].HostDescBank[0].PCKSIZE.bit.BYTE_COUNT;
					}
				}
				(_usb_instances->host_pipe_callback[pipe_int]
    69aa:	4b6a      	ldr	r3, [pc, #424]	; (6b54 <_usb_host_interrupt_handler+0x2f4>)
    69ac:	6819      	ldr	r1, [r3, #0]
    69ae:	4b6c      	ldr	r3, [pc, #432]	; (6b60 <_usb_host_interrupt_handler+0x300>)
    69b0:	1c08      	adds	r0, r1, #0
    69b2:	1c19      	adds	r1, r3, #0
    69b4:	4790      	blx	r2
						[USB_HOST_PIPE_CALLBACK_TRANSFER_COMPLETE])(_usb_instances, &pipe_callback_para);
			}
		}

		/* host pipe transfer fail interrupt */
		if (flags & USB_HOST_PINTFLAG_TRFAIL) {
    69b6:	683b      	ldr	r3, [r7, #0]
    69b8:	2204      	movs	r2, #4
    69ba:	4013      	ands	r3, r2
    69bc:	d013      	beq.n	69e6 <_usb_host_interrupt_handler+0x186>
			/* Clear busy status */
			host_pipe_job_busy_status &= ~(1 << pipe_int);
    69be:	687b      	ldr	r3, [r7, #4]
    69c0:	2201      	movs	r2, #1
    69c2:	409a      	lsls	r2, r3
    69c4:	1c13      	adds	r3, r2, #0
    69c6:	43db      	mvns	r3, r3
    69c8:	1c1a      	adds	r2, r3, #0
    69ca:	4b64      	ldr	r3, [pc, #400]	; (6b5c <_usb_host_interrupt_handler+0x2fc>)
    69cc:	681b      	ldr	r3, [r3, #0]
    69ce:	401a      	ands	r2, r3
    69d0:	4b62      	ldr	r3, [pc, #392]	; (6b5c <_usb_host_interrupt_handler+0x2fc>)
    69d2:	601a      	str	r2, [r3, #0]
			/* clear the flag */
			_usb_instances->hw->HOST.HostPipe[pipe_int].PINTFLAG.reg =
    69d4:	4b5f      	ldr	r3, [pc, #380]	; (6b54 <_usb_host_interrupt_handler+0x2f4>)
    69d6:	681b      	ldr	r3, [r3, #0]
    69d8:	681a      	ldr	r2, [r3, #0]
    69da:	687b      	ldr	r3, [r7, #4]
    69dc:	3308      	adds	r3, #8
    69de:	015b      	lsls	r3, r3, #5
    69e0:	18d3      	adds	r3, r2, r3
    69e2:	2204      	movs	r2, #4
    69e4:	71da      	strb	r2, [r3, #7]
					USB_HOST_PINTFLAG_TRFAIL;
		}

		/* host pipe error interrupt */
		if (flags & USB_HOST_PINTFLAG_PERR) {
    69e6:	683b      	ldr	r3, [r7, #0]
    69e8:	2208      	movs	r2, #8
    69ea:	4013      	ands	r3, r2
    69ec:	d03c      	beq.n	6a68 <_usb_host_interrupt_handler+0x208>
			/* Clear busy status */
			host_pipe_job_busy_status &= ~(1 << pipe_int);
    69ee:	687b      	ldr	r3, [r7, #4]
    69f0:	2201      	movs	r2, #1
    69f2:	409a      	lsls	r2, r3
    69f4:	1c13      	adds	r3, r2, #0
    69f6:	43db      	mvns	r3, r3
    69f8:	1c1a      	adds	r2, r3, #0
    69fa:	4b58      	ldr	r3, [pc, #352]	; (6b5c <_usb_host_interrupt_handler+0x2fc>)
    69fc:	681b      	ldr	r3, [r3, #0]
    69fe:	401a      	ands	r2, r3
    6a00:	4b56      	ldr	r3, [pc, #344]	; (6b5c <_usb_host_interrupt_handler+0x2fc>)
    6a02:	601a      	str	r2, [r3, #0]
			/* clear the flag */
			_usb_instances->hw->HOST.HostPipe[pipe_int].PINTFLAG.reg =
    6a04:	4b53      	ldr	r3, [pc, #332]	; (6b54 <_usb_host_interrupt_handler+0x2f4>)
    6a06:	681b      	ldr	r3, [r3, #0]
    6a08:	681a      	ldr	r2, [r3, #0]
    6a0a:	687b      	ldr	r3, [r7, #4]
    6a0c:	3308      	adds	r3, #8
    6a0e:	015b      	lsls	r3, r3, #5
    6a10:	18d3      	adds	r3, r2, r3
    6a12:	2208      	movs	r2, #8
    6a14:	71da      	strb	r2, [r3, #7]
					USB_HOST_PINTFLAG_PERR;
			if(_usb_instances->host_pipe_enabled_callback_mask[pipe_int] &
    6a16:	4b4f      	ldr	r3, [pc, #316]	; (6b54 <_usb_host_interrupt_handler+0x2f4>)
    6a18:	681a      	ldr	r2, [r3, #0]
    6a1a:	21a8      	movs	r1, #168	; 0xa8
    6a1c:	687b      	ldr	r3, [r7, #4]
    6a1e:	18d3      	adds	r3, r2, r3
    6a20:	185b      	adds	r3, r3, r1
    6a22:	799b      	ldrb	r3, [r3, #6]
    6a24:	1c1a      	adds	r2, r3, #0
    6a26:	2302      	movs	r3, #2
    6a28:	4013      	ands	r3, r2
    6a2a:	d01d      	beq.n	6a68 <_usb_host_interrupt_handler+0x208>
					(1 << USB_HOST_PIPE_CALLBACK_ERROR)) {
				pipe_callback_para.pipe_num = pipe_int;
    6a2c:	687b      	ldr	r3, [r7, #4]
    6a2e:	b2da      	uxtb	r2, r3
    6a30:	4b4b      	ldr	r3, [pc, #300]	; (6b60 <_usb_host_interrupt_handler+0x300>)
    6a32:	701a      	strb	r2, [r3, #0]
				pipe_callback_para.pipe_error_status =
						usb_descriptor_table.usb_pipe_table[pipe_int].HostDescBank[0].STATUS_PIPE.reg & 0x1F;
    6a34:	4a4b      	ldr	r2, [pc, #300]	; (6b64 <_usb_host_interrupt_handler+0x304>)
    6a36:	687b      	ldr	r3, [r7, #4]
    6a38:	015b      	lsls	r3, r3, #5
    6a3a:	18d3      	adds	r3, r2, r3
    6a3c:	3308      	adds	r3, #8
    6a3e:	88db      	ldrh	r3, [r3, #6]
    6a40:	b29b      	uxth	r3, r3
			_usb_instances->hw->HOST.HostPipe[pipe_int].PINTFLAG.reg =
					USB_HOST_PINTFLAG_PERR;
			if(_usb_instances->host_pipe_enabled_callback_mask[pipe_int] &
					(1 << USB_HOST_PIPE_CALLBACK_ERROR)) {
				pipe_callback_para.pipe_num = pipe_int;
				pipe_callback_para.pipe_error_status =
    6a42:	b2db      	uxtb	r3, r3
    6a44:	221f      	movs	r2, #31
    6a46:	4013      	ands	r3, r2
    6a48:	b2da      	uxtb	r2, r3
    6a4a:	4b45      	ldr	r3, [pc, #276]	; (6b60 <_usb_host_interrupt_handler+0x300>)
    6a4c:	705a      	strb	r2, [r3, #1]
						usb_descriptor_table.usb_pipe_table[pipe_int].HostDescBank[0].STATUS_PIPE.reg & 0x1F;
				(_usb_instances->host_pipe_callback[pipe_int]
    6a4e:	4b41      	ldr	r3, [pc, #260]	; (6b54 <_usb_host_interrupt_handler+0x2f4>)
    6a50:	681a      	ldr	r2, [r3, #0]
						[USB_HOST_PIPE_CALLBACK_ERROR])(_usb_instances, &pipe_callback_para);
    6a52:	687b      	ldr	r3, [r7, #4]
    6a54:	011b      	lsls	r3, r3, #4
    6a56:	18d3      	adds	r3, r2, r3
    6a58:	3324      	adds	r3, #36	; 0x24
    6a5a:	685a      	ldr	r2, [r3, #4]
			if(_usb_instances->host_pipe_enabled_callback_mask[pipe_int] &
					(1 << USB_HOST_PIPE_CALLBACK_ERROR)) {
				pipe_callback_para.pipe_num = pipe_int;
				pipe_callback_para.pipe_error_status =
						usb_descriptor_table.usb_pipe_table[pipe_int].HostDescBank[0].STATUS_PIPE.reg & 0x1F;
				(_usb_instances->host_pipe_callback[pipe_int]
    6a5c:	4b3d      	ldr	r3, [pc, #244]	; (6b54 <_usb_host_interrupt_handler+0x2f4>)
    6a5e:	6819      	ldr	r1, [r3, #0]
    6a60:	4b3f      	ldr	r3, [pc, #252]	; (6b60 <_usb_host_interrupt_handler+0x300>)
    6a62:	1c08      	adds	r0, r1, #0
    6a64:	1c19      	adds	r1, r3, #0
    6a66:	4790      	blx	r2
						[USB_HOST_PIPE_CALLBACK_ERROR])(_usb_instances, &pipe_callback_para);
			}
		}

		/* host pipe transmitted setup interrupt */
		if (flags & USB_HOST_PINTFLAG_TXSTP) {
    6a68:	683b      	ldr	r3, [r7, #0]
    6a6a:	2210      	movs	r2, #16
    6a6c:	4013      	ands	r3, r2
    6a6e:	d03a      	beq.n	6ae6 <_usb_host_interrupt_handler+0x286>
			/* Clear busy status */
			host_pipe_job_busy_status &= ~(1 << pipe_int);
    6a70:	687b      	ldr	r3, [r7, #4]
    6a72:	2201      	movs	r2, #1
    6a74:	409a      	lsls	r2, r3
    6a76:	1c13      	adds	r3, r2, #0
    6a78:	43db      	mvns	r3, r3
    6a7a:	1c1a      	adds	r2, r3, #0
    6a7c:	4b37      	ldr	r3, [pc, #220]	; (6b5c <_usb_host_interrupt_handler+0x2fc>)
    6a7e:	681b      	ldr	r3, [r3, #0]
    6a80:	401a      	ands	r2, r3
    6a82:	4b36      	ldr	r3, [pc, #216]	; (6b5c <_usb_host_interrupt_handler+0x2fc>)
    6a84:	601a      	str	r2, [r3, #0]
			/* clear the flag */
			_usb_instances->hw->HOST.HostPipe[pipe_int].PINTFLAG.reg =
    6a86:	4b33      	ldr	r3, [pc, #204]	; (6b54 <_usb_host_interrupt_handler+0x2f4>)
    6a88:	681b      	ldr	r3, [r3, #0]
    6a8a:	681a      	ldr	r2, [r3, #0]
    6a8c:	687b      	ldr	r3, [r7, #4]
    6a8e:	3308      	adds	r3, #8
    6a90:	015b      	lsls	r3, r3, #5
    6a92:	18d3      	adds	r3, r2, r3
    6a94:	2210      	movs	r2, #16
    6a96:	71da      	strb	r2, [r3, #7]
					USB_HOST_PINTFLAG_TXSTP;
			if(_usb_instances->host_pipe_enabled_callback_mask[pipe_int] &
    6a98:	4b2e      	ldr	r3, [pc, #184]	; (6b54 <_usb_host_interrupt_handler+0x2f4>)
    6a9a:	681a      	ldr	r2, [r3, #0]
    6a9c:	21a8      	movs	r1, #168	; 0xa8
    6a9e:	687b      	ldr	r3, [r7, #4]
    6aa0:	18d3      	adds	r3, r2, r3
    6aa2:	185b      	adds	r3, r3, r1
    6aa4:	799b      	ldrb	r3, [r3, #6]
    6aa6:	1c1a      	adds	r2, r3, #0
    6aa8:	2304      	movs	r3, #4
    6aaa:	4013      	ands	r3, r2
    6aac:	d01b      	beq.n	6ae6 <_usb_host_interrupt_handler+0x286>
					(1 << USB_HOST_PIPE_CALLBACK_SETUP)) {
				pipe_callback_para.pipe_num = pipe_int;
    6aae:	687b      	ldr	r3, [r7, #4]
    6ab0:	b2da      	uxtb	r2, r3
    6ab2:	4b2b      	ldr	r3, [pc, #172]	; (6b60 <_usb_host_interrupt_handler+0x300>)
    6ab4:	701a      	strb	r2, [r3, #0]
				pipe_callback_para.transfered_size = usb_descriptor_table.usb_pipe_table[pipe_int].HostDescBank[0].PCKSIZE.bit.MULTI_PACKET_SIZE;
    6ab6:	4a2b      	ldr	r2, [pc, #172]	; (6b64 <_usb_host_interrupt_handler+0x304>)
    6ab8:	687b      	ldr	r3, [r7, #4]
    6aba:	015b      	lsls	r3, r3, #5
    6abc:	18d3      	adds	r3, r2, r3
    6abe:	685b      	ldr	r3, [r3, #4]
    6ac0:	0b9b      	lsrs	r3, r3, #14
    6ac2:	049b      	lsls	r3, r3, #18
    6ac4:	0c9b      	lsrs	r3, r3, #18
    6ac6:	b29b      	uxth	r3, r3
    6ac8:	1c1a      	adds	r2, r3, #0
    6aca:	4b25      	ldr	r3, [pc, #148]	; (6b60 <_usb_host_interrupt_handler+0x300>)
    6acc:	805a      	strh	r2, [r3, #2]
				(_usb_instances->host_pipe_callback[pipe_int]
    6ace:	4b21      	ldr	r3, [pc, #132]	; (6b54 <_usb_host_interrupt_handler+0x2f4>)
    6ad0:	681a      	ldr	r2, [r3, #0]
						[USB_HOST_PIPE_CALLBACK_SETUP])(_usb_instances, NULL);
    6ad2:	687b      	ldr	r3, [r7, #4]
    6ad4:	011b      	lsls	r3, r3, #4
    6ad6:	18d3      	adds	r3, r2, r3
    6ad8:	3328      	adds	r3, #40	; 0x28
    6ada:	685a      	ldr	r2, [r3, #4]
					USB_HOST_PINTFLAG_TXSTP;
			if(_usb_instances->host_pipe_enabled_callback_mask[pipe_int] &
					(1 << USB_HOST_PIPE_CALLBACK_SETUP)) {
				pipe_callback_para.pipe_num = pipe_int;
				pipe_callback_para.transfered_size = usb_descriptor_table.usb_pipe_table[pipe_int].HostDescBank[0].PCKSIZE.bit.MULTI_PACKET_SIZE;
				(_usb_instances->host_pipe_callback[pipe_int]
    6adc:	4b1d      	ldr	r3, [pc, #116]	; (6b54 <_usb_host_interrupt_handler+0x2f4>)
    6ade:	681b      	ldr	r3, [r3, #0]
    6ae0:	1c18      	adds	r0, r3, #0
    6ae2:	2100      	movs	r1, #0
    6ae4:	4790      	blx	r2
						[USB_HOST_PIPE_CALLBACK_SETUP])(_usb_instances, NULL);
			}
		}

		/* host pipe stall interrupt */
		if (flags & USB_HOST_PINTFLAG_STALL) {
    6ae6:	683b      	ldr	r3, [r7, #0]
    6ae8:	2220      	movs	r2, #32
    6aea:	4013      	ands	r3, r2
    6aec:	d100      	bne.n	6af0 <_usb_host_interrupt_handler+0x290>
    6aee:	e113      	b.n	6d18 <_usb_host_interrupt_handler+0x4b8>
			/* Clear busy status */
			host_pipe_job_busy_status &= ~(1 << pipe_int);
    6af0:	687b      	ldr	r3, [r7, #4]
    6af2:	2201      	movs	r2, #1
    6af4:	409a      	lsls	r2, r3
    6af6:	1c13      	adds	r3, r2, #0
    6af8:	43db      	mvns	r3, r3
    6afa:	1c1a      	adds	r2, r3, #0
    6afc:	4b17      	ldr	r3, [pc, #92]	; (6b5c <_usb_host_interrupt_handler+0x2fc>)
    6afe:	681b      	ldr	r3, [r3, #0]
    6b00:	401a      	ands	r2, r3
    6b02:	4b16      	ldr	r3, [pc, #88]	; (6b5c <_usb_host_interrupt_handler+0x2fc>)
    6b04:	601a      	str	r2, [r3, #0]
			/* clear the flag */
			_usb_instances->hw->HOST.HostPipe[pipe_int].PINTFLAG.reg =
    6b06:	4b13      	ldr	r3, [pc, #76]	; (6b54 <_usb_host_interrupt_handler+0x2f4>)
    6b08:	681b      	ldr	r3, [r3, #0]
    6b0a:	681a      	ldr	r2, [r3, #0]
    6b0c:	687b      	ldr	r3, [r7, #4]
    6b0e:	3308      	adds	r3, #8
    6b10:	015b      	lsls	r3, r3, #5
    6b12:	18d3      	adds	r3, r2, r3
    6b14:	2220      	movs	r2, #32
    6b16:	71da      	strb	r2, [r3, #7]
					USB_HOST_PINTFLAG_STALL;
			if(_usb_instances->host_pipe_enabled_callback_mask[pipe_int] &
    6b18:	4b0e      	ldr	r3, [pc, #56]	; (6b54 <_usb_host_interrupt_handler+0x2f4>)
    6b1a:	681a      	ldr	r2, [r3, #0]
    6b1c:	21a8      	movs	r1, #168	; 0xa8
    6b1e:	687b      	ldr	r3, [r7, #4]
    6b20:	18d3      	adds	r3, r2, r3
    6b22:	185b      	adds	r3, r3, r1
    6b24:	799b      	ldrb	r3, [r3, #6]
    6b26:	1c1a      	adds	r2, r3, #0
    6b28:	2308      	movs	r3, #8
    6b2a:	4013      	ands	r3, r2
    6b2c:	d100      	bne.n	6b30 <_usb_host_interrupt_handler+0x2d0>
    6b2e:	e0f3      	b.n	6d18 <_usb_host_interrupt_handler+0x4b8>
					(1 << USB_HOST_PIPE_CALLBACK_STALL)) {
				pipe_callback_para.pipe_num = pipe_int;
    6b30:	687b      	ldr	r3, [r7, #4]
    6b32:	b2da      	uxtb	r2, r3
    6b34:	4b0a      	ldr	r3, [pc, #40]	; (6b60 <_usb_host_interrupt_handler+0x300>)
    6b36:	701a      	strb	r2, [r3, #0]
				(_usb_instances->host_pipe_callback[pipe_int]
    6b38:	4b06      	ldr	r3, [pc, #24]	; (6b54 <_usb_host_interrupt_handler+0x2f4>)
    6b3a:	681a      	ldr	r2, [r3, #0]
						[USB_HOST_PIPE_CALLBACK_STALL])(_usb_instances, &pipe_callback_para);
    6b3c:	687b      	ldr	r3, [r7, #4]
    6b3e:	011b      	lsls	r3, r3, #4
    6b40:	18d3      	adds	r3, r2, r3
    6b42:	332c      	adds	r3, #44	; 0x2c
    6b44:	685a      	ldr	r2, [r3, #4]
			_usb_instances->hw->HOST.HostPipe[pipe_int].PINTFLAG.reg =
					USB_HOST_PINTFLAG_STALL;
			if(_usb_instances->host_pipe_enabled_callback_mask[pipe_int] &
					(1 << USB_HOST_PIPE_CALLBACK_STALL)) {
				pipe_callback_para.pipe_num = pipe_int;
				(_usb_instances->host_pipe_callback[pipe_int]
    6b46:	4b03      	ldr	r3, [pc, #12]	; (6b54 <_usb_host_interrupt_handler+0x2f4>)
    6b48:	6819      	ldr	r1, [r3, #0]
    6b4a:	4b05      	ldr	r3, [pc, #20]	; (6b60 <_usb_host_interrupt_handler+0x300>)
    6b4c:	1c08      	adds	r0, r1, #0
    6b4e:	1c19      	adds	r1, r3, #0
    6b50:	4790      	blx	r2
    6b52:	e0e1      	b.n	6d18 <_usb_host_interrupt_handler+0x4b8>
    6b54:	20000194 	.word	0x20000194
    6b58:	00008b59 	.word	0x00008b59
    6b5c:	200001ac 	.word	0x200001ac
    6b60:	20000198 	.word	0x20000198
    6b64:	2000047c 	.word	0x2000047c
    6b68:	f0003fff 	.word	0xf0003fff

	} else {
		/* host interrupts */

		/* get interrupt flags */
		flags = _usb_instances->hw->HOST.INTFLAG.reg;
    6b6c:	4b6c      	ldr	r3, [pc, #432]	; (6d20 <_usb_host_interrupt_handler+0x4c0>)
    6b6e:	681b      	ldr	r3, [r3, #0]
    6b70:	681b      	ldr	r3, [r3, #0]
    6b72:	8b9b      	ldrh	r3, [r3, #28]
    6b74:	b29b      	uxth	r3, r3
    6b76:	603b      	str	r3, [r7, #0]

		/* host SOF interrupt */
		if (flags & USB_HOST_INTFLAG_HSOF) {
    6b78:	683b      	ldr	r3, [r7, #0]
    6b7a:	2204      	movs	r2, #4
    6b7c:	4013      	ands	r3, r2
    6b7e:	d013      	beq.n	6ba8 <_usb_host_interrupt_handler+0x348>
			/* clear the flag */
			_usb_instances->hw->HOST.INTFLAG.reg = USB_HOST_INTFLAG_HSOF;
    6b80:	4b67      	ldr	r3, [pc, #412]	; (6d20 <_usb_host_interrupt_handler+0x4c0>)
    6b82:	681b      	ldr	r3, [r3, #0]
    6b84:	681b      	ldr	r3, [r3, #0]
    6b86:	2204      	movs	r2, #4
    6b88:	839a      	strh	r2, [r3, #28]
			if(_usb_instances->host_enabled_callback_mask & (1 << USB_HOST_CALLBACK_SOF)) {
    6b8a:	4b65      	ldr	r3, [pc, #404]	; (6d20 <_usb_host_interrupt_handler+0x4c0>)
    6b8c:	681b      	ldr	r3, [r3, #0]
    6b8e:	22a5      	movs	r2, #165	; 0xa5
    6b90:	5c9b      	ldrb	r3, [r3, r2]
    6b92:	1c1a      	adds	r2, r3, #0
    6b94:	2301      	movs	r3, #1
    6b96:	4013      	ands	r3, r2
    6b98:	d006      	beq.n	6ba8 <_usb_host_interrupt_handler+0x348>
				(_usb_instances->host_callback[USB_HOST_CALLBACK_SOF])(_usb_instances);
    6b9a:	4b61      	ldr	r3, [pc, #388]	; (6d20 <_usb_host_interrupt_handler+0x4c0>)
    6b9c:	681b      	ldr	r3, [r3, #0]
    6b9e:	685a      	ldr	r2, [r3, #4]
    6ba0:	4b5f      	ldr	r3, [pc, #380]	; (6d20 <_usb_host_interrupt_handler+0x4c0>)
    6ba2:	681b      	ldr	r3, [r3, #0]
    6ba4:	1c18      	adds	r0, r3, #0
    6ba6:	4790      	blx	r2
			}
		}

		/* host reset interrupt */
		if (flags & USB_HOST_INTFLAG_RST) {
    6ba8:	683b      	ldr	r3, [r7, #0]
    6baa:	2208      	movs	r2, #8
    6bac:	4013      	ands	r3, r2
    6bae:	d016      	beq.n	6bde <_usb_host_interrupt_handler+0x37e>
			/* Clear busy status */
			host_pipe_job_busy_status = 0;
    6bb0:	4b5c      	ldr	r3, [pc, #368]	; (6d24 <_usb_host_interrupt_handler+0x4c4>)
    6bb2:	2200      	movs	r2, #0
    6bb4:	601a      	str	r2, [r3, #0]
			/* clear the flag */
			_usb_instances->hw->HOST.INTFLAG.reg = USB_HOST_INTFLAG_RST;
    6bb6:	4b5a      	ldr	r3, [pc, #360]	; (6d20 <_usb_host_interrupt_handler+0x4c0>)
    6bb8:	681b      	ldr	r3, [r3, #0]
    6bba:	681b      	ldr	r3, [r3, #0]
    6bbc:	2208      	movs	r2, #8
    6bbe:	839a      	strh	r2, [r3, #28]
			if(_usb_instances->host_enabled_callback_mask & (1 << USB_HOST_CALLBACK_RESET)) {
    6bc0:	4b57      	ldr	r3, [pc, #348]	; (6d20 <_usb_host_interrupt_handler+0x4c0>)
    6bc2:	681b      	ldr	r3, [r3, #0]
    6bc4:	22a5      	movs	r2, #165	; 0xa5
    6bc6:	5c9b      	ldrb	r3, [r3, r2]
    6bc8:	1c1a      	adds	r2, r3, #0
    6bca:	2302      	movs	r3, #2
    6bcc:	4013      	ands	r3, r2
    6bce:	d006      	beq.n	6bde <_usb_host_interrupt_handler+0x37e>
				(_usb_instances->host_callback[USB_HOST_CALLBACK_RESET])(_usb_instances);
    6bd0:	4b53      	ldr	r3, [pc, #332]	; (6d20 <_usb_host_interrupt_handler+0x4c0>)
    6bd2:	681b      	ldr	r3, [r3, #0]
    6bd4:	689a      	ldr	r2, [r3, #8]
    6bd6:	4b52      	ldr	r3, [pc, #328]	; (6d20 <_usb_host_interrupt_handler+0x4c0>)
    6bd8:	681b      	ldr	r3, [r3, #0]
    6bda:	1c18      	adds	r0, r3, #0
    6bdc:	4790      	blx	r2
			}
		}

		/* host upstream resume interrupts */
		if (flags & USB_HOST_INTFLAG_UPRSM) {
    6bde:	683b      	ldr	r3, [r7, #0]
    6be0:	2240      	movs	r2, #64	; 0x40
    6be2:	4013      	ands	r3, r2
    6be4:	d013      	beq.n	6c0e <_usb_host_interrupt_handler+0x3ae>
			/* clear the flags */
			_usb_instances->hw->HOST.INTFLAG.reg = USB_HOST_INTFLAG_UPRSM;
    6be6:	4b4e      	ldr	r3, [pc, #312]	; (6d20 <_usb_host_interrupt_handler+0x4c0>)
    6be8:	681b      	ldr	r3, [r3, #0]
    6bea:	681b      	ldr	r3, [r3, #0]
    6bec:	2240      	movs	r2, #64	; 0x40
    6bee:	839a      	strh	r2, [r3, #28]
			if(_usb_instances->host_enabled_callback_mask & (1 << USB_HOST_CALLBACK_UPRSM)) {
    6bf0:	4b4b      	ldr	r3, [pc, #300]	; (6d20 <_usb_host_interrupt_handler+0x4c0>)
    6bf2:	681b      	ldr	r3, [r3, #0]
    6bf4:	22a5      	movs	r2, #165	; 0xa5
    6bf6:	5c9b      	ldrb	r3, [r3, r2]
    6bf8:	1c1a      	adds	r2, r3, #0
    6bfa:	2310      	movs	r3, #16
    6bfc:	4013      	ands	r3, r2
    6bfe:	d006      	beq.n	6c0e <_usb_host_interrupt_handler+0x3ae>
				(_usb_instances->host_callback[USB_HOST_CALLBACK_UPRSM])(_usb_instances);
    6c00:	4b47      	ldr	r3, [pc, #284]	; (6d20 <_usb_host_interrupt_handler+0x4c0>)
    6c02:	681b      	ldr	r3, [r3, #0]
    6c04:	695a      	ldr	r2, [r3, #20]
    6c06:	4b46      	ldr	r3, [pc, #280]	; (6d20 <_usb_host_interrupt_handler+0x4c0>)
    6c08:	681b      	ldr	r3, [r3, #0]
    6c0a:	1c18      	adds	r0, r3, #0
    6c0c:	4790      	blx	r2
			}
		}

		/* host downstream resume interrupts */
		if (flags & USB_HOST_INTFLAG_DNRSM) {
    6c0e:	683b      	ldr	r3, [r7, #0]
    6c10:	2220      	movs	r2, #32
    6c12:	4013      	ands	r3, r2
    6c14:	d013      	beq.n	6c3e <_usb_host_interrupt_handler+0x3de>
			/* clear the flags */
			_usb_instances->hw->HOST.INTFLAG.reg = USB_HOST_INTFLAG_DNRSM;
    6c16:	4b42      	ldr	r3, [pc, #264]	; (6d20 <_usb_host_interrupt_handler+0x4c0>)
    6c18:	681b      	ldr	r3, [r3, #0]
    6c1a:	681b      	ldr	r3, [r3, #0]
    6c1c:	2220      	movs	r2, #32
    6c1e:	839a      	strh	r2, [r3, #28]
			if(_usb_instances->host_enabled_callback_mask & (1 << USB_HOST_CALLBACK_DNRSM)) {
    6c20:	4b3f      	ldr	r3, [pc, #252]	; (6d20 <_usb_host_interrupt_handler+0x4c0>)
    6c22:	681b      	ldr	r3, [r3, #0]
    6c24:	22a5      	movs	r2, #165	; 0xa5
    6c26:	5c9b      	ldrb	r3, [r3, r2]
    6c28:	1c1a      	adds	r2, r3, #0
    6c2a:	2308      	movs	r3, #8
    6c2c:	4013      	ands	r3, r2
    6c2e:	d006      	beq.n	6c3e <_usb_host_interrupt_handler+0x3de>
				(_usb_instances->host_callback[USB_HOST_CALLBACK_DNRSM])(_usb_instances);
    6c30:	4b3b      	ldr	r3, [pc, #236]	; (6d20 <_usb_host_interrupt_handler+0x4c0>)
    6c32:	681b      	ldr	r3, [r3, #0]
    6c34:	691a      	ldr	r2, [r3, #16]
    6c36:	4b3a      	ldr	r3, [pc, #232]	; (6d20 <_usb_host_interrupt_handler+0x4c0>)
    6c38:	681b      	ldr	r3, [r3, #0]
    6c3a:	1c18      	adds	r0, r3, #0
    6c3c:	4790      	blx	r2
			}
		}

		/* host wakeup interrupts */
		if (flags & USB_HOST_INTFLAG_WAKEUP) {
    6c3e:	683b      	ldr	r3, [r7, #0]
    6c40:	2210      	movs	r2, #16
    6c42:	4013      	ands	r3, r2
    6c44:	d013      	beq.n	6c6e <_usb_host_interrupt_handler+0x40e>
			/* clear the flags */
			_usb_instances->hw->HOST.INTFLAG.reg = USB_HOST_INTFLAG_WAKEUP;
    6c46:	4b36      	ldr	r3, [pc, #216]	; (6d20 <_usb_host_interrupt_handler+0x4c0>)
    6c48:	681b      	ldr	r3, [r3, #0]
    6c4a:	681b      	ldr	r3, [r3, #0]
    6c4c:	2210      	movs	r2, #16
    6c4e:	839a      	strh	r2, [r3, #28]
			if(_usb_instances->host_enabled_callback_mask & (1 << USB_HOST_CALLBACK_WAKEUP)) {
    6c50:	4b33      	ldr	r3, [pc, #204]	; (6d20 <_usb_host_interrupt_handler+0x4c0>)
    6c52:	681b      	ldr	r3, [r3, #0]
    6c54:	22a5      	movs	r2, #165	; 0xa5
    6c56:	5c9b      	ldrb	r3, [r3, r2]
    6c58:	1c1a      	adds	r2, r3, #0
    6c5a:	2304      	movs	r3, #4
    6c5c:	4013      	ands	r3, r2
    6c5e:	d006      	beq.n	6c6e <_usb_host_interrupt_handler+0x40e>
				(_usb_instances->host_callback[USB_HOST_CALLBACK_WAKEUP])(_usb_instances);
    6c60:	4b2f      	ldr	r3, [pc, #188]	; (6d20 <_usb_host_interrupt_handler+0x4c0>)
    6c62:	681b      	ldr	r3, [r3, #0]
    6c64:	68da      	ldr	r2, [r3, #12]
    6c66:	4b2e      	ldr	r3, [pc, #184]	; (6d20 <_usb_host_interrupt_handler+0x4c0>)
    6c68:	681b      	ldr	r3, [r3, #0]
    6c6a:	1c18      	adds	r0, r3, #0
    6c6c:	4790      	blx	r2
			}
		}

		/* host ram access interrupt  */
		if (flags & USB_HOST_INTFLAG_RAMACER) {
    6c6e:	683b      	ldr	r3, [r7, #0]
    6c70:	2280      	movs	r2, #128	; 0x80
    6c72:	4013      	ands	r3, r2
    6c74:	d016      	beq.n	6ca4 <_usb_host_interrupt_handler+0x444>
			/* Clear busy status */
			host_pipe_job_busy_status = 0;
    6c76:	4b2b      	ldr	r3, [pc, #172]	; (6d24 <_usb_host_interrupt_handler+0x4c4>)
    6c78:	2200      	movs	r2, #0
    6c7a:	601a      	str	r2, [r3, #0]
			/* clear the flag */
			_usb_instances->hw->HOST.INTFLAG.reg = USB_HOST_INTFLAG_RAMACER;
    6c7c:	4b28      	ldr	r3, [pc, #160]	; (6d20 <_usb_host_interrupt_handler+0x4c0>)
    6c7e:	681b      	ldr	r3, [r3, #0]
    6c80:	681b      	ldr	r3, [r3, #0]
    6c82:	2280      	movs	r2, #128	; 0x80
    6c84:	839a      	strh	r2, [r3, #28]
			if(_usb_instances->host_enabled_callback_mask & (1 << USB_HOST_CALLBACK_RAMACER)) {
    6c86:	4b26      	ldr	r3, [pc, #152]	; (6d20 <_usb_host_interrupt_handler+0x4c0>)
    6c88:	681b      	ldr	r3, [r3, #0]
    6c8a:	22a5      	movs	r2, #165	; 0xa5
    6c8c:	5c9b      	ldrb	r3, [r3, r2]
    6c8e:	1c1a      	adds	r2, r3, #0
    6c90:	2320      	movs	r3, #32
    6c92:	4013      	ands	r3, r2
    6c94:	d006      	beq.n	6ca4 <_usb_host_interrupt_handler+0x444>
				(_usb_instances->host_callback[USB_HOST_CALLBACK_RAMACER])(_usb_instances);
    6c96:	4b22      	ldr	r3, [pc, #136]	; (6d20 <_usb_host_interrupt_handler+0x4c0>)
    6c98:	681b      	ldr	r3, [r3, #0]
    6c9a:	699a      	ldr	r2, [r3, #24]
    6c9c:	4b20      	ldr	r3, [pc, #128]	; (6d20 <_usb_host_interrupt_handler+0x4c0>)
    6c9e:	681b      	ldr	r3, [r3, #0]
    6ca0:	1c18      	adds	r0, r3, #0
    6ca2:	4790      	blx	r2
			}
		}

		/* host connect interrupt */
		if (flags & USB_HOST_INTFLAG_DCONN) {
    6ca4:	683a      	ldr	r2, [r7, #0]
    6ca6:	2380      	movs	r3, #128	; 0x80
    6ca8:	005b      	lsls	r3, r3, #1
    6caa:	4013      	ands	r3, r2
    6cac:	d017      	beq.n	6cde <_usb_host_interrupt_handler+0x47e>
			/* Clear busy status */
			host_pipe_job_busy_status = 0;
    6cae:	4b1d      	ldr	r3, [pc, #116]	; (6d24 <_usb_host_interrupt_handler+0x4c4>)
    6cb0:	2200      	movs	r2, #0
    6cb2:	601a      	str	r2, [r3, #0]
			/* clear the flag */
			_usb_instances->hw->HOST.INTFLAG.reg = USB_HOST_INTFLAG_DCONN;
    6cb4:	4b1a      	ldr	r3, [pc, #104]	; (6d20 <_usb_host_interrupt_handler+0x4c0>)
    6cb6:	681b      	ldr	r3, [r3, #0]
    6cb8:	681b      	ldr	r3, [r3, #0]
    6cba:	2280      	movs	r2, #128	; 0x80
    6cbc:	0052      	lsls	r2, r2, #1
    6cbe:	839a      	strh	r2, [r3, #28]
			if(_usb_instances->host_enabled_callback_mask & (1 << USB_HOST_CALLBACK_CONNECT)) {
    6cc0:	4b17      	ldr	r3, [pc, #92]	; (6d20 <_usb_host_interrupt_handler+0x4c0>)
    6cc2:	681b      	ldr	r3, [r3, #0]
    6cc4:	22a5      	movs	r2, #165	; 0xa5
    6cc6:	5c9b      	ldrb	r3, [r3, r2]
    6cc8:	1c1a      	adds	r2, r3, #0
    6cca:	2340      	movs	r3, #64	; 0x40
    6ccc:	4013      	ands	r3, r2
    6cce:	d006      	beq.n	6cde <_usb_host_interrupt_handler+0x47e>
				(_usb_instances->host_callback[USB_HOST_CALLBACK_CONNECT])(_usb_instances);
    6cd0:	4b13      	ldr	r3, [pc, #76]	; (6d20 <_usb_host_interrupt_handler+0x4c0>)
    6cd2:	681b      	ldr	r3, [r3, #0]
    6cd4:	69da      	ldr	r2, [r3, #28]
    6cd6:	4b12      	ldr	r3, [pc, #72]	; (6d20 <_usb_host_interrupt_handler+0x4c0>)
    6cd8:	681b      	ldr	r3, [r3, #0]
    6cda:	1c18      	adds	r0, r3, #0
    6cdc:	4790      	blx	r2
			}
		}

		/* host disconnect interrupt 	*/
		if (flags & USB_HOST_INTFLAG_DDISC) {
    6cde:	683a      	ldr	r2, [r7, #0]
    6ce0:	2380      	movs	r3, #128	; 0x80
    6ce2:	009b      	lsls	r3, r3, #2
    6ce4:	4013      	ands	r3, r2
    6ce6:	d017      	beq.n	6d18 <_usb_host_interrupt_handler+0x4b8>
			/* Clear busy status */
			host_pipe_job_busy_status = 0;
    6ce8:	4b0e      	ldr	r3, [pc, #56]	; (6d24 <_usb_host_interrupt_handler+0x4c4>)
    6cea:	2200      	movs	r2, #0
    6cec:	601a      	str	r2, [r3, #0]
			/* clear the flag */
			_usb_instances->hw->HOST.INTFLAG.reg = USB_HOST_INTFLAG_DDISC;
    6cee:	4b0c      	ldr	r3, [pc, #48]	; (6d20 <_usb_host_interrupt_handler+0x4c0>)
    6cf0:	681b      	ldr	r3, [r3, #0]
    6cf2:	681b      	ldr	r3, [r3, #0]
    6cf4:	2280      	movs	r2, #128	; 0x80
    6cf6:	0092      	lsls	r2, r2, #2
    6cf8:	839a      	strh	r2, [r3, #28]
			if(_usb_instances->host_enabled_callback_mask & (1 << USB_HOST_CALLBACK_DISCONNECT)) {
    6cfa:	4b09      	ldr	r3, [pc, #36]	; (6d20 <_usb_host_interrupt_handler+0x4c0>)
    6cfc:	681b      	ldr	r3, [r3, #0]
    6cfe:	22a5      	movs	r2, #165	; 0xa5
    6d00:	5c9b      	ldrb	r3, [r3, r2]
    6d02:	b2db      	uxtb	r3, r3
    6d04:	b25b      	sxtb	r3, r3
    6d06:	2b00      	cmp	r3, #0
    6d08:	da06      	bge.n	6d18 <_usb_host_interrupt_handler+0x4b8>
				(_usb_instances->host_callback[USB_HOST_CALLBACK_DISCONNECT])(_usb_instances);
    6d0a:	4b05      	ldr	r3, [pc, #20]	; (6d20 <_usb_host_interrupt_handler+0x4c0>)
    6d0c:	681b      	ldr	r3, [r3, #0]
    6d0e:	6a1a      	ldr	r2, [r3, #32]
    6d10:	4b03      	ldr	r3, [pc, #12]	; (6d20 <_usb_host_interrupt_handler+0x4c0>)
    6d12:	681b      	ldr	r3, [r3, #0]
    6d14:	1c18      	adds	r0, r3, #0
    6d16:	4790      	blx	r2
			}
		}

	}
}
    6d18:	46bd      	mov	sp, r7
    6d1a:	b002      	add	sp, #8
    6d1c:	bd80      	pop	{r7, pc}
    6d1e:	46c0      	nop			; (mov r8, r8)
    6d20:	20000194 	.word	0x20000194
    6d24:	200001ac 	.word	0x200001ac

00006d28 <usb_device_register_callback>:
 * \retval STATUS_OK    The callback was registered successfully.
 */
enum status_code usb_device_register_callback(struct usb_module *module_inst,
		enum usb_device_callback callback_type,
		usb_device_callback_t callback_func)
{
    6d28:	b580      	push	{r7, lr}
    6d2a:	b084      	sub	sp, #16
    6d2c:	af00      	add	r7, sp, #0
    6d2e:	60f8      	str	r0, [r7, #12]
    6d30:	607a      	str	r2, [r7, #4]
    6d32:	230b      	movs	r3, #11
    6d34:	18fb      	adds	r3, r7, r3
    6d36:	1c0a      	adds	r2, r1, #0
    6d38:	701a      	strb	r2, [r3, #0]
	/* Sanity check arguments */
	Assert(module_inst);
	Assert(callback_func);

	/* Register callback function */
	module_inst->device_callback[callback_type] = callback_func;
    6d3a:	230b      	movs	r3, #11
    6d3c:	18fb      	adds	r3, r7, r3
    6d3e:	781a      	ldrb	r2, [r3, #0]
    6d40:	68fb      	ldr	r3, [r7, #12]
    6d42:	322e      	adds	r2, #46	; 0x2e
    6d44:	0092      	lsls	r2, r2, #2
    6d46:	6879      	ldr	r1, [r7, #4]
    6d48:	50d1      	str	r1, [r2, r3]

	/* Set the bit corresponding to the callback_type */
	module_inst->device_registered_callback_mask |= _usb_device_irq_bits[callback_type];
    6d4a:	68fa      	ldr	r2, [r7, #12]
    6d4c:	23aa      	movs	r3, #170	; 0xaa
    6d4e:	005b      	lsls	r3, r3, #1
    6d50:	5ad2      	ldrh	r2, [r2, r3]
    6d52:	230b      	movs	r3, #11
    6d54:	18fb      	adds	r3, r7, r3
    6d56:	7819      	ldrb	r1, [r3, #0]
    6d58:	4b06      	ldr	r3, [pc, #24]	; (6d74 <usb_device_register_callback+0x4c>)
    6d5a:	0049      	lsls	r1, r1, #1
    6d5c:	5acb      	ldrh	r3, [r1, r3]
    6d5e:	4313      	orrs	r3, r2
    6d60:	b299      	uxth	r1, r3
    6d62:	68fa      	ldr	r2, [r7, #12]
    6d64:	23aa      	movs	r3, #170	; 0xaa
    6d66:	005b      	lsls	r3, r3, #1
    6d68:	52d1      	strh	r1, [r2, r3]

	return STATUS_OK;
    6d6a:	2300      	movs	r3, #0
}
    6d6c:	1c18      	adds	r0, r3, #0
    6d6e:	46bd      	mov	sp, r7
    6d70:	b004      	add	sp, #16
    6d72:	bd80      	pop	{r7, pc}
    6d74:	00008ce0 	.word	0x00008ce0

00006d78 <usb_device_enable_callback>:
 * \return Status of the callback enable operation.
 * \retval STATUS_OK    The callback was enabled successfully.
 */
enum status_code usb_device_enable_callback(struct usb_module *module_inst,
		enum usb_device_callback callback_type)
{
    6d78:	b580      	push	{r7, lr}
    6d7a:	b082      	sub	sp, #8
    6d7c:	af00      	add	r7, sp, #0
    6d7e:	6078      	str	r0, [r7, #4]
    6d80:	1c0a      	adds	r2, r1, #0
    6d82:	1cfb      	adds	r3, r7, #3
    6d84:	701a      	strb	r2, [r3, #0]
	/* Sanity check arguments */
	Assert(module_inst);
	Assert(module_inst->hw);

	/* clear related flag */
	module_inst->hw->DEVICE.INTFLAG.reg = _usb_device_irq_bits[callback_type];
    6d86:	687b      	ldr	r3, [r7, #4]
    6d88:	681b      	ldr	r3, [r3, #0]
    6d8a:	1cfa      	adds	r2, r7, #3
    6d8c:	7811      	ldrb	r1, [r2, #0]
    6d8e:	4a10      	ldr	r2, [pc, #64]	; (6dd0 <usb_device_enable_callback+0x58>)
    6d90:	0049      	lsls	r1, r1, #1
    6d92:	5a8a      	ldrh	r2, [r1, r2]
    6d94:	839a      	strh	r2, [r3, #28]

	/* Enable callback */
	module_inst->device_enabled_callback_mask |= _usb_device_irq_bits[callback_type];
    6d96:	687a      	ldr	r2, [r7, #4]
    6d98:	23ab      	movs	r3, #171	; 0xab
    6d9a:	005b      	lsls	r3, r3, #1
    6d9c:	5ad2      	ldrh	r2, [r2, r3]
    6d9e:	1cfb      	adds	r3, r7, #3
    6da0:	7819      	ldrb	r1, [r3, #0]
    6da2:	4b0b      	ldr	r3, [pc, #44]	; (6dd0 <usb_device_enable_callback+0x58>)
    6da4:	0049      	lsls	r1, r1, #1
    6da6:	5acb      	ldrh	r3, [r1, r3]
    6da8:	4313      	orrs	r3, r2
    6daa:	b299      	uxth	r1, r3
    6dac:	687a      	ldr	r2, [r7, #4]
    6dae:	23ab      	movs	r3, #171	; 0xab
    6db0:	005b      	lsls	r3, r3, #1
    6db2:	52d1      	strh	r1, [r2, r3]

	module_inst->hw->DEVICE.INTENSET.reg = _usb_device_irq_bits[callback_type];
    6db4:	687b      	ldr	r3, [r7, #4]
    6db6:	681b      	ldr	r3, [r3, #0]
    6db8:	1cfa      	adds	r2, r7, #3
    6dba:	7811      	ldrb	r1, [r2, #0]
    6dbc:	4a04      	ldr	r2, [pc, #16]	; (6dd0 <usb_device_enable_callback+0x58>)
    6dbe:	0049      	lsls	r1, r1, #1
    6dc0:	5a8a      	ldrh	r2, [r1, r2]
    6dc2:	831a      	strh	r2, [r3, #24]

	return STATUS_OK;
    6dc4:	2300      	movs	r3, #0
}
    6dc6:	1c18      	adds	r0, r3, #0
    6dc8:	46bd      	mov	sp, r7
    6dca:	b002      	add	sp, #8
    6dcc:	bd80      	pop	{r7, pc}
    6dce:	46c0      	nop			; (mov r8, r8)
    6dd0:	00008ce0 	.word	0x00008ce0

00006dd4 <usb_device_disable_callback>:
 * \return Status of the callback disable operation.
 * \retval STATUS_OK    The callback was disabled successfully.
 */
enum status_code usb_device_disable_callback(struct usb_module *module_inst,
		enum usb_device_callback callback_type)
{
    6dd4:	b580      	push	{r7, lr}
    6dd6:	b082      	sub	sp, #8
    6dd8:	af00      	add	r7, sp, #0
    6dda:	6078      	str	r0, [r7, #4]
    6ddc:	1c0a      	adds	r2, r1, #0
    6dde:	1cfb      	adds	r3, r7, #3
    6de0:	701a      	strb	r2, [r3, #0]
	/* Sanity check arguments */
	Assert(module_inst);
	Assert(module_inst->hw);

	/* Disable callback */
	module_inst->device_enabled_callback_mask &= ~_usb_device_irq_bits[callback_type];
    6de2:	687a      	ldr	r2, [r7, #4]
    6de4:	23ab      	movs	r3, #171	; 0xab
    6de6:	005b      	lsls	r3, r3, #1
    6de8:	5ad3      	ldrh	r3, [r2, r3]
    6dea:	b299      	uxth	r1, r3
    6dec:	1cfb      	adds	r3, r7, #3
    6dee:	781a      	ldrb	r2, [r3, #0]
    6df0:	4b0d      	ldr	r3, [pc, #52]	; (6e28 <usb_device_disable_callback+0x54>)
    6df2:	0052      	lsls	r2, r2, #1
    6df4:	5ad3      	ldrh	r3, [r2, r3]
    6df6:	b29b      	uxth	r3, r3
    6df8:	43db      	mvns	r3, r3
    6dfa:	b29a      	uxth	r2, r3
    6dfc:	1c0b      	adds	r3, r1, #0
    6dfe:	4013      	ands	r3, r2
    6e00:	b29b      	uxth	r3, r3
    6e02:	b299      	uxth	r1, r3
    6e04:	687a      	ldr	r2, [r7, #4]
    6e06:	23ab      	movs	r3, #171	; 0xab
    6e08:	005b      	lsls	r3, r3, #1
    6e0a:	52d1      	strh	r1, [r2, r3]

	module_inst->hw->DEVICE.INTENCLR.reg = _usb_device_irq_bits[callback_type];
    6e0c:	687b      	ldr	r3, [r7, #4]
    6e0e:	681b      	ldr	r3, [r3, #0]
    6e10:	1cfa      	adds	r2, r7, #3
    6e12:	7811      	ldrb	r1, [r2, #0]
    6e14:	4a04      	ldr	r2, [pc, #16]	; (6e28 <usb_device_disable_callback+0x54>)
    6e16:	0049      	lsls	r1, r1, #1
    6e18:	5a8a      	ldrh	r2, [r1, r2]
    6e1a:	829a      	strh	r2, [r3, #20]

	return STATUS_OK;
    6e1c:	2300      	movs	r3, #0
}
    6e1e:	1c18      	adds	r0, r3, #0
    6e20:	46bd      	mov	sp, r7
    6e22:	b002      	add	sp, #8
    6e24:	bd80      	pop	{r7, pc}
    6e26:	46c0      	nop			; (mov r8, r8)
    6e28:	00008ce0 	.word	0x00008ce0

00006e2c <usb_device_endpoint_register_callback>:
 */
enum status_code usb_device_endpoint_register_callback(
		struct usb_module *module_inst, uint8_t ep_num,
		enum usb_device_endpoint_callback callback_type,
		usb_device_endpoint_callback_t callback_func)
{
    6e2c:	b580      	push	{r7, lr}
    6e2e:	b084      	sub	sp, #16
    6e30:	af00      	add	r7, sp, #0
    6e32:	60f8      	str	r0, [r7, #12]
    6e34:	1c08      	adds	r0, r1, #0
    6e36:	1c11      	adds	r1, r2, #0
    6e38:	607b      	str	r3, [r7, #4]
    6e3a:	230b      	movs	r3, #11
    6e3c:	18fb      	adds	r3, r7, r3
    6e3e:	1c02      	adds	r2, r0, #0
    6e40:	701a      	strb	r2, [r3, #0]
    6e42:	230a      	movs	r3, #10
    6e44:	18fb      	adds	r3, r7, r3
    6e46:	1c0a      	adds	r2, r1, #0
    6e48:	701a      	strb	r2, [r3, #0]
	Assert(module_inst);
	Assert(ep_num < USB_EPT_NUM);
	Assert(callback_func);

	/* Register callback function */
	module_inst->device_endpoint_callback[ep_num][callback_type] = callback_func;
    6e4a:	230b      	movs	r3, #11
    6e4c:	18fb      	adds	r3, r7, r3
    6e4e:	7819      	ldrb	r1, [r3, #0]
    6e50:	230a      	movs	r3, #10
    6e52:	18fb      	adds	r3, r7, r3
    6e54:	781b      	ldrb	r3, [r3, #0]
    6e56:	68fa      	ldr	r2, [r7, #12]
    6e58:	0089      	lsls	r1, r1, #2
    6e5a:	18cb      	adds	r3, r1, r3
    6e5c:	3334      	adds	r3, #52	; 0x34
    6e5e:	009b      	lsls	r3, r3, #2
    6e60:	18d3      	adds	r3, r2, r3
    6e62:	687a      	ldr	r2, [r7, #4]
    6e64:	605a      	str	r2, [r3, #4]

	/* Set the bit corresponding to the callback_type */
	module_inst->deivce_endpoint_registered_callback_mask[ep_num] |= _usb_endpoint_irq_bits[callback_type];
    6e66:	230b      	movs	r3, #11
    6e68:	18fb      	adds	r3, r7, r3
    6e6a:	781a      	ldrb	r2, [r3, #0]
    6e6c:	230b      	movs	r3, #11
    6e6e:	18fb      	adds	r3, r7, r3
    6e70:	7819      	ldrb	r1, [r3, #0]
    6e72:	68f8      	ldr	r0, [r7, #12]
    6e74:	23ac      	movs	r3, #172	; 0xac
    6e76:	005b      	lsls	r3, r3, #1
    6e78:	1841      	adds	r1, r0, r1
    6e7a:	18cb      	adds	r3, r1, r3
    6e7c:	7819      	ldrb	r1, [r3, #0]
    6e7e:	230a      	movs	r3, #10
    6e80:	18fb      	adds	r3, r7, r3
    6e82:	781b      	ldrb	r3, [r3, #0]
    6e84:	4807      	ldr	r0, [pc, #28]	; (6ea4 <usb_device_endpoint_register_callback+0x78>)
    6e86:	5cc3      	ldrb	r3, [r0, r3]
    6e88:	430b      	orrs	r3, r1
    6e8a:	b2d8      	uxtb	r0, r3
    6e8c:	68f9      	ldr	r1, [r7, #12]
    6e8e:	23ac      	movs	r3, #172	; 0xac
    6e90:	005b      	lsls	r3, r3, #1
    6e92:	188a      	adds	r2, r1, r2
    6e94:	18d3      	adds	r3, r2, r3
    6e96:	1c02      	adds	r2, r0, #0
    6e98:	701a      	strb	r2, [r3, #0]

	return STATUS_OK;
    6e9a:	2300      	movs	r3, #0
}
    6e9c:	1c18      	adds	r0, r3, #0
    6e9e:	46bd      	mov	sp, r7
    6ea0:	b004      	add	sp, #16
    6ea2:	bd80      	pop	{r7, pc}
    6ea4:	00008cf0 	.word	0x00008cf0

00006ea8 <usb_device_endpoint_unregister_callback>:
 * \retval STATUS_OK    The callback was unregistered successfully.
 */
enum status_code usb_device_endpoint_unregister_callback(
		struct usb_module *module_inst, uint8_t ep_num,
		enum usb_device_endpoint_callback callback_type)
{
    6ea8:	b580      	push	{r7, lr}
    6eaa:	b082      	sub	sp, #8
    6eac:	af00      	add	r7, sp, #0
    6eae:	6078      	str	r0, [r7, #4]
    6eb0:	1c08      	adds	r0, r1, #0
    6eb2:	1c11      	adds	r1, r2, #0
    6eb4:	1cfb      	adds	r3, r7, #3
    6eb6:	1c02      	adds	r2, r0, #0
    6eb8:	701a      	strb	r2, [r3, #0]
    6eba:	1cbb      	adds	r3, r7, #2
    6ebc:	1c0a      	adds	r2, r1, #0
    6ebe:	701a      	strb	r2, [r3, #0]
	/* Sanity check arguments */
	Assert(module_inst);
	Assert(ep_num < USB_EPT_NUM);

	/* Unregister callback function */
	module_inst->device_endpoint_callback[ep_num][callback_type] = NULL;
    6ec0:	1cfb      	adds	r3, r7, #3
    6ec2:	7819      	ldrb	r1, [r3, #0]
    6ec4:	1cbb      	adds	r3, r7, #2
    6ec6:	781b      	ldrb	r3, [r3, #0]
    6ec8:	687a      	ldr	r2, [r7, #4]
    6eca:	0089      	lsls	r1, r1, #2
    6ecc:	18cb      	adds	r3, r1, r3
    6ece:	3334      	adds	r3, #52	; 0x34
    6ed0:	009b      	lsls	r3, r3, #2
    6ed2:	18d3      	adds	r3, r2, r3
    6ed4:	2200      	movs	r2, #0
    6ed6:	605a      	str	r2, [r3, #4]

	/* Clear the bit corresponding to the callback_type */
	module_inst->deivce_endpoint_registered_callback_mask[ep_num] &= ~_usb_endpoint_irq_bits[callback_type];
    6ed8:	1cfb      	adds	r3, r7, #3
    6eda:	781a      	ldrb	r2, [r3, #0]
    6edc:	1cfb      	adds	r3, r7, #3
    6ede:	7819      	ldrb	r1, [r3, #0]
    6ee0:	6878      	ldr	r0, [r7, #4]
    6ee2:	23ac      	movs	r3, #172	; 0xac
    6ee4:	005b      	lsls	r3, r3, #1
    6ee6:	1841      	adds	r1, r0, r1
    6ee8:	18cb      	adds	r3, r1, r3
    6eea:	781b      	ldrb	r3, [r3, #0]
    6eec:	b2d8      	uxtb	r0, r3
    6eee:	1cbb      	adds	r3, r7, #2
    6ef0:	781b      	ldrb	r3, [r3, #0]
    6ef2:	490a      	ldr	r1, [pc, #40]	; (6f1c <usb_device_endpoint_unregister_callback+0x74>)
    6ef4:	5ccb      	ldrb	r3, [r1, r3]
    6ef6:	b2db      	uxtb	r3, r3
    6ef8:	43db      	mvns	r3, r3
    6efa:	b2d9      	uxtb	r1, r3
    6efc:	1c03      	adds	r3, r0, #0
    6efe:	400b      	ands	r3, r1
    6f00:	b2db      	uxtb	r3, r3
    6f02:	b2d8      	uxtb	r0, r3
    6f04:	6879      	ldr	r1, [r7, #4]
    6f06:	23ac      	movs	r3, #172	; 0xac
    6f08:	005b      	lsls	r3, r3, #1
    6f0a:	188a      	adds	r2, r1, r2
    6f0c:	18d3      	adds	r3, r2, r3
    6f0e:	1c02      	adds	r2, r0, #0
    6f10:	701a      	strb	r2, [r3, #0]

	return STATUS_OK;
    6f12:	2300      	movs	r3, #0
}
    6f14:	1c18      	adds	r0, r3, #0
    6f16:	46bd      	mov	sp, r7
    6f18:	b002      	add	sp, #8
    6f1a:	bd80      	pop	{r7, pc}
    6f1c:	00008cf0 	.word	0x00008cf0

00006f20 <usb_device_endpoint_enable_callback>:
 * \retval STATUS_OK    The callback was enabled successfully.
 */
enum status_code usb_device_endpoint_enable_callback(
		struct usb_module *module_inst, uint8_t ep,
		enum usb_device_endpoint_callback callback_type)
{
    6f20:	b580      	push	{r7, lr}
    6f22:	b084      	sub	sp, #16
    6f24:	af00      	add	r7, sp, #0
    6f26:	6078      	str	r0, [r7, #4]
    6f28:	1c08      	adds	r0, r1, #0
    6f2a:	1c11      	adds	r1, r2, #0
    6f2c:	1cfb      	adds	r3, r7, #3
    6f2e:	1c02      	adds	r2, r0, #0
    6f30:	701a      	strb	r2, [r3, #0]
    6f32:	1cbb      	adds	r3, r7, #2
    6f34:	1c0a      	adds	r2, r1, #0
    6f36:	701a      	strb	r2, [r3, #0]
	/* Sanity check arguments */
	Assert(module_inst);
	Assert(module_inst->hw);

	uint8_t ep_num = ep & USB_EP_ADDR_MASK;
    6f38:	230f      	movs	r3, #15
    6f3a:	18fb      	adds	r3, r7, r3
    6f3c:	1cfa      	adds	r2, r7, #3
    6f3e:	7812      	ldrb	r2, [r2, #0]
    6f40:	210f      	movs	r1, #15
    6f42:	400a      	ands	r2, r1
    6f44:	701a      	strb	r2, [r3, #0]
	Assert(ep_num < USB_EPT_NUM);

	/* Enable callback */
	module_inst->device_endpoint_enabled_callback_mask[ep_num] |= _usb_endpoint_irq_bits[callback_type];
    6f46:	230f      	movs	r3, #15
    6f48:	18fb      	adds	r3, r7, r3
    6f4a:	781a      	ldrb	r2, [r3, #0]
    6f4c:	230f      	movs	r3, #15
    6f4e:	18fb      	adds	r3, r7, r3
    6f50:	7819      	ldrb	r1, [r3, #0]
    6f52:	6878      	ldr	r0, [r7, #4]
    6f54:	23b0      	movs	r3, #176	; 0xb0
    6f56:	005b      	lsls	r3, r3, #1
    6f58:	1841      	adds	r1, r0, r1
    6f5a:	18cb      	adds	r3, r1, r3
    6f5c:	7819      	ldrb	r1, [r3, #0]
    6f5e:	1cbb      	adds	r3, r7, #2
    6f60:	781b      	ldrb	r3, [r3, #0]
    6f62:	4855      	ldr	r0, [pc, #340]	; (70b8 <usb_device_endpoint_enable_callback+0x198>)
    6f64:	5cc3      	ldrb	r3, [r0, r3]
    6f66:	430b      	orrs	r3, r1
    6f68:	b2d8      	uxtb	r0, r3
    6f6a:	6879      	ldr	r1, [r7, #4]
    6f6c:	23b0      	movs	r3, #176	; 0xb0
    6f6e:	005b      	lsls	r3, r3, #1
    6f70:	188a      	adds	r2, r1, r2
    6f72:	18d3      	adds	r3, r2, r3
    6f74:	1c02      	adds	r2, r0, #0
    6f76:	701a      	strb	r2, [r3, #0]

	if (callback_type == USB_DEVICE_ENDPOINT_CALLBACK_TRCPT) {
    6f78:	1cbb      	adds	r3, r7, #2
    6f7a:	781b      	ldrb	r3, [r3, #0]
    6f7c:	2b00      	cmp	r3, #0
    6f7e:	d12f      	bne.n	6fe0 <usb_device_endpoint_enable_callback+0xc0>
		if (ep_num == 0) { // control endpoint
    6f80:	230f      	movs	r3, #15
    6f82:	18fb      	adds	r3, r7, r3
    6f84:	781b      	ldrb	r3, [r3, #0]
    6f86:	2b00      	cmp	r3, #0
    6f88:	d10c      	bne.n	6fa4 <usb_device_endpoint_enable_callback+0x84>
			module_inst->hw->DEVICE.DeviceEndpoint[ep_num].EPINTENSET.reg = USB_DEVICE_EPINTENSET_TRCPT0 | USB_DEVICE_EPINTENSET_TRCPT1;
    6f8a:	687b      	ldr	r3, [r7, #4]
    6f8c:	6819      	ldr	r1, [r3, #0]
    6f8e:	230f      	movs	r3, #15
    6f90:	18fb      	adds	r3, r7, r3
    6f92:	781a      	ldrb	r2, [r3, #0]
    6f94:	2384      	movs	r3, #132	; 0x84
    6f96:	005b      	lsls	r3, r3, #1
    6f98:	0152      	lsls	r2, r2, #5
    6f9a:	188a      	adds	r2, r1, r2
    6f9c:	18d3      	adds	r3, r2, r3
    6f9e:	2203      	movs	r2, #3
    6fa0:	705a      	strb	r2, [r3, #1]
    6fa2:	e01d      	b.n	6fe0 <usb_device_endpoint_enable_callback+0xc0>
		} else if (ep & USB_EP_DIR_IN) {
    6fa4:	1cfb      	adds	r3, r7, #3
    6fa6:	781b      	ldrb	r3, [r3, #0]
    6fa8:	b25b      	sxtb	r3, r3
    6faa:	2b00      	cmp	r3, #0
    6fac:	da0c      	bge.n	6fc8 <usb_device_endpoint_enable_callback+0xa8>
			module_inst->hw->DEVICE.DeviceEndpoint[ep_num].EPINTENSET.reg = USB_DEVICE_EPINTENSET_TRCPT1;
    6fae:	687b      	ldr	r3, [r7, #4]
    6fb0:	6819      	ldr	r1, [r3, #0]
    6fb2:	230f      	movs	r3, #15
    6fb4:	18fb      	adds	r3, r7, r3
    6fb6:	781a      	ldrb	r2, [r3, #0]
    6fb8:	2384      	movs	r3, #132	; 0x84
    6fba:	005b      	lsls	r3, r3, #1
    6fbc:	0152      	lsls	r2, r2, #5
    6fbe:	188a      	adds	r2, r1, r2
    6fc0:	18d3      	adds	r3, r2, r3
    6fc2:	2202      	movs	r2, #2
    6fc4:	705a      	strb	r2, [r3, #1]
    6fc6:	e00b      	b.n	6fe0 <usb_device_endpoint_enable_callback+0xc0>
		} else {
			module_inst->hw->DEVICE.DeviceEndpoint[ep_num].EPINTENSET.reg = USB_DEVICE_EPINTENSET_TRCPT0;
    6fc8:	687b      	ldr	r3, [r7, #4]
    6fca:	6819      	ldr	r1, [r3, #0]
    6fcc:	230f      	movs	r3, #15
    6fce:	18fb      	adds	r3, r7, r3
    6fd0:	781a      	ldrb	r2, [r3, #0]
    6fd2:	2384      	movs	r3, #132	; 0x84
    6fd4:	005b      	lsls	r3, r3, #1
    6fd6:	0152      	lsls	r2, r2, #5
    6fd8:	188a      	adds	r2, r1, r2
    6fda:	18d3      	adds	r3, r2, r3
    6fdc:	2201      	movs	r2, #1
    6fde:	705a      	strb	r2, [r3, #1]
		}
	}

	if (callback_type == USB_DEVICE_ENDPOINT_CALLBACK_TRFAIL) {
    6fe0:	1cbb      	adds	r3, r7, #2
    6fe2:	781b      	ldrb	r3, [r3, #0]
    6fe4:	2b01      	cmp	r3, #1
    6fe6:	d12f      	bne.n	7048 <usb_device_endpoint_enable_callback+0x128>
		if (ep_num == 0) { // control endpoint
    6fe8:	230f      	movs	r3, #15
    6fea:	18fb      	adds	r3, r7, r3
    6fec:	781b      	ldrb	r3, [r3, #0]
    6fee:	2b00      	cmp	r3, #0
    6ff0:	d10c      	bne.n	700c <usb_device_endpoint_enable_callback+0xec>
			module_inst->hw->DEVICE.DeviceEndpoint[ep_num].EPINTENSET.reg = USB_DEVICE_EPINTENSET_TRFAIL0 | USB_DEVICE_EPINTENSET_TRFAIL1;
    6ff2:	687b      	ldr	r3, [r7, #4]
    6ff4:	6819      	ldr	r1, [r3, #0]
    6ff6:	230f      	movs	r3, #15
    6ff8:	18fb      	adds	r3, r7, r3
    6ffa:	781a      	ldrb	r2, [r3, #0]
    6ffc:	2384      	movs	r3, #132	; 0x84
    6ffe:	005b      	lsls	r3, r3, #1
    7000:	0152      	lsls	r2, r2, #5
    7002:	188a      	adds	r2, r1, r2
    7004:	18d3      	adds	r3, r2, r3
    7006:	220c      	movs	r2, #12
    7008:	705a      	strb	r2, [r3, #1]
    700a:	e01d      	b.n	7048 <usb_device_endpoint_enable_callback+0x128>
		} else if (ep & USB_EP_DIR_IN) {
    700c:	1cfb      	adds	r3, r7, #3
    700e:	781b      	ldrb	r3, [r3, #0]
    7010:	b25b      	sxtb	r3, r3
    7012:	2b00      	cmp	r3, #0
    7014:	da0c      	bge.n	7030 <usb_device_endpoint_enable_callback+0x110>
			module_inst->hw->DEVICE.DeviceEndpoint[ep_num].EPINTENSET.reg = USB_DEVICE_EPINTENSET_TRFAIL1;
    7016:	687b      	ldr	r3, [r7, #4]
    7018:	6819      	ldr	r1, [r3, #0]
    701a:	230f      	movs	r3, #15
    701c:	18fb      	adds	r3, r7, r3
    701e:	781a      	ldrb	r2, [r3, #0]
    7020:	2384      	movs	r3, #132	; 0x84
    7022:	005b      	lsls	r3, r3, #1
    7024:	0152      	lsls	r2, r2, #5
    7026:	188a      	adds	r2, r1, r2
    7028:	18d3      	adds	r3, r2, r3
    702a:	2208      	movs	r2, #8
    702c:	705a      	strb	r2, [r3, #1]
    702e:	e00b      	b.n	7048 <usb_device_endpoint_enable_callback+0x128>
		} else {
			module_inst->hw->DEVICE.DeviceEndpoint[ep_num].EPINTENSET.reg = USB_DEVICE_EPINTENSET_TRFAIL0;
    7030:	687b      	ldr	r3, [r7, #4]
    7032:	6819      	ldr	r1, [r3, #0]
    7034:	230f      	movs	r3, #15
    7036:	18fb      	adds	r3, r7, r3
    7038:	781a      	ldrb	r2, [r3, #0]
    703a:	2384      	movs	r3, #132	; 0x84
    703c:	005b      	lsls	r3, r3, #1
    703e:	0152      	lsls	r2, r2, #5
    7040:	188a      	adds	r2, r1, r2
    7042:	18d3      	adds	r3, r2, r3
    7044:	2204      	movs	r2, #4
    7046:	705a      	strb	r2, [r3, #1]
		}
	}

	if (callback_type == USB_DEVICE_ENDPOINT_CALLBACK_RXSTP) {
    7048:	1cbb      	adds	r3, r7, #2
    704a:	781b      	ldrb	r3, [r3, #0]
    704c:	2b02      	cmp	r3, #2
    704e:	d10b      	bne.n	7068 <usb_device_endpoint_enable_callback+0x148>
		module_inst->hw->DEVICE.DeviceEndpoint[ep_num].EPINTENSET.reg = USB_DEVICE_EPINTENSET_RXSTP;
    7050:	687b      	ldr	r3, [r7, #4]
    7052:	6819      	ldr	r1, [r3, #0]
    7054:	230f      	movs	r3, #15
    7056:	18fb      	adds	r3, r7, r3
    7058:	781a      	ldrb	r2, [r3, #0]
    705a:	2384      	movs	r3, #132	; 0x84
    705c:	005b      	lsls	r3, r3, #1
    705e:	0152      	lsls	r2, r2, #5
    7060:	188a      	adds	r2, r1, r2
    7062:	18d3      	adds	r3, r2, r3
    7064:	2210      	movs	r2, #16
    7066:	705a      	strb	r2, [r3, #1]
	}

	if (callback_type == USB_DEVICE_ENDPOINT_CALLBACK_STALL) {
    7068:	1cbb      	adds	r3, r7, #2
    706a:	781b      	ldrb	r3, [r3, #0]
    706c:	2b03      	cmp	r3, #3
    706e:	d11d      	bne.n	70ac <usb_device_endpoint_enable_callback+0x18c>
		if (ep & USB_EP_DIR_IN) {
    7070:	1cfb      	adds	r3, r7, #3
    7072:	781b      	ldrb	r3, [r3, #0]
    7074:	b25b      	sxtb	r3, r3
    7076:	2b00      	cmp	r3, #0
    7078:	da0c      	bge.n	7094 <usb_device_endpoint_enable_callback+0x174>
			module_inst->hw->DEVICE.DeviceEndpoint[ep_num].EPINTENSET.reg = USB_DEVICE_EPINTENSET_STALL1;
    707a:	687b      	ldr	r3, [r7, #4]
    707c:	6819      	ldr	r1, [r3, #0]
    707e:	230f      	movs	r3, #15
    7080:	18fb      	adds	r3, r7, r3
    7082:	781a      	ldrb	r2, [r3, #0]
    7084:	2384      	movs	r3, #132	; 0x84
    7086:	005b      	lsls	r3, r3, #1
    7088:	0152      	lsls	r2, r2, #5
    708a:	188a      	adds	r2, r1, r2
    708c:	18d3      	adds	r3, r2, r3
    708e:	2240      	movs	r2, #64	; 0x40
    7090:	705a      	strb	r2, [r3, #1]
    7092:	e00b      	b.n	70ac <usb_device_endpoint_enable_callback+0x18c>
		} else {
			module_inst->hw->DEVICE.DeviceEndpoint[ep_num].EPINTENSET.reg = USB_DEVICE_EPINTENSET_STALL0;
    7094:	687b      	ldr	r3, [r7, #4]
    7096:	6819      	ldr	r1, [r3, #0]
    7098:	230f      	movs	r3, #15
    709a:	18fb      	adds	r3, r7, r3
    709c:	781a      	ldrb	r2, [r3, #0]
    709e:	2384      	movs	r3, #132	; 0x84
    70a0:	005b      	lsls	r3, r3, #1
    70a2:	0152      	lsls	r2, r2, #5
    70a4:	188a      	adds	r2, r1, r2
    70a6:	18d3      	adds	r3, r2, r3
    70a8:	2220      	movs	r2, #32
    70aa:	705a      	strb	r2, [r3, #1]
		}
	}

	return STATUS_OK;
    70ac:	2300      	movs	r3, #0
}
    70ae:	1c18      	adds	r0, r3, #0
    70b0:	46bd      	mov	sp, r7
    70b2:	b004      	add	sp, #16
    70b4:	bd80      	pop	{r7, pc}
    70b6:	46c0      	nop			; (mov r8, r8)
    70b8:	00008cf0 	.word	0x00008cf0

000070bc <usb_device_endpoint_disable_callback>:
 * \retval STATUS_OK    The callback was disabled successfully.
 */
enum status_code usb_device_endpoint_disable_callback(
		struct usb_module *module_inst, uint8_t ep,
		enum usb_device_endpoint_callback callback_type)
{
    70bc:	b580      	push	{r7, lr}
    70be:	b084      	sub	sp, #16
    70c0:	af00      	add	r7, sp, #0
    70c2:	6078      	str	r0, [r7, #4]
    70c4:	1c08      	adds	r0, r1, #0
    70c6:	1c11      	adds	r1, r2, #0
    70c8:	1cfb      	adds	r3, r7, #3
    70ca:	1c02      	adds	r2, r0, #0
    70cc:	701a      	strb	r2, [r3, #0]
    70ce:	1cbb      	adds	r3, r7, #2
    70d0:	1c0a      	adds	r2, r1, #0
    70d2:	701a      	strb	r2, [r3, #0]
	/* Sanity check arguments */
	Assert(module_inst);
	Assert(module_inst->hw);

	uint8_t ep_num = ep & USB_EP_ADDR_MASK;
    70d4:	230f      	movs	r3, #15
    70d6:	18fb      	adds	r3, r7, r3
    70d8:	1cfa      	adds	r2, r7, #3
    70da:	7812      	ldrb	r2, [r2, #0]
    70dc:	210f      	movs	r1, #15
    70de:	400a      	ands	r2, r1
    70e0:	701a      	strb	r2, [r3, #0]
	Assert(ep_num < USB_EPT_NUM);

	/* Enable callback */
	module_inst->device_endpoint_enabled_callback_mask[ep_num] &= ~_usb_endpoint_irq_bits[callback_type];
    70e2:	230f      	movs	r3, #15
    70e4:	18fb      	adds	r3, r7, r3
    70e6:	781a      	ldrb	r2, [r3, #0]
    70e8:	230f      	movs	r3, #15
    70ea:	18fb      	adds	r3, r7, r3
    70ec:	7819      	ldrb	r1, [r3, #0]
    70ee:	6878      	ldr	r0, [r7, #4]
    70f0:	23b0      	movs	r3, #176	; 0xb0
    70f2:	005b      	lsls	r3, r3, #1
    70f4:	1841      	adds	r1, r0, r1
    70f6:	18cb      	adds	r3, r1, r3
    70f8:	781b      	ldrb	r3, [r3, #0]
    70fa:	b2d8      	uxtb	r0, r3
    70fc:	1cbb      	adds	r3, r7, #2
    70fe:	781b      	ldrb	r3, [r3, #0]
    7100:	4957      	ldr	r1, [pc, #348]	; (7260 <usb_device_endpoint_disable_callback+0x1a4>)
    7102:	5ccb      	ldrb	r3, [r1, r3]
    7104:	b2db      	uxtb	r3, r3
    7106:	43db      	mvns	r3, r3
    7108:	b2d9      	uxtb	r1, r3
    710a:	1c03      	adds	r3, r0, #0
    710c:	400b      	ands	r3, r1
    710e:	b2db      	uxtb	r3, r3
    7110:	b2d8      	uxtb	r0, r3
    7112:	6879      	ldr	r1, [r7, #4]
    7114:	23b0      	movs	r3, #176	; 0xb0
    7116:	005b      	lsls	r3, r3, #1
    7118:	188a      	adds	r2, r1, r2
    711a:	18d3      	adds	r3, r2, r3
    711c:	1c02      	adds	r2, r0, #0
    711e:	701a      	strb	r2, [r3, #0]

	if (callback_type == USB_DEVICE_ENDPOINT_CALLBACK_TRCPT) {
    7120:	1cbb      	adds	r3, r7, #2
    7122:	781b      	ldrb	r3, [r3, #0]
    7124:	2b00      	cmp	r3, #0
    7126:	d12f      	bne.n	7188 <usb_device_endpoint_disable_callback+0xcc>
		if (ep_num == 0) { // control endpoint
    7128:	230f      	movs	r3, #15
    712a:	18fb      	adds	r3, r7, r3
    712c:	781b      	ldrb	r3, [r3, #0]
    712e:	2b00      	cmp	r3, #0
    7130:	d10c      	bne.n	714c <usb_device_endpoint_disable_callback+0x90>
			module_inst->hw->DEVICE.DeviceEndpoint[ep_num].EPINTENCLR.reg =  USB_DEVICE_EPINTENCLR_TRCPT0 | USB_DEVICE_EPINTENCLR_TRCPT1;
    7132:	687b      	ldr	r3, [r7, #4]
    7134:	6819      	ldr	r1, [r3, #0]
    7136:	230f      	movs	r3, #15
    7138:	18fb      	adds	r3, r7, r3
    713a:	781a      	ldrb	r2, [r3, #0]
    713c:	2384      	movs	r3, #132	; 0x84
    713e:	005b      	lsls	r3, r3, #1
    7140:	0152      	lsls	r2, r2, #5
    7142:	188a      	adds	r2, r1, r2
    7144:	18d3      	adds	r3, r2, r3
    7146:	2203      	movs	r2, #3
    7148:	701a      	strb	r2, [r3, #0]
    714a:	e01d      	b.n	7188 <usb_device_endpoint_disable_callback+0xcc>
		} else if (ep & USB_EP_DIR_IN) {
    714c:	1cfb      	adds	r3, r7, #3
    714e:	781b      	ldrb	r3, [r3, #0]
    7150:	b25b      	sxtb	r3, r3
    7152:	2b00      	cmp	r3, #0
    7154:	da0c      	bge.n	7170 <usb_device_endpoint_disable_callback+0xb4>
			module_inst->hw->DEVICE.DeviceEndpoint[ep_num].EPINTENCLR.reg =  USB_DEVICE_EPINTENCLR_TRCPT1;
    7156:	687b      	ldr	r3, [r7, #4]
    7158:	6819      	ldr	r1, [r3, #0]
    715a:	230f      	movs	r3, #15
    715c:	18fb      	adds	r3, r7, r3
    715e:	781a      	ldrb	r2, [r3, #0]
    7160:	2384      	movs	r3, #132	; 0x84
    7162:	005b      	lsls	r3, r3, #1
    7164:	0152      	lsls	r2, r2, #5
    7166:	188a      	adds	r2, r1, r2
    7168:	18d3      	adds	r3, r2, r3
    716a:	2202      	movs	r2, #2
    716c:	701a      	strb	r2, [r3, #0]
    716e:	e00b      	b.n	7188 <usb_device_endpoint_disable_callback+0xcc>
		} else {
			module_inst->hw->DEVICE.DeviceEndpoint[ep_num].EPINTENCLR.reg =  USB_DEVICE_EPINTENCLR_TRCPT0;
    7170:	687b      	ldr	r3, [r7, #4]
    7172:	6819      	ldr	r1, [r3, #0]
    7174:	230f      	movs	r3, #15
    7176:	18fb      	adds	r3, r7, r3
    7178:	781a      	ldrb	r2, [r3, #0]
    717a:	2384      	movs	r3, #132	; 0x84
    717c:	005b      	lsls	r3, r3, #1
    717e:	0152      	lsls	r2, r2, #5
    7180:	188a      	adds	r2, r1, r2
    7182:	18d3      	adds	r3, r2, r3
    7184:	2201      	movs	r2, #1
    7186:	701a      	strb	r2, [r3, #0]
		}
	}

	if (callback_type == USB_DEVICE_ENDPOINT_CALLBACK_TRFAIL) {
    7188:	1cbb      	adds	r3, r7, #2
    718a:	781b      	ldrb	r3, [r3, #0]
    718c:	2b01      	cmp	r3, #1
    718e:	d12f      	bne.n	71f0 <usb_device_endpoint_disable_callback+0x134>
		if (ep_num == 0) { // control endpoint
    7190:	230f      	movs	r3, #15
    7192:	18fb      	adds	r3, r7, r3
    7194:	781b      	ldrb	r3, [r3, #0]
    7196:	2b00      	cmp	r3, #0
    7198:	d10c      	bne.n	71b4 <usb_device_endpoint_disable_callback+0xf8>
			module_inst->hw->DEVICE.DeviceEndpoint[ep_num].EPINTENCLR.reg = USB_DEVICE_EPINTENCLR_TRFAIL0 | USB_DEVICE_EPINTENCLR_TRFAIL1;
    719a:	687b      	ldr	r3, [r7, #4]
    719c:	6819      	ldr	r1, [r3, #0]
    719e:	230f      	movs	r3, #15
    71a0:	18fb      	adds	r3, r7, r3
    71a2:	781a      	ldrb	r2, [r3, #0]
    71a4:	2384      	movs	r3, #132	; 0x84
    71a6:	005b      	lsls	r3, r3, #1
    71a8:	0152      	lsls	r2, r2, #5
    71aa:	188a      	adds	r2, r1, r2
    71ac:	18d3      	adds	r3, r2, r3
    71ae:	220c      	movs	r2, #12
    71b0:	701a      	strb	r2, [r3, #0]
    71b2:	e01d      	b.n	71f0 <usb_device_endpoint_disable_callback+0x134>
		} else if (ep & USB_EP_DIR_IN) {
    71b4:	1cfb      	adds	r3, r7, #3
    71b6:	781b      	ldrb	r3, [r3, #0]
    71b8:	b25b      	sxtb	r3, r3
    71ba:	2b00      	cmp	r3, #0
    71bc:	da0c      	bge.n	71d8 <usb_device_endpoint_disable_callback+0x11c>
			module_inst->hw->DEVICE.DeviceEndpoint[ep_num].EPINTENCLR.reg = USB_DEVICE_EPINTENCLR_TRFAIL1;
    71be:	687b      	ldr	r3, [r7, #4]
    71c0:	6819      	ldr	r1, [r3, #0]
    71c2:	230f      	movs	r3, #15
    71c4:	18fb      	adds	r3, r7, r3
    71c6:	781a      	ldrb	r2, [r3, #0]
    71c8:	2384      	movs	r3, #132	; 0x84
    71ca:	005b      	lsls	r3, r3, #1
    71cc:	0152      	lsls	r2, r2, #5
    71ce:	188a      	adds	r2, r1, r2
    71d0:	18d3      	adds	r3, r2, r3
    71d2:	2208      	movs	r2, #8
    71d4:	701a      	strb	r2, [r3, #0]
    71d6:	e00b      	b.n	71f0 <usb_device_endpoint_disable_callback+0x134>
		} else {
			module_inst->hw->DEVICE.DeviceEndpoint[ep_num].EPINTENCLR.reg = USB_DEVICE_EPINTENCLR_TRFAIL0;
    71d8:	687b      	ldr	r3, [r7, #4]
    71da:	6819      	ldr	r1, [r3, #0]
    71dc:	230f      	movs	r3, #15
    71de:	18fb      	adds	r3, r7, r3
    71e0:	781a      	ldrb	r2, [r3, #0]
    71e2:	2384      	movs	r3, #132	; 0x84
    71e4:	005b      	lsls	r3, r3, #1
    71e6:	0152      	lsls	r2, r2, #5
    71e8:	188a      	adds	r2, r1, r2
    71ea:	18d3      	adds	r3, r2, r3
    71ec:	2204      	movs	r2, #4
    71ee:	701a      	strb	r2, [r3, #0]
		}
	}

	if (callback_type == USB_DEVICE_ENDPOINT_CALLBACK_RXSTP) {
    71f0:	1cbb      	adds	r3, r7, #2
    71f2:	781b      	ldrb	r3, [r3, #0]
    71f4:	2b02      	cmp	r3, #2
    71f6:	d10b      	bne.n	7210 <usb_device_endpoint_disable_callback+0x154>
		module_inst->hw->DEVICE.DeviceEndpoint[ep_num].EPINTENCLR.reg = USB_DEVICE_EPINTENCLR_RXSTP;
    71f8:	687b      	ldr	r3, [r7, #4]
    71fa:	6819      	ldr	r1, [r3, #0]
    71fc:	230f      	movs	r3, #15
    71fe:	18fb      	adds	r3, r7, r3
    7200:	781a      	ldrb	r2, [r3, #0]
    7202:	2384      	movs	r3, #132	; 0x84
    7204:	005b      	lsls	r3, r3, #1
    7206:	0152      	lsls	r2, r2, #5
    7208:	188a      	adds	r2, r1, r2
    720a:	18d3      	adds	r3, r2, r3
    720c:	2210      	movs	r2, #16
    720e:	701a      	strb	r2, [r3, #0]
	}

	if (callback_type == USB_DEVICE_ENDPOINT_CALLBACK_STALL) {
    7210:	1cbb      	adds	r3, r7, #2
    7212:	781b      	ldrb	r3, [r3, #0]
    7214:	2b03      	cmp	r3, #3
    7216:	d11d      	bne.n	7254 <usb_device_endpoint_disable_callback+0x198>
		if (ep & USB_EP_DIR_IN) {
    7218:	1cfb      	adds	r3, r7, #3
    721a:	781b      	ldrb	r3, [r3, #0]
    721c:	b25b      	sxtb	r3, r3
    721e:	2b00      	cmp	r3, #0
    7220:	da0c      	bge.n	723c <usb_device_endpoint_disable_callback+0x180>
			module_inst->hw->DEVICE.DeviceEndpoint[ep_num].EPINTENCLR.reg = USB_DEVICE_EPINTENCLR_STALL1;
    7222:	687b      	ldr	r3, [r7, #4]
    7224:	6819      	ldr	r1, [r3, #0]
    7226:	230f      	movs	r3, #15
    7228:	18fb      	adds	r3, r7, r3
    722a:	781a      	ldrb	r2, [r3, #0]
    722c:	2384      	movs	r3, #132	; 0x84
    722e:	005b      	lsls	r3, r3, #1
    7230:	0152      	lsls	r2, r2, #5
    7232:	188a      	adds	r2, r1, r2
    7234:	18d3      	adds	r3, r2, r3
    7236:	2240      	movs	r2, #64	; 0x40
    7238:	701a      	strb	r2, [r3, #0]
    723a:	e00b      	b.n	7254 <usb_device_endpoint_disable_callback+0x198>
		} else {
			module_inst->hw->DEVICE.DeviceEndpoint[ep_num].EPINTENCLR.reg = USB_DEVICE_EPINTENCLR_STALL0;
    723c:	687b      	ldr	r3, [r7, #4]
    723e:	6819      	ldr	r1, [r3, #0]
    7240:	230f      	movs	r3, #15
    7242:	18fb      	adds	r3, r7, r3
    7244:	781a      	ldrb	r2, [r3, #0]
    7246:	2384      	movs	r3, #132	; 0x84
    7248:	005b      	lsls	r3, r3, #1
    724a:	0152      	lsls	r2, r2, #5
    724c:	188a      	adds	r2, r1, r2
    724e:	18d3      	adds	r3, r2, r3
    7250:	2220      	movs	r2, #32
    7252:	701a      	strb	r2, [r3, #0]
		}
	}

	return STATUS_OK;
    7254:	2300      	movs	r3, #0
}
    7256:	1c18      	adds	r0, r3, #0
    7258:	46bd      	mov	sp, r7
    725a:	b004      	add	sp, #16
    725c:	bd80      	pop	{r7, pc}
    725e:	46c0      	nop			; (mov r8, r8)
    7260:	00008cf0 	.word	0x00008cf0

00007264 <usb_device_endpoint_get_config_defaults>:
 * \li endpoint type is control
 *
 * \param[out] ep_config  Configuration structure to initialize to default values
 */
void usb_device_endpoint_get_config_defaults(struct usb_device_endpoint_config *ep_config)
{
    7264:	b580      	push	{r7, lr}
    7266:	b082      	sub	sp, #8
    7268:	af00      	add	r7, sp, #0
    726a:	6078      	str	r0, [r7, #4]
	/* Sanity check arguments */
	Assert(ep_config);

	/* Write default config to config struct */
	ep_config->ep_address = 0;
    726c:	687b      	ldr	r3, [r7, #4]
    726e:	2200      	movs	r2, #0
    7270:	701a      	strb	r2, [r3, #0]
	ep_config->ep_size = USB_ENDPOINT_8_BYTE;
    7272:	687b      	ldr	r3, [r7, #4]
    7274:	2200      	movs	r2, #0
    7276:	705a      	strb	r2, [r3, #1]
	ep_config->auto_zlp = false;
    7278:	687b      	ldr	r3, [r7, #4]
    727a:	2200      	movs	r2, #0
    727c:	709a      	strb	r2, [r3, #2]
	ep_config->ep_type = USB_DEVICE_ENDPOINT_TYPE_CONTROL;
    727e:	687b      	ldr	r3, [r7, #4]
    7280:	2201      	movs	r2, #1
    7282:	70da      	strb	r2, [r3, #3]
}
    7284:	46bd      	mov	sp, r7
    7286:	b002      	add	sp, #8
    7288:	bd80      	pop	{r7, pc}
    728a:	46c0      	nop			; (mov r8, r8)

0000728c <usb_device_endpoint_set_config>:
 * \retval STATUS_OK         The device endpoint was configured successfully
 * \retval STATUS_ERR_DENIED The endpoint address is already configured
 */
enum status_code usb_device_endpoint_set_config(struct usb_module *module_inst,
		struct usb_device_endpoint_config *ep_config)
{
    728c:	b590      	push	{r4, r7, lr}
    728e:	b085      	sub	sp, #20
    7290:	af00      	add	r7, sp, #0
    7292:	6078      	str	r0, [r7, #4]
    7294:	6039      	str	r1, [r7, #0]
	/* Sanity check arguments */
	Assert(module_inst);
	Assert(ep_config);

	uint8_t ep_num = ep_config->ep_address & USB_EP_ADDR_MASK;
    7296:	683b      	ldr	r3, [r7, #0]
    7298:	781a      	ldrb	r2, [r3, #0]
    729a:	230f      	movs	r3, #15
    729c:	18fb      	adds	r3, r7, r3
    729e:	210f      	movs	r1, #15
    72a0:	400a      	ands	r2, r1
    72a2:	701a      	strb	r2, [r3, #0]
	uint8_t ep_bank = (ep_config->ep_address & USB_EP_DIR_IN) ? 1 : 0;
    72a4:	683b      	ldr	r3, [r7, #0]
    72a6:	781b      	ldrb	r3, [r3, #0]
    72a8:	b2db      	uxtb	r3, r3
    72aa:	09db      	lsrs	r3, r3, #7
    72ac:	b2da      	uxtb	r2, r3
    72ae:	230e      	movs	r3, #14
    72b0:	18fb      	adds	r3, r7, r3
    72b2:	701a      	strb	r2, [r3, #0]

	switch (ep_config->ep_type) {
    72b4:	683b      	ldr	r3, [r7, #0]
    72b6:	78db      	ldrb	r3, [r3, #3]
    72b8:	2b04      	cmp	r3, #4
    72ba:	d900      	bls.n	72be <usb_device_endpoint_set_config+0x32>
    72bc:	e1f7      	b.n	76ae <usb_device_endpoint_set_config+0x422>
    72be:	009a      	lsls	r2, r3, #2
    72c0:	4bdf      	ldr	r3, [pc, #892]	; (7640 <usb_device_endpoint_set_config+0x3b4>)
    72c2:	18d3      	adds	r3, r2, r3
    72c4:	681b      	ldr	r3, [r3, #0]
    72c6:	469f      	mov	pc, r3
		case USB_DEVICE_ENDPOINT_TYPE_DISABLE:
			module_inst->hw->DEVICE.DeviceEndpoint[ep_num].EPCFG.reg = USB_DEVICE_EPCFG_EPTYPE0(0) |  USB_DEVICE_EPCFG_EPTYPE1(0);
    72c8:	687b      	ldr	r3, [r7, #4]
    72ca:	681b      	ldr	r3, [r3, #0]
    72cc:	220f      	movs	r2, #15
    72ce:	18ba      	adds	r2, r7, r2
    72d0:	7812      	ldrb	r2, [r2, #0]
    72d2:	3208      	adds	r2, #8
    72d4:	0152      	lsls	r2, r2, #5
    72d6:	2100      	movs	r1, #0
    72d8:	54d1      	strb	r1, [r2, r3]
			return STATUS_OK;
    72da:	2300      	movs	r3, #0
    72dc:	e23c      	b.n	7758 <usb_device_endpoint_set_config+0x4cc>

		case USB_DEVICE_ENDPOINT_TYPE_CONTROL:
			if ((module_inst->hw->DEVICE.DeviceEndpoint[ep_num].EPCFG.reg & USB_DEVICE_EPCFG_EPTYPE0_Msk) == 0 && \
    72de:	687b      	ldr	r3, [r7, #4]
    72e0:	681b      	ldr	r3, [r3, #0]
    72e2:	220f      	movs	r2, #15
    72e4:	18ba      	adds	r2, r7, r2
    72e6:	7812      	ldrb	r2, [r2, #0]
    72e8:	3208      	adds	r2, #8
    72ea:	0152      	lsls	r2, r2, #5
    72ec:	5cd3      	ldrb	r3, [r2, r3]
    72ee:	b2db      	uxtb	r3, r3
    72f0:	1c1a      	adds	r2, r3, #0
    72f2:	2307      	movs	r3, #7
    72f4:	4013      	ands	r3, r2
    72f6:	d12e      	bne.n	7356 <usb_device_endpoint_set_config+0xca>
				(module_inst->hw->DEVICE.DeviceEndpoint[ep_num].EPCFG.reg & USB_DEVICE_EPCFG_EPTYPE1_Msk) == 0) {
    72f8:	687b      	ldr	r3, [r7, #4]
    72fa:	681b      	ldr	r3, [r3, #0]
    72fc:	220f      	movs	r2, #15
    72fe:	18ba      	adds	r2, r7, r2
    7300:	7812      	ldrb	r2, [r2, #0]
    7302:	3208      	adds	r2, #8
    7304:	0152      	lsls	r2, r2, #5
    7306:	5cd3      	ldrb	r3, [r2, r3]
    7308:	b2db      	uxtb	r3, r3
    730a:	1c1a      	adds	r2, r3, #0
    730c:	2370      	movs	r3, #112	; 0x70
    730e:	4013      	ands	r3, r2
		case USB_DEVICE_ENDPOINT_TYPE_DISABLE:
			module_inst->hw->DEVICE.DeviceEndpoint[ep_num].EPCFG.reg = USB_DEVICE_EPCFG_EPTYPE0(0) |  USB_DEVICE_EPCFG_EPTYPE1(0);
			return STATUS_OK;

		case USB_DEVICE_ENDPOINT_TYPE_CONTROL:
			if ((module_inst->hw->DEVICE.DeviceEndpoint[ep_num].EPCFG.reg & USB_DEVICE_EPCFG_EPTYPE0_Msk) == 0 && \
    7310:	d121      	bne.n	7356 <usb_device_endpoint_set_config+0xca>
				(module_inst->hw->DEVICE.DeviceEndpoint[ep_num].EPCFG.reg & USB_DEVICE_EPCFG_EPTYPE1_Msk) == 0) {
				module_inst->hw->DEVICE.DeviceEndpoint[ep_num].EPCFG.reg = USB_DEVICE_EPCFG_EPTYPE0(1) | USB_DEVICE_EPCFG_EPTYPE1(1);
    7312:	687b      	ldr	r3, [r7, #4]
    7314:	681b      	ldr	r3, [r3, #0]
    7316:	220f      	movs	r2, #15
    7318:	18ba      	adds	r2, r7, r2
    731a:	7812      	ldrb	r2, [r2, #0]
    731c:	3208      	adds	r2, #8
    731e:	0152      	lsls	r2, r2, #5
    7320:	2111      	movs	r1, #17
    7322:	54d1      	strb	r1, [r2, r3]
				module_inst->hw->DEVICE.DeviceEndpoint[ep_num].EPSTATUSSET.reg = USB_DEVICE_EPSTATUSSET_BK0RDY;
    7324:	687b      	ldr	r3, [r7, #4]
    7326:	681a      	ldr	r2, [r3, #0]
    7328:	230f      	movs	r3, #15
    732a:	18fb      	adds	r3, r7, r3
    732c:	781b      	ldrb	r3, [r3, #0]
    732e:	3308      	adds	r3, #8
    7330:	015b      	lsls	r3, r3, #5
    7332:	18d3      	adds	r3, r2, r3
    7334:	2240      	movs	r2, #64	; 0x40
    7336:	715a      	strb	r2, [r3, #5]
				module_inst->hw->DEVICE.DeviceEndpoint[ep_num].EPSTATUSCLR.reg = USB_DEVICE_EPSTATUSCLR_BK1RDY;
    7338:	687b      	ldr	r3, [r7, #4]
    733a:	681a      	ldr	r2, [r3, #0]
    733c:	230f      	movs	r3, #15
    733e:	18fb      	adds	r3, r7, r3
    7340:	781b      	ldrb	r3, [r3, #0]
    7342:	3308      	adds	r3, #8
    7344:	015b      	lsls	r3, r3, #5
    7346:	18d3      	adds	r3, r2, r3
    7348:	2280      	movs	r2, #128	; 0x80
    734a:	711a      	strb	r2, [r3, #4]
			} else {
				return STATUS_ERR_DENIED;
			}
			if (true == ep_config->auto_zlp) {
    734c:	683b      	ldr	r3, [r7, #0]
    734e:	789b      	ldrb	r3, [r3, #2]
    7350:	2b00      	cmp	r3, #0
    7352:	d102      	bne.n	735a <usb_device_endpoint_set_config+0xce>
    7354:	e026      	b.n	73a4 <usb_device_endpoint_set_config+0x118>
				(module_inst->hw->DEVICE.DeviceEndpoint[ep_num].EPCFG.reg & USB_DEVICE_EPCFG_EPTYPE1_Msk) == 0) {
				module_inst->hw->DEVICE.DeviceEndpoint[ep_num].EPCFG.reg = USB_DEVICE_EPCFG_EPTYPE0(1) | USB_DEVICE_EPCFG_EPTYPE1(1);
				module_inst->hw->DEVICE.DeviceEndpoint[ep_num].EPSTATUSSET.reg = USB_DEVICE_EPSTATUSSET_BK0RDY;
				module_inst->hw->DEVICE.DeviceEndpoint[ep_num].EPSTATUSCLR.reg = USB_DEVICE_EPSTATUSCLR_BK1RDY;
			} else {
				return STATUS_ERR_DENIED;
    7356:	231c      	movs	r3, #28
    7358:	e1fe      	b.n	7758 <usb_device_endpoint_set_config+0x4cc>
			}
			if (true == ep_config->auto_zlp) {
				usb_descriptor_table.usb_endpoint_table[ep_num].DeviceDescBank[0].PCKSIZE.reg |= USB_DEVICE_PCKSIZE_AUTO_ZLP;
    735a:	230f      	movs	r3, #15
    735c:	18fb      	adds	r3, r7, r3
    735e:	7818      	ldrb	r0, [r3, #0]
    7360:	230f      	movs	r3, #15
    7362:	18fb      	adds	r3, r7, r3
    7364:	781b      	ldrb	r3, [r3, #0]
    7366:	4ab7      	ldr	r2, [pc, #732]	; (7644 <usb_device_endpoint_set_config+0x3b8>)
    7368:	015b      	lsls	r3, r3, #5
    736a:	18d3      	adds	r3, r2, r3
    736c:	685b      	ldr	r3, [r3, #4]
    736e:	2280      	movs	r2, #128	; 0x80
    7370:	0612      	lsls	r2, r2, #24
    7372:	431a      	orrs	r2, r3
    7374:	49b3      	ldr	r1, [pc, #716]	; (7644 <usb_device_endpoint_set_config+0x3b8>)
    7376:	0143      	lsls	r3, r0, #5
    7378:	18cb      	adds	r3, r1, r3
    737a:	605a      	str	r2, [r3, #4]
				usb_descriptor_table.usb_endpoint_table[ep_num].DeviceDescBank[1].PCKSIZE.reg |= USB_DEVICE_PCKSIZE_AUTO_ZLP;
    737c:	230f      	movs	r3, #15
    737e:	18fb      	adds	r3, r7, r3
    7380:	7818      	ldrb	r0, [r3, #0]
    7382:	230f      	movs	r3, #15
    7384:	18fb      	adds	r3, r7, r3
    7386:	781b      	ldrb	r3, [r3, #0]
    7388:	4aae      	ldr	r2, [pc, #696]	; (7644 <usb_device_endpoint_set_config+0x3b8>)
    738a:	015b      	lsls	r3, r3, #5
    738c:	18d3      	adds	r3, r2, r3
    738e:	3310      	adds	r3, #16
    7390:	685b      	ldr	r3, [r3, #4]
    7392:	2280      	movs	r2, #128	; 0x80
    7394:	0612      	lsls	r2, r2, #24
    7396:	431a      	orrs	r2, r3
    7398:	49aa      	ldr	r1, [pc, #680]	; (7644 <usb_device_endpoint_set_config+0x3b8>)
    739a:	0143      	lsls	r3, r0, #5
    739c:	18cb      	adds	r3, r1, r3
    739e:	3310      	adds	r3, #16
    73a0:	605a      	str	r2, [r3, #4]
    73a2:	e021      	b.n	73e8 <usb_device_endpoint_set_config+0x15c>
			} else {
				usb_descriptor_table.usb_endpoint_table[ep_num].DeviceDescBank[0].PCKSIZE.reg &= ~USB_DEVICE_PCKSIZE_AUTO_ZLP;
    73a4:	230f      	movs	r3, #15
    73a6:	18fb      	adds	r3, r7, r3
    73a8:	7818      	ldrb	r0, [r3, #0]
    73aa:	230f      	movs	r3, #15
    73ac:	18fb      	adds	r3, r7, r3
    73ae:	781b      	ldrb	r3, [r3, #0]
    73b0:	4aa4      	ldr	r2, [pc, #656]	; (7644 <usb_device_endpoint_set_config+0x3b8>)
    73b2:	015b      	lsls	r3, r3, #5
    73b4:	18d3      	adds	r3, r2, r3
    73b6:	685b      	ldr	r3, [r3, #4]
    73b8:	005b      	lsls	r3, r3, #1
    73ba:	085a      	lsrs	r2, r3, #1
    73bc:	49a1      	ldr	r1, [pc, #644]	; (7644 <usb_device_endpoint_set_config+0x3b8>)
    73be:	0143      	lsls	r3, r0, #5
    73c0:	18cb      	adds	r3, r1, r3
    73c2:	605a      	str	r2, [r3, #4]
				usb_descriptor_table.usb_endpoint_table[ep_num].DeviceDescBank[1].PCKSIZE.reg &= ~USB_DEVICE_PCKSIZE_AUTO_ZLP;
    73c4:	230f      	movs	r3, #15
    73c6:	18fb      	adds	r3, r7, r3
    73c8:	7818      	ldrb	r0, [r3, #0]
    73ca:	230f      	movs	r3, #15
    73cc:	18fb      	adds	r3, r7, r3
    73ce:	781b      	ldrb	r3, [r3, #0]
    73d0:	4a9c      	ldr	r2, [pc, #624]	; (7644 <usb_device_endpoint_set_config+0x3b8>)
    73d2:	015b      	lsls	r3, r3, #5
    73d4:	18d3      	adds	r3, r2, r3
    73d6:	3310      	adds	r3, #16
    73d8:	685b      	ldr	r3, [r3, #4]
    73da:	005b      	lsls	r3, r3, #1
    73dc:	085a      	lsrs	r2, r3, #1
    73de:	4999      	ldr	r1, [pc, #612]	; (7644 <usb_device_endpoint_set_config+0x3b8>)
    73e0:	0143      	lsls	r3, r0, #5
    73e2:	18cb      	adds	r3, r1, r3
    73e4:	3310      	adds	r3, #16
    73e6:	605a      	str	r2, [r3, #4]
			}
			usb_descriptor_table.usb_endpoint_table[ep_num].DeviceDescBank[0].PCKSIZE.bit.SIZE = ep_config->ep_size;
    73e8:	230f      	movs	r3, #15
    73ea:	18fb      	adds	r3, r7, r3
    73ec:	781b      	ldrb	r3, [r3, #0]
    73ee:	683a      	ldr	r2, [r7, #0]
    73f0:	7852      	ldrb	r2, [r2, #1]
    73f2:	1c11      	adds	r1, r2, #0
    73f4:	2207      	movs	r2, #7
    73f6:	400a      	ands	r2, r1
    73f8:	b2d2      	uxtb	r2, r2
    73fa:	4992      	ldr	r1, [pc, #584]	; (7644 <usb_device_endpoint_set_config+0x3b8>)
    73fc:	015b      	lsls	r3, r3, #5
    73fe:	18cb      	adds	r3, r1, r3
    7400:	2107      	movs	r1, #7
    7402:	400a      	ands	r2, r1
    7404:	0712      	lsls	r2, r2, #28
    7406:	6859      	ldr	r1, [r3, #4]
    7408:	488f      	ldr	r0, [pc, #572]	; (7648 <usb_device_endpoint_set_config+0x3bc>)
    740a:	4001      	ands	r1, r0
    740c:	430a      	orrs	r2, r1
    740e:	605a      	str	r2, [r3, #4]
			usb_descriptor_table.usb_endpoint_table[ep_num].DeviceDescBank[1].PCKSIZE.bit.SIZE = ep_config->ep_size;
    7410:	230f      	movs	r3, #15
    7412:	18fb      	adds	r3, r7, r3
    7414:	781b      	ldrb	r3, [r3, #0]
    7416:	683a      	ldr	r2, [r7, #0]
    7418:	7852      	ldrb	r2, [r2, #1]
    741a:	1c11      	adds	r1, r2, #0
    741c:	2207      	movs	r2, #7
    741e:	400a      	ands	r2, r1
    7420:	b2d2      	uxtb	r2, r2
    7422:	4988      	ldr	r1, [pc, #544]	; (7644 <usb_device_endpoint_set_config+0x3b8>)
    7424:	015b      	lsls	r3, r3, #5
    7426:	18cb      	adds	r3, r1, r3
    7428:	3310      	adds	r3, #16
    742a:	2107      	movs	r1, #7
    742c:	400a      	ands	r2, r1
    742e:	0712      	lsls	r2, r2, #28
    7430:	6859      	ldr	r1, [r3, #4]
    7432:	4885      	ldr	r0, [pc, #532]	; (7648 <usb_device_endpoint_set_config+0x3bc>)
    7434:	4001      	ands	r1, r0
    7436:	430a      	orrs	r2, r1
    7438:	605a      	str	r2, [r3, #4]
			return STATUS_OK;
    743a:	2300      	movs	r3, #0
    743c:	e18c      	b.n	7758 <usb_device_endpoint_set_config+0x4cc>

		case USB_DEVICE_ENDPOINT_TYPE_ISOCHRONOUS:
			if (ep_bank) {
    743e:	230e      	movs	r3, #14
    7440:	18fb      	adds	r3, r7, r3
    7442:	781b      	ldrb	r3, [r3, #0]
    7444:	2b00      	cmp	r3, #0
    7446:	d02f      	beq.n	74a8 <usb_device_endpoint_set_config+0x21c>
				if ((module_inst->hw->DEVICE.DeviceEndpoint[ep_num].EPCFG.reg & USB_DEVICE_EPCFG_EPTYPE1_Msk) == 0){
    7448:	687b      	ldr	r3, [r7, #4]
    744a:	681b      	ldr	r3, [r3, #0]
    744c:	220f      	movs	r2, #15
    744e:	18ba      	adds	r2, r7, r2
    7450:	7812      	ldrb	r2, [r2, #0]
    7452:	3208      	adds	r2, #8
    7454:	0152      	lsls	r2, r2, #5
    7456:	5cd3      	ldrb	r3, [r2, r3]
    7458:	b2db      	uxtb	r3, r3
    745a:	1c1a      	adds	r2, r3, #0
    745c:	2370      	movs	r3, #112	; 0x70
    745e:	4013      	ands	r3, r2
    7460:	d120      	bne.n	74a4 <usb_device_endpoint_set_config+0x218>
					module_inst->hw->DEVICE.DeviceEndpoint[ep_num].EPCFG.reg |= USB_DEVICE_EPCFG_EPTYPE1(2);
    7462:	687b      	ldr	r3, [r7, #4]
    7464:	681a      	ldr	r2, [r3, #0]
    7466:	230f      	movs	r3, #15
    7468:	18fb      	adds	r3, r7, r3
    746a:	7819      	ldrb	r1, [r3, #0]
    746c:	687b      	ldr	r3, [r7, #4]
    746e:	681b      	ldr	r3, [r3, #0]
    7470:	200f      	movs	r0, #15
    7472:	1838      	adds	r0, r7, r0
    7474:	7800      	ldrb	r0, [r0, #0]
    7476:	3008      	adds	r0, #8
    7478:	0140      	lsls	r0, r0, #5
    747a:	5cc3      	ldrb	r3, [r0, r3]
    747c:	b2db      	uxtb	r3, r3
    747e:	2020      	movs	r0, #32
    7480:	4303      	orrs	r3, r0
    7482:	b2d8      	uxtb	r0, r3
    7484:	1c0b      	adds	r3, r1, #0
    7486:	3308      	adds	r3, #8
    7488:	015b      	lsls	r3, r3, #5
    748a:	1c01      	adds	r1, r0, #0
    748c:	5499      	strb	r1, [r3, r2]
					module_inst->hw->DEVICE.DeviceEndpoint[ep_num].EPSTATUSCLR.reg = USB_DEVICE_EPSTATUSCLR_BK1RDY;
    748e:	687b      	ldr	r3, [r7, #4]
    7490:	681a      	ldr	r2, [r3, #0]
    7492:	230f      	movs	r3, #15
    7494:	18fb      	adds	r3, r7, r3
    7496:	781b      	ldrb	r3, [r3, #0]
    7498:	3308      	adds	r3, #8
    749a:	015b      	lsls	r3, r3, #5
    749c:	18d3      	adds	r3, r2, r3
    749e:	2280      	movs	r2, #128	; 0x80
    74a0:	711a      	strb	r2, [r3, #4]
    74a2:	e031      	b.n	7508 <usb_device_endpoint_set_config+0x27c>
				} else {
					return STATUS_ERR_DENIED;
    74a4:	231c      	movs	r3, #28
    74a6:	e157      	b.n	7758 <usb_device_endpoint_set_config+0x4cc>
				}
			} else {
				if ((module_inst->hw->DEVICE.DeviceEndpoint[ep_num].EPCFG.reg & USB_DEVICE_EPCFG_EPTYPE0_Msk) == 0){
    74a8:	687b      	ldr	r3, [r7, #4]
    74aa:	681b      	ldr	r3, [r3, #0]
    74ac:	220f      	movs	r2, #15
    74ae:	18ba      	adds	r2, r7, r2
    74b0:	7812      	ldrb	r2, [r2, #0]
    74b2:	3208      	adds	r2, #8
    74b4:	0152      	lsls	r2, r2, #5
    74b6:	5cd3      	ldrb	r3, [r2, r3]
    74b8:	b2db      	uxtb	r3, r3
    74ba:	1c1a      	adds	r2, r3, #0
    74bc:	2307      	movs	r3, #7
    74be:	4013      	ands	r3, r2
    74c0:	d120      	bne.n	7504 <usb_device_endpoint_set_config+0x278>
					module_inst->hw->DEVICE.DeviceEndpoint[ep_num].EPCFG.reg |= USB_DEVICE_EPCFG_EPTYPE0(2);
    74c2:	687b      	ldr	r3, [r7, #4]
    74c4:	681a      	ldr	r2, [r3, #0]
    74c6:	230f      	movs	r3, #15
    74c8:	18fb      	adds	r3, r7, r3
    74ca:	7819      	ldrb	r1, [r3, #0]
    74cc:	687b      	ldr	r3, [r7, #4]
    74ce:	681b      	ldr	r3, [r3, #0]
    74d0:	200f      	movs	r0, #15
    74d2:	1838      	adds	r0, r7, r0
    74d4:	7800      	ldrb	r0, [r0, #0]
    74d6:	3008      	adds	r0, #8
    74d8:	0140      	lsls	r0, r0, #5
    74da:	5cc3      	ldrb	r3, [r0, r3]
    74dc:	b2db      	uxtb	r3, r3
    74de:	2002      	movs	r0, #2
    74e0:	4303      	orrs	r3, r0
    74e2:	b2d8      	uxtb	r0, r3
    74e4:	1c0b      	adds	r3, r1, #0
    74e6:	3308      	adds	r3, #8
    74e8:	015b      	lsls	r3, r3, #5
    74ea:	1c01      	adds	r1, r0, #0
    74ec:	5499      	strb	r1, [r3, r2]
					module_inst->hw->DEVICE.DeviceEndpoint[ep_num].EPSTATUSSET.reg = USB_DEVICE_EPSTATUSSET_BK0RDY;
    74ee:	687b      	ldr	r3, [r7, #4]
    74f0:	681a      	ldr	r2, [r3, #0]
    74f2:	230f      	movs	r3, #15
    74f4:	18fb      	adds	r3, r7, r3
    74f6:	781b      	ldrb	r3, [r3, #0]
    74f8:	3308      	adds	r3, #8
    74fa:	015b      	lsls	r3, r3, #5
    74fc:	18d3      	adds	r3, r2, r3
    74fe:	2240      	movs	r2, #64	; 0x40
    7500:	715a      	strb	r2, [r3, #5]
    7502:	e001      	b.n	7508 <usb_device_endpoint_set_config+0x27c>
				} else {
					return STATUS_ERR_DENIED;
    7504:	231c      	movs	r3, #28
    7506:	e127      	b.n	7758 <usb_device_endpoint_set_config+0x4cc>
				}
			}
			break;
    7508:	e0d2      	b.n	76b0 <usb_device_endpoint_set_config+0x424>

		case USB_DEVICE_ENDPOINT_TYPE_BULK:
			if (ep_bank) {
    750a:	230e      	movs	r3, #14
    750c:	18fb      	adds	r3, r7, r3
    750e:	781b      	ldrb	r3, [r3, #0]
    7510:	2b00      	cmp	r3, #0
    7512:	d02f      	beq.n	7574 <usb_device_endpoint_set_config+0x2e8>
				if ((module_inst->hw->DEVICE.DeviceEndpoint[ep_num].EPCFG.reg & USB_DEVICE_EPCFG_EPTYPE1_Msk) == 0){
    7514:	687b      	ldr	r3, [r7, #4]
    7516:	681b      	ldr	r3, [r3, #0]
    7518:	220f      	movs	r2, #15
    751a:	18ba      	adds	r2, r7, r2
    751c:	7812      	ldrb	r2, [r2, #0]
    751e:	3208      	adds	r2, #8
    7520:	0152      	lsls	r2, r2, #5
    7522:	5cd3      	ldrb	r3, [r2, r3]
    7524:	b2db      	uxtb	r3, r3
    7526:	1c1a      	adds	r2, r3, #0
    7528:	2370      	movs	r3, #112	; 0x70
    752a:	4013      	ands	r3, r2
    752c:	d120      	bne.n	7570 <usb_device_endpoint_set_config+0x2e4>
					module_inst->hw->DEVICE.DeviceEndpoint[ep_num].EPCFG.reg |= USB_DEVICE_EPCFG_EPTYPE1(3);
    752e:	687b      	ldr	r3, [r7, #4]
    7530:	681a      	ldr	r2, [r3, #0]
    7532:	230f      	movs	r3, #15
    7534:	18fb      	adds	r3, r7, r3
    7536:	7819      	ldrb	r1, [r3, #0]
    7538:	687b      	ldr	r3, [r7, #4]
    753a:	681b      	ldr	r3, [r3, #0]
    753c:	200f      	movs	r0, #15
    753e:	1838      	adds	r0, r7, r0
    7540:	7800      	ldrb	r0, [r0, #0]
    7542:	3008      	adds	r0, #8
    7544:	0140      	lsls	r0, r0, #5
    7546:	5cc3      	ldrb	r3, [r0, r3]
    7548:	b2db      	uxtb	r3, r3
    754a:	2030      	movs	r0, #48	; 0x30
    754c:	4303      	orrs	r3, r0
    754e:	b2d8      	uxtb	r0, r3
    7550:	1c0b      	adds	r3, r1, #0
    7552:	3308      	adds	r3, #8
    7554:	015b      	lsls	r3, r3, #5
    7556:	1c01      	adds	r1, r0, #0
    7558:	5499      	strb	r1, [r3, r2]
					module_inst->hw->DEVICE.DeviceEndpoint[ep_num].EPSTATUSCLR.reg = USB_DEVICE_EPSTATUSCLR_BK1RDY;
    755a:	687b      	ldr	r3, [r7, #4]
    755c:	681a      	ldr	r2, [r3, #0]
    755e:	230f      	movs	r3, #15
    7560:	18fb      	adds	r3, r7, r3
    7562:	781b      	ldrb	r3, [r3, #0]
    7564:	3308      	adds	r3, #8
    7566:	015b      	lsls	r3, r3, #5
    7568:	18d3      	adds	r3, r2, r3
    756a:	2280      	movs	r2, #128	; 0x80
    756c:	711a      	strb	r2, [r3, #4]
    756e:	e031      	b.n	75d4 <usb_device_endpoint_set_config+0x348>
				} else {
					return STATUS_ERR_DENIED;
    7570:	231c      	movs	r3, #28
    7572:	e0f1      	b.n	7758 <usb_device_endpoint_set_config+0x4cc>
				}
			} else {
				if ((module_inst->hw->DEVICE.DeviceEndpoint[ep_num].EPCFG.reg & USB_DEVICE_EPCFG_EPTYPE0_Msk) == 0){
    7574:	687b      	ldr	r3, [r7, #4]
    7576:	681b      	ldr	r3, [r3, #0]
    7578:	220f      	movs	r2, #15
    757a:	18ba      	adds	r2, r7, r2
    757c:	7812      	ldrb	r2, [r2, #0]
    757e:	3208      	adds	r2, #8
    7580:	0152      	lsls	r2, r2, #5
    7582:	5cd3      	ldrb	r3, [r2, r3]
    7584:	b2db      	uxtb	r3, r3
    7586:	1c1a      	adds	r2, r3, #0
    7588:	2307      	movs	r3, #7
    758a:	4013      	ands	r3, r2
    758c:	d120      	bne.n	75d0 <usb_device_endpoint_set_config+0x344>
					module_inst->hw->DEVICE.DeviceEndpoint[ep_num].EPCFG.reg |= USB_DEVICE_EPCFG_EPTYPE0(3);
    758e:	687b      	ldr	r3, [r7, #4]
    7590:	681a      	ldr	r2, [r3, #0]
    7592:	230f      	movs	r3, #15
    7594:	18fb      	adds	r3, r7, r3
    7596:	7819      	ldrb	r1, [r3, #0]
    7598:	687b      	ldr	r3, [r7, #4]
    759a:	681b      	ldr	r3, [r3, #0]
    759c:	200f      	movs	r0, #15
    759e:	1838      	adds	r0, r7, r0
    75a0:	7800      	ldrb	r0, [r0, #0]
    75a2:	3008      	adds	r0, #8
    75a4:	0140      	lsls	r0, r0, #5
    75a6:	5cc3      	ldrb	r3, [r0, r3]
    75a8:	b2db      	uxtb	r3, r3
    75aa:	2003      	movs	r0, #3
    75ac:	4303      	orrs	r3, r0
    75ae:	b2d8      	uxtb	r0, r3
    75b0:	1c0b      	adds	r3, r1, #0
    75b2:	3308      	adds	r3, #8
    75b4:	015b      	lsls	r3, r3, #5
    75b6:	1c01      	adds	r1, r0, #0
    75b8:	5499      	strb	r1, [r3, r2]
					module_inst->hw->DEVICE.DeviceEndpoint[ep_num].EPSTATUSSET.reg = USB_DEVICE_EPSTATUSSET_BK0RDY;
    75ba:	687b      	ldr	r3, [r7, #4]
    75bc:	681a      	ldr	r2, [r3, #0]
    75be:	230f      	movs	r3, #15
    75c0:	18fb      	adds	r3, r7, r3
    75c2:	781b      	ldrb	r3, [r3, #0]
    75c4:	3308      	adds	r3, #8
    75c6:	015b      	lsls	r3, r3, #5
    75c8:	18d3      	adds	r3, r2, r3
    75ca:	2240      	movs	r2, #64	; 0x40
    75cc:	715a      	strb	r2, [r3, #5]
    75ce:	e001      	b.n	75d4 <usb_device_endpoint_set_config+0x348>
				} else {
					return STATUS_ERR_DENIED;
    75d0:	231c      	movs	r3, #28
    75d2:	e0c1      	b.n	7758 <usb_device_endpoint_set_config+0x4cc>
				}
			}
			break;
    75d4:	e06c      	b.n	76b0 <usb_device_endpoint_set_config+0x424>

		case USB_DEVICE_ENDPOINT_TYPE_INTERRUPT:
			if (ep_bank) {
    75d6:	230e      	movs	r3, #14
    75d8:	18fb      	adds	r3, r7, r3
    75da:	781b      	ldrb	r3, [r3, #0]
    75dc:	2b00      	cmp	r3, #0
    75de:	d035      	beq.n	764c <usb_device_endpoint_set_config+0x3c0>
				if ((module_inst->hw->DEVICE.DeviceEndpoint[ep_num].EPCFG.reg & USB_DEVICE_EPCFG_EPTYPE1_Msk) == 0){
    75e0:	687b      	ldr	r3, [r7, #4]
    75e2:	681b      	ldr	r3, [r3, #0]
    75e4:	220f      	movs	r2, #15
    75e6:	18ba      	adds	r2, r7, r2
    75e8:	7812      	ldrb	r2, [r2, #0]
    75ea:	3208      	adds	r2, #8
    75ec:	0152      	lsls	r2, r2, #5
    75ee:	5cd3      	ldrb	r3, [r2, r3]
    75f0:	b2db      	uxtb	r3, r3
    75f2:	1c1a      	adds	r2, r3, #0
    75f4:	2370      	movs	r3, #112	; 0x70
    75f6:	4013      	ands	r3, r2
    75f8:	d120      	bne.n	763c <usb_device_endpoint_set_config+0x3b0>
					module_inst->hw->DEVICE.DeviceEndpoint[ep_num].EPCFG.reg |= USB_DEVICE_EPCFG_EPTYPE1(4);
    75fa:	687b      	ldr	r3, [r7, #4]
    75fc:	681a      	ldr	r2, [r3, #0]
    75fe:	230f      	movs	r3, #15
    7600:	18fb      	adds	r3, r7, r3
    7602:	7819      	ldrb	r1, [r3, #0]
    7604:	687b      	ldr	r3, [r7, #4]
    7606:	681b      	ldr	r3, [r3, #0]
    7608:	200f      	movs	r0, #15
    760a:	1838      	adds	r0, r7, r0
    760c:	7800      	ldrb	r0, [r0, #0]
    760e:	3008      	adds	r0, #8
    7610:	0140      	lsls	r0, r0, #5
    7612:	5cc3      	ldrb	r3, [r0, r3]
    7614:	b2db      	uxtb	r3, r3
    7616:	2040      	movs	r0, #64	; 0x40
    7618:	4303      	orrs	r3, r0
    761a:	b2d8      	uxtb	r0, r3
    761c:	1c0b      	adds	r3, r1, #0
    761e:	3308      	adds	r3, #8
    7620:	015b      	lsls	r3, r3, #5
    7622:	1c01      	adds	r1, r0, #0
    7624:	5499      	strb	r1, [r3, r2]
					module_inst->hw->DEVICE.DeviceEndpoint[ep_num].EPSTATUSCLR.reg = USB_DEVICE_EPSTATUSCLR_BK1RDY;
    7626:	687b      	ldr	r3, [r7, #4]
    7628:	681a      	ldr	r2, [r3, #0]
    762a:	230f      	movs	r3, #15
    762c:	18fb      	adds	r3, r7, r3
    762e:	781b      	ldrb	r3, [r3, #0]
    7630:	3308      	adds	r3, #8
    7632:	015b      	lsls	r3, r3, #5
    7634:	18d3      	adds	r3, r2, r3
    7636:	2280      	movs	r2, #128	; 0x80
    7638:	711a      	strb	r2, [r3, #4]
    763a:	e037      	b.n	76ac <usb_device_endpoint_set_config+0x420>
				} else {
					return STATUS_ERR_DENIED;
    763c:	231c      	movs	r3, #28
    763e:	e08b      	b.n	7758 <usb_device_endpoint_set_config+0x4cc>
    7640:	00008cf4 	.word	0x00008cf4
    7644:	2000047c 	.word	0x2000047c
    7648:	8fffffff 	.word	0x8fffffff
				}
			} else {
				if ((module_inst->hw->DEVICE.DeviceEndpoint[ep_num].EPCFG.reg & USB_DEVICE_EPCFG_EPTYPE0_Msk) == 0){
    764c:	687b      	ldr	r3, [r7, #4]
    764e:	681b      	ldr	r3, [r3, #0]
    7650:	220f      	movs	r2, #15
    7652:	18ba      	adds	r2, r7, r2
    7654:	7812      	ldrb	r2, [r2, #0]
    7656:	3208      	adds	r2, #8
    7658:	0152      	lsls	r2, r2, #5
    765a:	5cd3      	ldrb	r3, [r2, r3]
    765c:	b2db      	uxtb	r3, r3
    765e:	1c1a      	adds	r2, r3, #0
    7660:	2307      	movs	r3, #7
    7662:	4013      	ands	r3, r2
    7664:	d120      	bne.n	76a8 <usb_device_endpoint_set_config+0x41c>
					module_inst->hw->DEVICE.DeviceEndpoint[ep_num].EPCFG.reg |= USB_DEVICE_EPCFG_EPTYPE0(4);
    7666:	687b      	ldr	r3, [r7, #4]
    7668:	681a      	ldr	r2, [r3, #0]
    766a:	230f      	movs	r3, #15
    766c:	18fb      	adds	r3, r7, r3
    766e:	7819      	ldrb	r1, [r3, #0]
    7670:	687b      	ldr	r3, [r7, #4]
    7672:	681b      	ldr	r3, [r3, #0]
    7674:	200f      	movs	r0, #15
    7676:	1838      	adds	r0, r7, r0
    7678:	7800      	ldrb	r0, [r0, #0]
    767a:	3008      	adds	r0, #8
    767c:	0140      	lsls	r0, r0, #5
    767e:	5cc3      	ldrb	r3, [r0, r3]
    7680:	b2db      	uxtb	r3, r3
    7682:	2004      	movs	r0, #4
    7684:	4303      	orrs	r3, r0
    7686:	b2d8      	uxtb	r0, r3
    7688:	1c0b      	adds	r3, r1, #0
    768a:	3308      	adds	r3, #8
    768c:	015b      	lsls	r3, r3, #5
    768e:	1c01      	adds	r1, r0, #0
    7690:	5499      	strb	r1, [r3, r2]
					module_inst->hw->DEVICE.DeviceEndpoint[ep_num].EPSTATUSSET.reg = USB_DEVICE_EPSTATUSSET_BK0RDY;
    7692:	687b      	ldr	r3, [r7, #4]
    7694:	681a      	ldr	r2, [r3, #0]
    7696:	230f      	movs	r3, #15
    7698:	18fb      	adds	r3, r7, r3
    769a:	781b      	ldrb	r3, [r3, #0]
    769c:	3308      	adds	r3, #8
    769e:	015b      	lsls	r3, r3, #5
    76a0:	18d3      	adds	r3, r2, r3
    76a2:	2240      	movs	r2, #64	; 0x40
    76a4:	715a      	strb	r2, [r3, #5]
    76a6:	e001      	b.n	76ac <usb_device_endpoint_set_config+0x420>
				} else {
					return STATUS_ERR_DENIED;
    76a8:	231c      	movs	r3, #28
    76aa:	e055      	b.n	7758 <usb_device_endpoint_set_config+0x4cc>
				}
			}
			break;
    76ac:	e000      	b.n	76b0 <usb_device_endpoint_set_config+0x424>

		default:
			break;
    76ae:	46c0      	nop			; (mov r8, r8)
	}

	usb_descriptor_table.usb_endpoint_table[ep_num].DeviceDescBank[ep_bank].PCKSIZE.bit.SIZE = ep_config->ep_size;
    76b0:	230f      	movs	r3, #15
    76b2:	18fb      	adds	r3, r7, r3
    76b4:	7818      	ldrb	r0, [r3, #0]
    76b6:	230e      	movs	r3, #14
    76b8:	18fb      	adds	r3, r7, r3
    76ba:	781b      	ldrb	r3, [r3, #0]
    76bc:	683a      	ldr	r2, [r7, #0]
    76be:	7852      	ldrb	r2, [r2, #1]
    76c0:	1c11      	adds	r1, r2, #0
    76c2:	2207      	movs	r2, #7
    76c4:	400a      	ands	r2, r1
    76c6:	b2d2      	uxtb	r2, r2
    76c8:	4925      	ldr	r1, [pc, #148]	; (7760 <usb_device_endpoint_set_config+0x4d4>)
    76ca:	0040      	lsls	r0, r0, #1
    76cc:	18c3      	adds	r3, r0, r3
    76ce:	011b      	lsls	r3, r3, #4
    76d0:	18cb      	adds	r3, r1, r3
    76d2:	2107      	movs	r1, #7
    76d4:	400a      	ands	r2, r1
    76d6:	0712      	lsls	r2, r2, #28
    76d8:	6859      	ldr	r1, [r3, #4]
    76da:	4822      	ldr	r0, [pc, #136]	; (7764 <usb_device_endpoint_set_config+0x4d8>)
    76dc:	4001      	ands	r1, r0
    76de:	430a      	orrs	r2, r1
    76e0:	605a      	str	r2, [r3, #4]

	if (true == ep_config->auto_zlp) {
    76e2:	683b      	ldr	r3, [r7, #0]
    76e4:	789b      	ldrb	r3, [r3, #2]
    76e6:	2b00      	cmp	r3, #0
    76e8:	d01b      	beq.n	7722 <usb_device_endpoint_set_config+0x496>
		usb_descriptor_table.usb_endpoint_table[ep_num].DeviceDescBank[ep_bank].PCKSIZE.reg |= USB_DEVICE_PCKSIZE_AUTO_ZLP;
    76ea:	230f      	movs	r3, #15
    76ec:	18fb      	adds	r3, r7, r3
    76ee:	781c      	ldrb	r4, [r3, #0]
    76f0:	230e      	movs	r3, #14
    76f2:	18fb      	adds	r3, r7, r3
    76f4:	7818      	ldrb	r0, [r3, #0]
    76f6:	230f      	movs	r3, #15
    76f8:	18fb      	adds	r3, r7, r3
    76fa:	7819      	ldrb	r1, [r3, #0]
    76fc:	230e      	movs	r3, #14
    76fe:	18fb      	adds	r3, r7, r3
    7700:	781b      	ldrb	r3, [r3, #0]
    7702:	4a17      	ldr	r2, [pc, #92]	; (7760 <usb_device_endpoint_set_config+0x4d4>)
    7704:	0049      	lsls	r1, r1, #1
    7706:	18cb      	adds	r3, r1, r3
    7708:	011b      	lsls	r3, r3, #4
    770a:	18d3      	adds	r3, r2, r3
    770c:	685b      	ldr	r3, [r3, #4]
    770e:	2280      	movs	r2, #128	; 0x80
    7710:	0612      	lsls	r2, r2, #24
    7712:	431a      	orrs	r2, r3
    7714:	4912      	ldr	r1, [pc, #72]	; (7760 <usb_device_endpoint_set_config+0x4d4>)
    7716:	0063      	lsls	r3, r4, #1
    7718:	181b      	adds	r3, r3, r0
    771a:	011b      	lsls	r3, r3, #4
    771c:	18cb      	adds	r3, r1, r3
    771e:	605a      	str	r2, [r3, #4]
    7720:	e019      	b.n	7756 <usb_device_endpoint_set_config+0x4ca>
		} else {
		usb_descriptor_table.usb_endpoint_table[ep_num].DeviceDescBank[ep_bank].PCKSIZE.reg &= ~USB_DEVICE_PCKSIZE_AUTO_ZLP;
    7722:	230f      	movs	r3, #15
    7724:	18fb      	adds	r3, r7, r3
    7726:	781c      	ldrb	r4, [r3, #0]
    7728:	230e      	movs	r3, #14
    772a:	18fb      	adds	r3, r7, r3
    772c:	7818      	ldrb	r0, [r3, #0]
    772e:	230f      	movs	r3, #15
    7730:	18fb      	adds	r3, r7, r3
    7732:	7819      	ldrb	r1, [r3, #0]
    7734:	230e      	movs	r3, #14
    7736:	18fb      	adds	r3, r7, r3
    7738:	781b      	ldrb	r3, [r3, #0]
    773a:	4a09      	ldr	r2, [pc, #36]	; (7760 <usb_device_endpoint_set_config+0x4d4>)
    773c:	0049      	lsls	r1, r1, #1
    773e:	18cb      	adds	r3, r1, r3
    7740:	011b      	lsls	r3, r3, #4
    7742:	18d3      	adds	r3, r2, r3
    7744:	685b      	ldr	r3, [r3, #4]
    7746:	005b      	lsls	r3, r3, #1
    7748:	085a      	lsrs	r2, r3, #1
    774a:	4905      	ldr	r1, [pc, #20]	; (7760 <usb_device_endpoint_set_config+0x4d4>)
    774c:	0063      	lsls	r3, r4, #1
    774e:	181b      	adds	r3, r3, r0
    7750:	011b      	lsls	r3, r3, #4
    7752:	18cb      	adds	r3, r1, r3
    7754:	605a      	str	r2, [r3, #4]
	}

	return STATUS_OK;
    7756:	2300      	movs	r3, #0
}
    7758:	1c18      	adds	r0, r3, #0
    775a:	46bd      	mov	sp, r7
    775c:	b005      	add	sp, #20
    775e:	bd90      	pop	{r4, r7, pc}
    7760:	2000047c 	.word	0x2000047c
    7764:	8fffffff 	.word	0x8fffffff

00007768 <usb_device_endpoint_abort_job>:
 *
 * \param module_inst Pointer to USB software instance struct
 * \param ep          Endpoint address
 */
void usb_device_endpoint_abort_job(struct usb_module *module_inst, uint8_t ep)
{
    7768:	b580      	push	{r7, lr}
    776a:	b084      	sub	sp, #16
    776c:	af00      	add	r7, sp, #0
    776e:	6078      	str	r0, [r7, #4]
    7770:	1c0a      	adds	r2, r1, #0
    7772:	1cfb      	adds	r3, r7, #3
    7774:	701a      	strb	r2, [r3, #0]
	uint8_t ep_num;
	ep_num = ep & USB_EP_ADDR_MASK;
    7776:	230f      	movs	r3, #15
    7778:	18fb      	adds	r3, r7, r3
    777a:	1cfa      	adds	r2, r7, #3
    777c:	7812      	ldrb	r2, [r2, #0]
    777e:	210f      	movs	r1, #15
    7780:	400a      	ands	r2, r1
    7782:	701a      	strb	r2, [r3, #0]

	// Stop transfer
	if (ep & USB_EP_DIR_IN) {
    7784:	1cfb      	adds	r3, r7, #3
    7786:	781b      	ldrb	r3, [r3, #0]
    7788:	b25b      	sxtb	r3, r3
    778a:	2b00      	cmp	r3, #0
    778c:	da14      	bge.n	77b8 <usb_device_endpoint_abort_job+0x50>
		module_inst->hw->DEVICE.DeviceEndpoint[ep_num].EPSTATUSCLR.reg = USB_DEVICE_EPSTATUSCLR_BK1RDY;
    778e:	687b      	ldr	r3, [r7, #4]
    7790:	681a      	ldr	r2, [r3, #0]
    7792:	230f      	movs	r3, #15
    7794:	18fb      	adds	r3, r7, r3
    7796:	781b      	ldrb	r3, [r3, #0]
    7798:	3308      	adds	r3, #8
    779a:	015b      	lsls	r3, r3, #5
    779c:	18d3      	adds	r3, r2, r3
    779e:	2280      	movs	r2, #128	; 0x80
    77a0:	711a      	strb	r2, [r3, #4]
		// Eventually ack a transfer occur during abort
		module_inst->hw->DEVICE.DeviceEndpoint[ep_num].EPINTFLAG.reg = USB_DEVICE_EPINTFLAG_TRCPT1;
    77a2:	687b      	ldr	r3, [r7, #4]
    77a4:	681a      	ldr	r2, [r3, #0]
    77a6:	230f      	movs	r3, #15
    77a8:	18fb      	adds	r3, r7, r3
    77aa:	781b      	ldrb	r3, [r3, #0]
    77ac:	3308      	adds	r3, #8
    77ae:	015b      	lsls	r3, r3, #5
    77b0:	18d3      	adds	r3, r2, r3
    77b2:	2202      	movs	r2, #2
    77b4:	71da      	strb	r2, [r3, #7]
    77b6:	e013      	b.n	77e0 <usb_device_endpoint_abort_job+0x78>
	} else {
		module_inst->hw->DEVICE.DeviceEndpoint[ep_num].EPSTATUSSET.reg = USB_DEVICE_EPSTATUSSET_BK0RDY;
    77b8:	687b      	ldr	r3, [r7, #4]
    77ba:	681a      	ldr	r2, [r3, #0]
    77bc:	230f      	movs	r3, #15
    77be:	18fb      	adds	r3, r7, r3
    77c0:	781b      	ldrb	r3, [r3, #0]
    77c2:	3308      	adds	r3, #8
    77c4:	015b      	lsls	r3, r3, #5
    77c6:	18d3      	adds	r3, r2, r3
    77c8:	2240      	movs	r2, #64	; 0x40
    77ca:	715a      	strb	r2, [r3, #5]
		// Eventually ack a transfer occur during abort
		module_inst->hw->DEVICE.DeviceEndpoint[ep_num].EPINTFLAG.reg = USB_DEVICE_EPINTFLAG_TRCPT0;
    77cc:	687b      	ldr	r3, [r7, #4]
    77ce:	681a      	ldr	r2, [r3, #0]
    77d0:	230f      	movs	r3, #15
    77d2:	18fb      	adds	r3, r7, r3
    77d4:	781b      	ldrb	r3, [r3, #0]
    77d6:	3308      	adds	r3, #8
    77d8:	015b      	lsls	r3, r3, #5
    77da:	18d3      	adds	r3, r2, r3
    77dc:	2201      	movs	r2, #1
    77de:	71da      	strb	r2, [r3, #7]
	}
}
    77e0:	46bd      	mov	sp, r7
    77e2:	b004      	add	sp, #16
    77e4:	bd80      	pop	{r7, pc}
    77e6:	46c0      	nop			; (mov r8, r8)

000077e8 <usb_device_endpoint_is_halted>:
 * \param ep          Endpoint address
 *
 * \return \c true if the endpoint is halted
 */
bool usb_device_endpoint_is_halted(struct usb_module *module_inst, uint8_t ep)
{
    77e8:	b580      	push	{r7, lr}
    77ea:	b084      	sub	sp, #16
    77ec:	af00      	add	r7, sp, #0
    77ee:	6078      	str	r0, [r7, #4]
    77f0:	1c0a      	adds	r2, r1, #0
    77f2:	1cfb      	adds	r3, r7, #3
    77f4:	701a      	strb	r2, [r3, #0]
	uint8_t ep_num = ep & USB_EP_ADDR_MASK;
    77f6:	230f      	movs	r3, #15
    77f8:	18fb      	adds	r3, r7, r3
    77fa:	1cfa      	adds	r2, r7, #3
    77fc:	7812      	ldrb	r2, [r2, #0]
    77fe:	210f      	movs	r1, #15
    7800:	400a      	ands	r2, r1
    7802:	701a      	strb	r2, [r3, #0]

	if (ep & USB_EP_DIR_IN) {
    7804:	1cfb      	adds	r3, r7, #3
    7806:	781b      	ldrb	r3, [r3, #0]
    7808:	b25b      	sxtb	r3, r3
    780a:	2b00      	cmp	r3, #0
    780c:	da10      	bge.n	7830 <usb_device_endpoint_is_halted+0x48>
		return (module_inst->hw->DEVICE.DeviceEndpoint[ep_num].EPSTATUS.reg & USB_DEVICE_EPSTATUSSET_STALLRQ1);
    780e:	687b      	ldr	r3, [r7, #4]
    7810:	681a      	ldr	r2, [r3, #0]
    7812:	230f      	movs	r3, #15
    7814:	18fb      	adds	r3, r7, r3
    7816:	781b      	ldrb	r3, [r3, #0]
    7818:	3308      	adds	r3, #8
    781a:	015b      	lsls	r3, r3, #5
    781c:	18d3      	adds	r3, r2, r3
    781e:	799b      	ldrb	r3, [r3, #6]
    7820:	b2db      	uxtb	r3, r3
    7822:	1c1a      	adds	r2, r3, #0
    7824:	2320      	movs	r3, #32
    7826:	4013      	ands	r3, r2
    7828:	1e5a      	subs	r2, r3, #1
    782a:	4193      	sbcs	r3, r2
    782c:	b2db      	uxtb	r3, r3
    782e:	e00f      	b.n	7850 <usb_device_endpoint_is_halted+0x68>
	} else {
		return (module_inst->hw->DEVICE.DeviceEndpoint[ep_num].EPSTATUS.reg & USB_DEVICE_EPSTATUSSET_STALLRQ0);
    7830:	687b      	ldr	r3, [r7, #4]
    7832:	681a      	ldr	r2, [r3, #0]
    7834:	230f      	movs	r3, #15
    7836:	18fb      	adds	r3, r7, r3
    7838:	781b      	ldrb	r3, [r3, #0]
    783a:	3308      	adds	r3, #8
    783c:	015b      	lsls	r3, r3, #5
    783e:	18d3      	adds	r3, r2, r3
    7840:	799b      	ldrb	r3, [r3, #6]
    7842:	b2db      	uxtb	r3, r3
    7844:	1c1a      	adds	r2, r3, #0
    7846:	2310      	movs	r3, #16
    7848:	4013      	ands	r3, r2
    784a:	1e5a      	subs	r2, r3, #1
    784c:	4193      	sbcs	r3, r2
    784e:	b2db      	uxtb	r3, r3
	}
}
    7850:	1c18      	adds	r0, r3, #0
    7852:	46bd      	mov	sp, r7
    7854:	b004      	add	sp, #16
    7856:	bd80      	pop	{r7, pc}

00007858 <usb_device_endpoint_set_halt>:
 *
 * \param module_inst Pointer to USB software instance struct
 * \param ep          Endpoint address
 */
void usb_device_endpoint_set_halt(struct usb_module *module_inst, uint8_t ep)
{
    7858:	b580      	push	{r7, lr}
    785a:	b084      	sub	sp, #16
    785c:	af00      	add	r7, sp, #0
    785e:	6078      	str	r0, [r7, #4]
    7860:	1c0a      	adds	r2, r1, #0
    7862:	1cfb      	adds	r3, r7, #3
    7864:	701a      	strb	r2, [r3, #0]
	uint8_t ep_num = ep & USB_EP_ADDR_MASK;
    7866:	230f      	movs	r3, #15
    7868:	18fb      	adds	r3, r7, r3
    786a:	1cfa      	adds	r2, r7, #3
    786c:	7812      	ldrb	r2, [r2, #0]
    786e:	210f      	movs	r1, #15
    7870:	400a      	ands	r2, r1
    7872:	701a      	strb	r2, [r3, #0]

	// Stall endpoint
	if (ep & USB_EP_DIR_IN) {
    7874:	1cfb      	adds	r3, r7, #3
    7876:	781b      	ldrb	r3, [r3, #0]
    7878:	b25b      	sxtb	r3, r3
    787a:	2b00      	cmp	r3, #0
    787c:	da0a      	bge.n	7894 <usb_device_endpoint_set_halt+0x3c>
		module_inst->hw->DEVICE.DeviceEndpoint[ep_num].EPSTATUSSET.reg = USB_DEVICE_EPSTATUSSET_STALLRQ1;
    787e:	687b      	ldr	r3, [r7, #4]
    7880:	681a      	ldr	r2, [r3, #0]
    7882:	230f      	movs	r3, #15
    7884:	18fb      	adds	r3, r7, r3
    7886:	781b      	ldrb	r3, [r3, #0]
    7888:	3308      	adds	r3, #8
    788a:	015b      	lsls	r3, r3, #5
    788c:	18d3      	adds	r3, r2, r3
    788e:	2220      	movs	r2, #32
    7890:	715a      	strb	r2, [r3, #5]
    7892:	e009      	b.n	78a8 <usb_device_endpoint_set_halt+0x50>
	} else {
		module_inst->hw->DEVICE.DeviceEndpoint[ep_num].EPSTATUSSET.reg = USB_DEVICE_EPSTATUSSET_STALLRQ0;
    7894:	687b      	ldr	r3, [r7, #4]
    7896:	681a      	ldr	r2, [r3, #0]
    7898:	230f      	movs	r3, #15
    789a:	18fb      	adds	r3, r7, r3
    789c:	781b      	ldrb	r3, [r3, #0]
    789e:	3308      	adds	r3, #8
    78a0:	015b      	lsls	r3, r3, #5
    78a2:	18d3      	adds	r3, r2, r3
    78a4:	2210      	movs	r2, #16
    78a6:	715a      	strb	r2, [r3, #5]
	}
}
    78a8:	46bd      	mov	sp, r7
    78aa:	b004      	add	sp, #16
    78ac:	bd80      	pop	{r7, pc}
    78ae:	46c0      	nop			; (mov r8, r8)

000078b0 <usb_device_endpoint_clear_halt>:
 *
 * \param module_inst Pointer to USB software instance struct
 * \param ep          Endpoint address
 */
void usb_device_endpoint_clear_halt(struct usb_module *module_inst, uint8_t ep)
{
    78b0:	b580      	push	{r7, lr}
    78b2:	b084      	sub	sp, #16
    78b4:	af00      	add	r7, sp, #0
    78b6:	6078      	str	r0, [r7, #4]
    78b8:	1c0a      	adds	r2, r1, #0
    78ba:	1cfb      	adds	r3, r7, #3
    78bc:	701a      	strb	r2, [r3, #0]
	uint8_t ep_num = ep & USB_EP_ADDR_MASK;
    78be:	230f      	movs	r3, #15
    78c0:	18fb      	adds	r3, r7, r3
    78c2:	1cfa      	adds	r2, r7, #3
    78c4:	7812      	ldrb	r2, [r2, #0]
    78c6:	210f      	movs	r1, #15
    78c8:	400a      	ands	r2, r1
    78ca:	701a      	strb	r2, [r3, #0]

	if (ep & USB_EP_DIR_IN) {
    78cc:	1cfb      	adds	r3, r7, #3
    78ce:	781b      	ldrb	r3, [r3, #0]
    78d0:	b25b      	sxtb	r3, r3
    78d2:	2b00      	cmp	r3, #0
    78d4:	da3a      	bge.n	794c <usb_device_endpoint_clear_halt+0x9c>
		if (module_inst->hw->DEVICE.DeviceEndpoint[ep_num].EPSTATUS.reg & USB_DEVICE_EPSTATUSSET_STALLRQ1) {
    78d6:	687b      	ldr	r3, [r7, #4]
    78d8:	681a      	ldr	r2, [r3, #0]
    78da:	230f      	movs	r3, #15
    78dc:	18fb      	adds	r3, r7, r3
    78de:	781b      	ldrb	r3, [r3, #0]
    78e0:	3308      	adds	r3, #8
    78e2:	015b      	lsls	r3, r3, #5
    78e4:	18d3      	adds	r3, r2, r3
    78e6:	799b      	ldrb	r3, [r3, #6]
    78e8:	b2db      	uxtb	r3, r3
    78ea:	1c1a      	adds	r2, r3, #0
    78ec:	2320      	movs	r3, #32
    78ee:	4013      	ands	r3, r2
    78f0:	d066      	beq.n	79c0 <usb_device_endpoint_clear_halt+0x110>
			// Remove stall request
			module_inst->hw->DEVICE.DeviceEndpoint[ep_num].EPSTATUSCLR.reg = USB_DEVICE_EPSTATUSCLR_STALLRQ1;
    78f2:	687b      	ldr	r3, [r7, #4]
    78f4:	681a      	ldr	r2, [r3, #0]
    78f6:	230f      	movs	r3, #15
    78f8:	18fb      	adds	r3, r7, r3
    78fa:	781b      	ldrb	r3, [r3, #0]
    78fc:	3308      	adds	r3, #8
    78fe:	015b      	lsls	r3, r3, #5
    7900:	18d3      	adds	r3, r2, r3
    7902:	2220      	movs	r2, #32
    7904:	711a      	strb	r2, [r3, #4]
			if (module_inst->hw->DEVICE.DeviceEndpoint[ep_num].EPINTFLAG.reg & USB_DEVICE_EPINTFLAG_STALL1) {
    7906:	687b      	ldr	r3, [r7, #4]
    7908:	681a      	ldr	r2, [r3, #0]
    790a:	230f      	movs	r3, #15
    790c:	18fb      	adds	r3, r7, r3
    790e:	781b      	ldrb	r3, [r3, #0]
    7910:	3308      	adds	r3, #8
    7912:	015b      	lsls	r3, r3, #5
    7914:	18d3      	adds	r3, r2, r3
    7916:	79db      	ldrb	r3, [r3, #7]
    7918:	b2db      	uxtb	r3, r3
    791a:	1c1a      	adds	r2, r3, #0
    791c:	2340      	movs	r3, #64	; 0x40
    791e:	4013      	ands	r3, r2
    7920:	d04e      	beq.n	79c0 <usb_device_endpoint_clear_halt+0x110>
				module_inst->hw->DEVICE.DeviceEndpoint[ep_num].EPINTFLAG.reg = USB_DEVICE_EPINTFLAG_STALL1;
    7922:	687b      	ldr	r3, [r7, #4]
    7924:	681a      	ldr	r2, [r3, #0]
    7926:	230f      	movs	r3, #15
    7928:	18fb      	adds	r3, r7, r3
    792a:	781b      	ldrb	r3, [r3, #0]
    792c:	3308      	adds	r3, #8
    792e:	015b      	lsls	r3, r3, #5
    7930:	18d3      	adds	r3, r2, r3
    7932:	2240      	movs	r2, #64	; 0x40
    7934:	71da      	strb	r2, [r3, #7]
				// The Stall has occurred, then reset data toggle
				module_inst->hw->DEVICE.DeviceEndpoint[ep_num].EPSTATUSCLR.reg = USB_DEVICE_EPSTATUSSET_DTGLIN;
    7936:	687b      	ldr	r3, [r7, #4]
    7938:	681a      	ldr	r2, [r3, #0]
    793a:	230f      	movs	r3, #15
    793c:	18fb      	adds	r3, r7, r3
    793e:	781b      	ldrb	r3, [r3, #0]
    7940:	3308      	adds	r3, #8
    7942:	015b      	lsls	r3, r3, #5
    7944:	18d3      	adds	r3, r2, r3
    7946:	2202      	movs	r2, #2
    7948:	711a      	strb	r2, [r3, #4]
    794a:	e039      	b.n	79c0 <usb_device_endpoint_clear_halt+0x110>
			}
		}
	} else {
		if (module_inst->hw->DEVICE.DeviceEndpoint[ep_num].EPSTATUS.reg & USB_DEVICE_EPSTATUSSET_STALLRQ0) {
    794c:	687b      	ldr	r3, [r7, #4]
    794e:	681a      	ldr	r2, [r3, #0]
    7950:	230f      	movs	r3, #15
    7952:	18fb      	adds	r3, r7, r3
    7954:	781b      	ldrb	r3, [r3, #0]
    7956:	3308      	adds	r3, #8
    7958:	015b      	lsls	r3, r3, #5
    795a:	18d3      	adds	r3, r2, r3
    795c:	799b      	ldrb	r3, [r3, #6]
    795e:	b2db      	uxtb	r3, r3
    7960:	1c1a      	adds	r2, r3, #0
    7962:	2310      	movs	r3, #16
    7964:	4013      	ands	r3, r2
    7966:	d02b      	beq.n	79c0 <usb_device_endpoint_clear_halt+0x110>
			// Remove stall request
			module_inst->hw->DEVICE.DeviceEndpoint[ep_num].EPSTATUSCLR.reg = USB_DEVICE_EPSTATUSCLR_STALLRQ0;
    7968:	687b      	ldr	r3, [r7, #4]
    796a:	681a      	ldr	r2, [r3, #0]
    796c:	230f      	movs	r3, #15
    796e:	18fb      	adds	r3, r7, r3
    7970:	781b      	ldrb	r3, [r3, #0]
    7972:	3308      	adds	r3, #8
    7974:	015b      	lsls	r3, r3, #5
    7976:	18d3      	adds	r3, r2, r3
    7978:	2210      	movs	r2, #16
    797a:	711a      	strb	r2, [r3, #4]
			if (module_inst->hw->DEVICE.DeviceEndpoint[ep_num].EPINTFLAG.reg & USB_DEVICE_EPINTFLAG_STALL0) {
    797c:	687b      	ldr	r3, [r7, #4]
    797e:	681a      	ldr	r2, [r3, #0]
    7980:	230f      	movs	r3, #15
    7982:	18fb      	adds	r3, r7, r3
    7984:	781b      	ldrb	r3, [r3, #0]
    7986:	3308      	adds	r3, #8
    7988:	015b      	lsls	r3, r3, #5
    798a:	18d3      	adds	r3, r2, r3
    798c:	79db      	ldrb	r3, [r3, #7]
    798e:	b2db      	uxtb	r3, r3
    7990:	1c1a      	adds	r2, r3, #0
    7992:	2320      	movs	r3, #32
    7994:	4013      	ands	r3, r2
    7996:	d013      	beq.n	79c0 <usb_device_endpoint_clear_halt+0x110>
				module_inst->hw->DEVICE.DeviceEndpoint[ep_num].EPINTFLAG.reg = USB_DEVICE_EPINTFLAG_STALL0;
    7998:	687b      	ldr	r3, [r7, #4]
    799a:	681a      	ldr	r2, [r3, #0]
    799c:	230f      	movs	r3, #15
    799e:	18fb      	adds	r3, r7, r3
    79a0:	781b      	ldrb	r3, [r3, #0]
    79a2:	3308      	adds	r3, #8
    79a4:	015b      	lsls	r3, r3, #5
    79a6:	18d3      	adds	r3, r2, r3
    79a8:	2220      	movs	r2, #32
    79aa:	71da      	strb	r2, [r3, #7]
				// The Stall has occurred, then reset data toggle
				module_inst->hw->DEVICE.DeviceEndpoint[ep_num].EPSTATUSCLR.reg = USB_DEVICE_EPSTATUSSET_DTGLOUT;
    79ac:	687b      	ldr	r3, [r7, #4]
    79ae:	681a      	ldr	r2, [r3, #0]
    79b0:	230f      	movs	r3, #15
    79b2:	18fb      	adds	r3, r7, r3
    79b4:	781b      	ldrb	r3, [r3, #0]
    79b6:	3308      	adds	r3, #8
    79b8:	015b      	lsls	r3, r3, #5
    79ba:	18d3      	adds	r3, r2, r3
    79bc:	2201      	movs	r2, #1
    79be:	711a      	strb	r2, [r3, #4]
			}
		}
	}
}
    79c0:	46bd      	mov	sp, r7
    79c2:	b004      	add	sp, #16
    79c4:	bd80      	pop	{r7, pc}
    79c6:	46c0      	nop			; (mov r8, r8)

000079c8 <usb_device_endpoint_write_buffer_job>:
 * \retval STATUS_OK Job started successfully
 * \retval STATUS_ERR_DENIED Endpoint is not ready
 */
enum status_code usb_device_endpoint_write_buffer_job(struct usb_module *module_inst,uint8_t ep_num,
		uint8_t* pbuf, uint32_t buf_size)
{
    79c8:	b580      	push	{r7, lr}
    79ca:	b086      	sub	sp, #24
    79cc:	af00      	add	r7, sp, #0
    79ce:	60f8      	str	r0, [r7, #12]
    79d0:	607a      	str	r2, [r7, #4]
    79d2:	603b      	str	r3, [r7, #0]
    79d4:	230b      	movs	r3, #11
    79d6:	18fb      	adds	r3, r7, r3
    79d8:	1c0a      	adds	r2, r1, #0
    79da:	701a      	strb	r2, [r3, #0]
	Assert(module_inst);
	Assert(module_inst->hw);
	Assert(ep_num < USB_EPT_NUM);

	uint8_t flag;
	flag = (uint8_t)(module_inst->hw->DEVICE.DeviceEndpoint[ep_num].EPCFG.bit.EPTYPE1);
    79dc:	68fb      	ldr	r3, [r7, #12]
    79de:	681b      	ldr	r3, [r3, #0]
    79e0:	220b      	movs	r2, #11
    79e2:	18ba      	adds	r2, r7, r2
    79e4:	7812      	ldrb	r2, [r2, #0]
    79e6:	3208      	adds	r2, #8
    79e8:	0152      	lsls	r2, r2, #5
    79ea:	5cd3      	ldrb	r3, [r2, r3]
    79ec:	b2db      	uxtb	r3, r3
    79ee:	091b      	lsrs	r3, r3, #4
    79f0:	1c1a      	adds	r2, r3, #0
    79f2:	2307      	movs	r3, #7
    79f4:	4013      	ands	r3, r2
    79f6:	b2da      	uxtb	r2, r3
    79f8:	2317      	movs	r3, #23
    79fa:	18fb      	adds	r3, r7, r3
    79fc:	701a      	strb	r2, [r3, #0]
	if ((enum usb_device_endpoint_type)(flag) == USB_DEVICE_ENDPOINT_TYPE_DISABLE) {
    79fe:	2317      	movs	r3, #23
    7a00:	18fb      	adds	r3, r7, r3
    7a02:	781b      	ldrb	r3, [r3, #0]
    7a04:	2b00      	cmp	r3, #0
    7a06:	d101      	bne.n	7a0c <usb_device_endpoint_write_buffer_job+0x44>
		return STATUS_ERR_DENIED;
    7a08:	231c      	movs	r3, #28
    7a0a:	e031      	b.n	7a70 <usb_device_endpoint_write_buffer_job+0xa8>
	};

	/* get endpoint configuration from setting register */
	usb_descriptor_table.usb_endpoint_table[ep_num].DeviceDescBank[1].ADDR.reg = (uint32_t)pbuf;
    7a0c:	230b      	movs	r3, #11
    7a0e:	18fb      	adds	r3, r7, r3
    7a10:	781b      	ldrb	r3, [r3, #0]
    7a12:	687a      	ldr	r2, [r7, #4]
    7a14:	4918      	ldr	r1, [pc, #96]	; (7a78 <usb_device_endpoint_write_buffer_job+0xb0>)
    7a16:	015b      	lsls	r3, r3, #5
    7a18:	18cb      	adds	r3, r1, r3
    7a1a:	3310      	adds	r3, #16
    7a1c:	601a      	str	r2, [r3, #0]
	usb_descriptor_table.usb_endpoint_table[ep_num].DeviceDescBank[1].PCKSIZE.bit.MULTI_PACKET_SIZE = 0;
    7a1e:	230b      	movs	r3, #11
    7a20:	18fb      	adds	r3, r7, r3
    7a22:	781b      	ldrb	r3, [r3, #0]
    7a24:	4a14      	ldr	r2, [pc, #80]	; (7a78 <usb_device_endpoint_write_buffer_job+0xb0>)
    7a26:	015b      	lsls	r3, r3, #5
    7a28:	18d3      	adds	r3, r2, r3
    7a2a:	3310      	adds	r3, #16
    7a2c:	685a      	ldr	r2, [r3, #4]
    7a2e:	4913      	ldr	r1, [pc, #76]	; (7a7c <usb_device_endpoint_write_buffer_job+0xb4>)
    7a30:	400a      	ands	r2, r1
    7a32:	605a      	str	r2, [r3, #4]
	usb_descriptor_table.usb_endpoint_table[ep_num].DeviceDescBank[1].PCKSIZE.bit.BYTE_COUNT = buf_size;
    7a34:	230b      	movs	r3, #11
    7a36:	18fb      	adds	r3, r7, r3
    7a38:	781b      	ldrb	r3, [r3, #0]
    7a3a:	683a      	ldr	r2, [r7, #0]
    7a3c:	b292      	uxth	r2, r2
    7a3e:	0492      	lsls	r2, r2, #18
    7a40:	0c92      	lsrs	r2, r2, #18
    7a42:	b292      	uxth	r2, r2
    7a44:	490c      	ldr	r1, [pc, #48]	; (7a78 <usb_device_endpoint_write_buffer_job+0xb0>)
    7a46:	015b      	lsls	r3, r3, #5
    7a48:	18cb      	adds	r3, r1, r3
    7a4a:	3310      	adds	r3, #16
    7a4c:	0492      	lsls	r2, r2, #18
    7a4e:	0c92      	lsrs	r2, r2, #18
    7a50:	6859      	ldr	r1, [r3, #4]
    7a52:	0b89      	lsrs	r1, r1, #14
    7a54:	0389      	lsls	r1, r1, #14
    7a56:	430a      	orrs	r2, r1
    7a58:	605a      	str	r2, [r3, #4]
	module_inst->hw->DEVICE.DeviceEndpoint[ep_num].EPSTATUSSET.reg = USB_DEVICE_EPSTATUSSET_BK1RDY;
    7a5a:	68fb      	ldr	r3, [r7, #12]
    7a5c:	681a      	ldr	r2, [r3, #0]
    7a5e:	230b      	movs	r3, #11
    7a60:	18fb      	adds	r3, r7, r3
    7a62:	781b      	ldrb	r3, [r3, #0]
    7a64:	3308      	adds	r3, #8
    7a66:	015b      	lsls	r3, r3, #5
    7a68:	18d3      	adds	r3, r2, r3
    7a6a:	2280      	movs	r2, #128	; 0x80
    7a6c:	715a      	strb	r2, [r3, #5]

	return STATUS_OK;
    7a6e:	2300      	movs	r3, #0
}
    7a70:	1c18      	adds	r0, r3, #0
    7a72:	46bd      	mov	sp, r7
    7a74:	b006      	add	sp, #24
    7a76:	bd80      	pop	{r7, pc}
    7a78:	2000047c 	.word	0x2000047c
    7a7c:	f0003fff 	.word	0xf0003fff

00007a80 <usb_device_endpoint_read_buffer_job>:
 * \retval STATUS_OK Job started successfully
 * \retval STATUS_ERR_DENIED Endpoint is not ready
 */
enum status_code usb_device_endpoint_read_buffer_job(struct usb_module *module_inst,uint8_t ep_num,
		uint8_t* pbuf, uint32_t buf_size)
{
    7a80:	b580      	push	{r7, lr}
    7a82:	b086      	sub	sp, #24
    7a84:	af00      	add	r7, sp, #0
    7a86:	60f8      	str	r0, [r7, #12]
    7a88:	607a      	str	r2, [r7, #4]
    7a8a:	603b      	str	r3, [r7, #0]
    7a8c:	230b      	movs	r3, #11
    7a8e:	18fb      	adds	r3, r7, r3
    7a90:	1c0a      	adds	r2, r1, #0
    7a92:	701a      	strb	r2, [r3, #0]
	Assert(module_inst);
	Assert(module_inst->hw);
	Assert(ep_num < USB_EPT_NUM);

	uint8_t flag;
	flag = (uint8_t)(module_inst->hw->DEVICE.DeviceEndpoint[ep_num].EPCFG.bit.EPTYPE0);
    7a94:	68fb      	ldr	r3, [r7, #12]
    7a96:	681b      	ldr	r3, [r3, #0]
    7a98:	220b      	movs	r2, #11
    7a9a:	18ba      	adds	r2, r7, r2
    7a9c:	7812      	ldrb	r2, [r2, #0]
    7a9e:	3208      	adds	r2, #8
    7aa0:	0152      	lsls	r2, r2, #5
    7aa2:	5cd3      	ldrb	r3, [r2, r3]
    7aa4:	2207      	movs	r2, #7
    7aa6:	4013      	ands	r3, r2
    7aa8:	b2da      	uxtb	r2, r3
    7aaa:	2317      	movs	r3, #23
    7aac:	18fb      	adds	r3, r7, r3
    7aae:	701a      	strb	r2, [r3, #0]
	if ((enum usb_device_endpoint_type)(flag) == USB_DEVICE_ENDPOINT_TYPE_DISABLE) {
    7ab0:	2317      	movs	r3, #23
    7ab2:	18fb      	adds	r3, r7, r3
    7ab4:	781b      	ldrb	r3, [r3, #0]
    7ab6:	2b00      	cmp	r3, #0
    7ab8:	d101      	bne.n	7abe <usb_device_endpoint_read_buffer_job+0x3e>
		return STATUS_ERR_DENIED;
    7aba:	231c      	movs	r3, #28
    7abc:	e02e      	b.n	7b1c <usb_device_endpoint_read_buffer_job+0x9c>
	};

	/* get endpoint configuration from setting register */
	usb_descriptor_table.usb_endpoint_table[ep_num].DeviceDescBank[0].ADDR.reg = (uint32_t)pbuf;
    7abe:	230b      	movs	r3, #11
    7ac0:	18fb      	adds	r3, r7, r3
    7ac2:	781a      	ldrb	r2, [r3, #0]
    7ac4:	6879      	ldr	r1, [r7, #4]
    7ac6:	4b17      	ldr	r3, [pc, #92]	; (7b24 <usb_device_endpoint_read_buffer_job+0xa4>)
    7ac8:	0152      	lsls	r2, r2, #5
    7aca:	50d1      	str	r1, [r2, r3]
	usb_descriptor_table.usb_endpoint_table[ep_num].DeviceDescBank[0].PCKSIZE.bit.MULTI_PACKET_SIZE = buf_size;
    7acc:	230b      	movs	r3, #11
    7ace:	18fb      	adds	r3, r7, r3
    7ad0:	781b      	ldrb	r3, [r3, #0]
    7ad2:	683a      	ldr	r2, [r7, #0]
    7ad4:	b292      	uxth	r2, r2
    7ad6:	0492      	lsls	r2, r2, #18
    7ad8:	0c92      	lsrs	r2, r2, #18
    7ada:	b292      	uxth	r2, r2
    7adc:	4911      	ldr	r1, [pc, #68]	; (7b24 <usb_device_endpoint_read_buffer_job+0xa4>)
    7ade:	015b      	lsls	r3, r3, #5
    7ae0:	18cb      	adds	r3, r1, r3
    7ae2:	0492      	lsls	r2, r2, #18
    7ae4:	0c92      	lsrs	r2, r2, #18
    7ae6:	0392      	lsls	r2, r2, #14
    7ae8:	6859      	ldr	r1, [r3, #4]
    7aea:	480f      	ldr	r0, [pc, #60]	; (7b28 <usb_device_endpoint_read_buffer_job+0xa8>)
    7aec:	4001      	ands	r1, r0
    7aee:	430a      	orrs	r2, r1
    7af0:	605a      	str	r2, [r3, #4]
	usb_descriptor_table.usb_endpoint_table[ep_num].DeviceDescBank[0].PCKSIZE.bit.BYTE_COUNT = 0;
    7af2:	230b      	movs	r3, #11
    7af4:	18fb      	adds	r3, r7, r3
    7af6:	781b      	ldrb	r3, [r3, #0]
    7af8:	4a0a      	ldr	r2, [pc, #40]	; (7b24 <usb_device_endpoint_read_buffer_job+0xa4>)
    7afa:	015b      	lsls	r3, r3, #5
    7afc:	18d3      	adds	r3, r2, r3
    7afe:	685a      	ldr	r2, [r3, #4]
    7b00:	0b92      	lsrs	r2, r2, #14
    7b02:	0392      	lsls	r2, r2, #14
    7b04:	605a      	str	r2, [r3, #4]
	module_inst->hw->DEVICE.DeviceEndpoint[ep_num].EPSTATUSCLR.reg = USB_DEVICE_EPSTATUSCLR_BK0RDY;
    7b06:	68fb      	ldr	r3, [r7, #12]
    7b08:	681a      	ldr	r2, [r3, #0]
    7b0a:	230b      	movs	r3, #11
    7b0c:	18fb      	adds	r3, r7, r3
    7b0e:	781b      	ldrb	r3, [r3, #0]
    7b10:	3308      	adds	r3, #8
    7b12:	015b      	lsls	r3, r3, #5
    7b14:	18d3      	adds	r3, r2, r3
    7b16:	2240      	movs	r2, #64	; 0x40
    7b18:	711a      	strb	r2, [r3, #4]

	return STATUS_OK;
    7b1a:	2300      	movs	r3, #0
}
    7b1c:	1c18      	adds	r0, r3, #0
    7b1e:	46bd      	mov	sp, r7
    7b20:	b006      	add	sp, #24
    7b22:	bd80      	pop	{r7, pc}
    7b24:	2000047c 	.word	0x2000047c
    7b28:	f0003fff 	.word	0xf0003fff

00007b2c <usb_device_endpoint_setup_buffer_job>:
 * \retval STATUS_OK Job started successfully
 * \retval STATUS_ERR_DENIED Endpoint is not ready
 */
enum status_code usb_device_endpoint_setup_buffer_job(struct usb_module *module_inst,
		uint8_t* pbuf)
{
    7b2c:	b580      	push	{r7, lr}
    7b2e:	b082      	sub	sp, #8
    7b30:	af00      	add	r7, sp, #0
    7b32:	6078      	str	r0, [r7, #4]
    7b34:	6039      	str	r1, [r7, #0]
	/* Sanity check arguments */
	Assert(module_inst);
	Assert(module_inst->hw);

	/* get endpoint configuration from setting register */
	usb_descriptor_table.usb_endpoint_table[0].DeviceDescBank[0].ADDR.reg = (uint32_t)pbuf;
    7b36:	683a      	ldr	r2, [r7, #0]
    7b38:	4b0c      	ldr	r3, [pc, #48]	; (7b6c <usb_device_endpoint_setup_buffer_job+0x40>)
    7b3a:	601a      	str	r2, [r3, #0]
	usb_descriptor_table.usb_endpoint_table[0].DeviceDescBank[0].PCKSIZE.bit.MULTI_PACKET_SIZE = 8;
    7b3c:	4b0b      	ldr	r3, [pc, #44]	; (7b6c <usb_device_endpoint_setup_buffer_job+0x40>)
    7b3e:	685a      	ldr	r2, [r3, #4]
    7b40:	490b      	ldr	r1, [pc, #44]	; (7b70 <usb_device_endpoint_setup_buffer_job+0x44>)
    7b42:	400a      	ands	r2, r1
    7b44:	2180      	movs	r1, #128	; 0x80
    7b46:	0289      	lsls	r1, r1, #10
    7b48:	430a      	orrs	r2, r1
    7b4a:	605a      	str	r2, [r3, #4]
	usb_descriptor_table.usb_endpoint_table[0].DeviceDescBank[0].PCKSIZE.bit.BYTE_COUNT = 0;
    7b4c:	4b07      	ldr	r3, [pc, #28]	; (7b6c <usb_device_endpoint_setup_buffer_job+0x40>)
    7b4e:	685a      	ldr	r2, [r3, #4]
    7b50:	0b92      	lsrs	r2, r2, #14
    7b52:	0392      	lsls	r2, r2, #14
    7b54:	605a      	str	r2, [r3, #4]
	module_inst->hw->DEVICE.DeviceEndpoint[0].EPSTATUSCLR.reg = USB_DEVICE_EPSTATUSCLR_BK0RDY;
    7b56:	687b      	ldr	r3, [r7, #4]
    7b58:	681a      	ldr	r2, [r3, #0]
    7b5a:	2382      	movs	r3, #130	; 0x82
    7b5c:	005b      	lsls	r3, r3, #1
    7b5e:	2140      	movs	r1, #64	; 0x40
    7b60:	54d1      	strb	r1, [r2, r3]

	return STATUS_OK;
    7b62:	2300      	movs	r3, #0
}
    7b64:	1c18      	adds	r0, r3, #0
    7b66:	46bd      	mov	sp, r7
    7b68:	b002      	add	sp, #8
    7b6a:	bd80      	pop	{r7, pc}
    7b6c:	2000047c 	.word	0x2000047c
    7b70:	f0003fff 	.word	0xf0003fff

00007b74 <_usb_device_interrupt_handler>:

static void _usb_device_interrupt_handler(void)
{
    7b74:	b580      	push	{r7, lr}
    7b76:	b084      	sub	sp, #16
    7b78:	af00      	add	r7, sp, #0
	uint16_t ep_inst;
	uint16_t flags, flags_run;
	ep_inst = _usb_instances->hw->DEVICE.EPINTSMRY.reg;
    7b7a:	4bbc      	ldr	r3, [pc, #752]	; (7e6c <_usb_device_interrupt_handler+0x2f8>)
    7b7c:	681b      	ldr	r3, [r3, #0]
    7b7e:	681a      	ldr	r2, [r3, #0]
    7b80:	2308      	movs	r3, #8
    7b82:	18fb      	adds	r3, r7, r3
    7b84:	8c12      	ldrh	r2, [r2, #32]
    7b86:	801a      	strh	r2, [r3, #0]

	/* device interrupt */
	if (0 == ep_inst) {
    7b88:	2308      	movs	r3, #8
    7b8a:	18fb      	adds	r3, r7, r3
    7b8c:	881b      	ldrh	r3, [r3, #0]
    7b8e:	2b00      	cmp	r3, #0
    7b90:	d158      	bne.n	7c44 <_usb_device_interrupt_handler+0xd0>
		int i;

		/* get interrupt flags */
		flags = _usb_instances->hw->DEVICE.INTFLAG.reg;
    7b92:	4bb6      	ldr	r3, [pc, #728]	; (7e6c <_usb_device_interrupt_handler+0x2f8>)
    7b94:	681b      	ldr	r3, [r3, #0]
    7b96:	681a      	ldr	r2, [r3, #0]
    7b98:	1dbb      	adds	r3, r7, #6
    7b9a:	8b92      	ldrh	r2, [r2, #28]
    7b9c:	801a      	strh	r2, [r3, #0]
		flags_run = flags &
				_usb_instances->device_enabled_callback_mask &
    7b9e:	4bb3      	ldr	r3, [pc, #716]	; (7e6c <_usb_device_interrupt_handler+0x2f8>)
    7ba0:	681a      	ldr	r2, [r3, #0]
    7ba2:	23ab      	movs	r3, #171	; 0xab
    7ba4:	005b      	lsls	r3, r3, #1
    7ba6:	5ad3      	ldrh	r3, [r2, r3]
	if (0 == ep_inst) {
		int i;

		/* get interrupt flags */
		flags = _usb_instances->hw->DEVICE.INTFLAG.reg;
		flags_run = flags &
    7ba8:	1dba      	adds	r2, r7, #6
    7baa:	8812      	ldrh	r2, [r2, #0]
    7bac:	4013      	ands	r3, r2
    7bae:	b29a      	uxth	r2, r3
				_usb_instances->device_enabled_callback_mask &
				_usb_instances->device_registered_callback_mask;
    7bb0:	4bae      	ldr	r3, [pc, #696]	; (7e6c <_usb_device_interrupt_handler+0x2f8>)
    7bb2:	6819      	ldr	r1, [r3, #0]
    7bb4:	23aa      	movs	r3, #170	; 0xaa
    7bb6:	005b      	lsls	r3, r3, #1
    7bb8:	5ac9      	ldrh	r1, [r1, r3]
	if (0 == ep_inst) {
		int i;

		/* get interrupt flags */
		flags = _usb_instances->hw->DEVICE.INTFLAG.reg;
		flags_run = flags &
    7bba:	1d3b      	adds	r3, r7, #4
    7bbc:	400a      	ands	r2, r1
    7bbe:	801a      	strh	r2, [r3, #0]
				_usb_instances->device_enabled_callback_mask &
				_usb_instances->device_registered_callback_mask;

		for (i = 0; i < USB_DEVICE_CALLBACK_N; i ++) {
    7bc0:	2300      	movs	r3, #0
    7bc2:	60fb      	str	r3, [r7, #12]
    7bc4:	e03a      	b.n	7c3c <_usb_device_interrupt_handler+0xc8>
			if (flags & _usb_device_irq_bits[i]) {
    7bc6:	4baa      	ldr	r3, [pc, #680]	; (7e70 <_usb_device_interrupt_handler+0x2fc>)
    7bc8:	68fa      	ldr	r2, [r7, #12]
    7bca:	0052      	lsls	r2, r2, #1
    7bcc:	5ad3      	ldrh	r3, [r2, r3]
    7bce:	1dba      	adds	r2, r7, #6
    7bd0:	8812      	ldrh	r2, [r2, #0]
    7bd2:	4013      	ands	r3, r2
    7bd4:	b29b      	uxth	r3, r3
    7bd6:	2b00      	cmp	r3, #0
    7bd8:	d007      	beq.n	7bea <_usb_device_interrupt_handler+0x76>
				_usb_instances->hw->DEVICE.INTFLAG.reg =
    7bda:	4ba4      	ldr	r3, [pc, #656]	; (7e6c <_usb_device_interrupt_handler+0x2f8>)
    7bdc:	681b      	ldr	r3, [r3, #0]
    7bde:	681b      	ldr	r3, [r3, #0]
						_usb_device_irq_bits[i];
    7be0:	4aa3      	ldr	r2, [pc, #652]	; (7e70 <_usb_device_interrupt_handler+0x2fc>)
    7be2:	68f9      	ldr	r1, [r7, #12]
    7be4:	0049      	lsls	r1, r1, #1
    7be6:	5a8a      	ldrh	r2, [r1, r2]
				_usb_instances->device_enabled_callback_mask &
				_usb_instances->device_registered_callback_mask;

		for (i = 0; i < USB_DEVICE_CALLBACK_N; i ++) {
			if (flags & _usb_device_irq_bits[i]) {
				_usb_instances->hw->DEVICE.INTFLAG.reg =
    7be8:	839a      	strh	r2, [r3, #28]
						_usb_device_irq_bits[i];
			}
			if (flags_run & _usb_device_irq_bits[i]) {
    7bea:	4ba1      	ldr	r3, [pc, #644]	; (7e70 <_usb_device_interrupt_handler+0x2fc>)
    7bec:	68fa      	ldr	r2, [r7, #12]
    7bee:	0052      	lsls	r2, r2, #1
    7bf0:	5ad3      	ldrh	r3, [r2, r3]
    7bf2:	1d3a      	adds	r2, r7, #4
    7bf4:	8812      	ldrh	r2, [r2, #0]
    7bf6:	4013      	ands	r3, r2
    7bf8:	b29b      	uxth	r3, r3
    7bfa:	2b00      	cmp	r3, #0
    7bfc:	d01b      	beq.n	7c36 <_usb_device_interrupt_handler+0xc2>
				if (i == USB_DEVICE_CALLBACK_LPMSUSP) {
    7bfe:	68fb      	ldr	r3, [r7, #12]
    7c00:	2b06      	cmp	r3, #6
    7c02:	d10c      	bne.n	7c1e <_usb_device_interrupt_handler+0xaa>
					device_callback_lpm_wakeup_enable =
							usb_descriptor_table.usb_endpoint_table[0].DeviceDescBank[0].EXTREG.bit.VARIABLE
    7c04:	4b9b      	ldr	r3, [pc, #620]	; (7e74 <_usb_device_interrupt_handler+0x300>)
    7c06:	891b      	ldrh	r3, [r3, #8]
    7c08:	b29b      	uxth	r3, r3
    7c0a:	091b      	lsrs	r3, r3, #4
    7c0c:	055b      	lsls	r3, r3, #21
    7c0e:	0d5b      	lsrs	r3, r3, #21
    7c10:	b29b      	uxth	r3, r3
				_usb_instances->hw->DEVICE.INTFLAG.reg =
						_usb_device_irq_bits[i];
			}
			if (flags_run & _usb_device_irq_bits[i]) {
				if (i == USB_DEVICE_CALLBACK_LPMSUSP) {
					device_callback_lpm_wakeup_enable =
    7c12:	1c1a      	adds	r2, r3, #0
    7c14:	2380      	movs	r3, #128	; 0x80
    7c16:	005b      	lsls	r3, r3, #1
    7c18:	401a      	ands	r2, r3
    7c1a:	4b97      	ldr	r3, [pc, #604]	; (7e78 <_usb_device_interrupt_handler+0x304>)
    7c1c:	601a      	str	r2, [r3, #0]
							usb_descriptor_table.usb_endpoint_table[0].DeviceDescBank[0].EXTREG.bit.VARIABLE
							& USB_LPM_ATTRIBUT_REMOTEWAKE_MASK;
				}
				(_usb_instances->device_callback[i])(_usb_instances, &device_callback_lpm_wakeup_enable);
    7c1e:	4b93      	ldr	r3, [pc, #588]	; (7e6c <_usb_device_interrupt_handler+0x2f8>)
    7c20:	681b      	ldr	r3, [r3, #0]
    7c22:	68fa      	ldr	r2, [r7, #12]
    7c24:	322e      	adds	r2, #46	; 0x2e
    7c26:	0092      	lsls	r2, r2, #2
    7c28:	58d2      	ldr	r2, [r2, r3]
    7c2a:	4b90      	ldr	r3, [pc, #576]	; (7e6c <_usb_device_interrupt_handler+0x2f8>)
    7c2c:	6819      	ldr	r1, [r3, #0]
    7c2e:	4b92      	ldr	r3, [pc, #584]	; (7e78 <_usb_device_interrupt_handler+0x304>)
    7c30:	1c08      	adds	r0, r1, #0
    7c32:	1c19      	adds	r1, r3, #0
    7c34:	4790      	blx	r2
		flags = _usb_instances->hw->DEVICE.INTFLAG.reg;
		flags_run = flags &
				_usb_instances->device_enabled_callback_mask &
				_usb_instances->device_registered_callback_mask;

		for (i = 0; i < USB_DEVICE_CALLBACK_N; i ++) {
    7c36:	68fb      	ldr	r3, [r7, #12]
    7c38:	3301      	adds	r3, #1
    7c3a:	60fb      	str	r3, [r7, #12]
    7c3c:	68fb      	ldr	r3, [r7, #12]
    7c3e:	2b06      	cmp	r3, #6
    7c40:	ddc1      	ble.n	7bc6 <_usb_device_interrupt_handler+0x52>
    7c42:	e23d      	b.n	80c0 <_usb_device_interrupt_handler+0x54c>
		}

	} else {
		/* endpoint interrupt */

		for (uint8_t i = 0; i < USB_EPT_NUM; i++) {
    7c44:	230b      	movs	r3, #11
    7c46:	18fb      	adds	r3, r7, r3
    7c48:	2200      	movs	r2, #0
    7c4a:	701a      	strb	r2, [r3, #0]
    7c4c:	e232      	b.n	80b4 <_usb_device_interrupt_handler+0x540>

			if (ep_inst & (1 << i)) {
    7c4e:	2308      	movs	r3, #8
    7c50:	18fb      	adds	r3, r7, r3
    7c52:	881a      	ldrh	r2, [r3, #0]
    7c54:	230b      	movs	r3, #11
    7c56:	18fb      	adds	r3, r7, r3
    7c58:	781b      	ldrb	r3, [r3, #0]
    7c5a:	411a      	asrs	r2, r3
    7c5c:	1c13      	adds	r3, r2, #0
    7c5e:	2201      	movs	r2, #1
    7c60:	4013      	ands	r3, r2
    7c62:	d100      	bne.n	7c66 <_usb_device_interrupt_handler+0xf2>
    7c64:	e21f      	b.n	80a6 <_usb_device_interrupt_handler+0x532>
				flags = _usb_instances->hw->DEVICE.DeviceEndpoint[i].EPINTFLAG.reg;
    7c66:	4b81      	ldr	r3, [pc, #516]	; (7e6c <_usb_device_interrupt_handler+0x2f8>)
    7c68:	681b      	ldr	r3, [r3, #0]
    7c6a:	681a      	ldr	r2, [r3, #0]
    7c6c:	230b      	movs	r3, #11
    7c6e:	18fb      	adds	r3, r7, r3
    7c70:	781b      	ldrb	r3, [r3, #0]
    7c72:	3308      	adds	r3, #8
    7c74:	015b      	lsls	r3, r3, #5
    7c76:	18d3      	adds	r3, r2, r3
    7c78:	79db      	ldrb	r3, [r3, #7]
    7c7a:	b2da      	uxtb	r2, r3
    7c7c:	1dbb      	adds	r3, r7, #6
    7c7e:	801a      	strh	r2, [r3, #0]
				flags_run = flags &
						_usb_instances->device_endpoint_enabled_callback_mask[i] &
    7c80:	4b7a      	ldr	r3, [pc, #488]	; (7e6c <_usb_device_interrupt_handler+0x2f8>)
    7c82:	6819      	ldr	r1, [r3, #0]
    7c84:	230b      	movs	r3, #11
    7c86:	18fb      	adds	r3, r7, r3
    7c88:	781a      	ldrb	r2, [r3, #0]
    7c8a:	23b0      	movs	r3, #176	; 0xb0
    7c8c:	005b      	lsls	r3, r3, #1
    7c8e:	188a      	adds	r2, r1, r2
    7c90:	18d3      	adds	r3, r2, r3
    7c92:	781b      	ldrb	r3, [r3, #0]

		for (uint8_t i = 0; i < USB_EPT_NUM; i++) {

			if (ep_inst & (1 << i)) {
				flags = _usb_instances->hw->DEVICE.DeviceEndpoint[i].EPINTFLAG.reg;
				flags_run = flags &
    7c94:	b29b      	uxth	r3, r3
    7c96:	1dba      	adds	r2, r7, #6
    7c98:	8812      	ldrh	r2, [r2, #0]
    7c9a:	4013      	ands	r3, r2
    7c9c:	b29b      	uxth	r3, r3
    7c9e:	b298      	uxth	r0, r3
						_usb_instances->device_endpoint_enabled_callback_mask[i] &
						_usb_instances->deivce_endpoint_registered_callback_mask[i];
    7ca0:	4b72      	ldr	r3, [pc, #456]	; (7e6c <_usb_device_interrupt_handler+0x2f8>)
    7ca2:	6819      	ldr	r1, [r3, #0]
    7ca4:	230b      	movs	r3, #11
    7ca6:	18fb      	adds	r3, r7, r3
    7ca8:	781a      	ldrb	r2, [r3, #0]
    7caa:	23ac      	movs	r3, #172	; 0xac
    7cac:	005b      	lsls	r3, r3, #1
    7cae:	188a      	adds	r2, r1, r2
    7cb0:	18d3      	adds	r3, r2, r3
    7cb2:	781b      	ldrb	r3, [r3, #0]

		for (uint8_t i = 0; i < USB_EPT_NUM; i++) {

			if (ep_inst & (1 << i)) {
				flags = _usb_instances->hw->DEVICE.DeviceEndpoint[i].EPINTFLAG.reg;
				flags_run = flags &
    7cb4:	b29a      	uxth	r2, r3
    7cb6:	1c03      	adds	r3, r0, #0
    7cb8:	4013      	ands	r3, r2
    7cba:	b29a      	uxth	r2, r3
    7cbc:	1d3b      	adds	r3, r7, #4
    7cbe:	801a      	strh	r2, [r3, #0]
						_usb_instances->device_endpoint_enabled_callback_mask[i] &
						_usb_instances->deivce_endpoint_registered_callback_mask[i];

				// endpoint transfer stall interrupt
				if (flags & USB_DEVICE_EPINTFLAG_STALL_Msk) {
    7cc0:	1dbb      	adds	r3, r7, #6
    7cc2:	881b      	ldrh	r3, [r3, #0]
    7cc4:	2260      	movs	r2, #96	; 0x60
    7cc6:	4013      	ands	r3, r2
    7cc8:	d059      	beq.n	7d7e <_usb_device_interrupt_handler+0x20a>
					if (_usb_instances->hw->DEVICE.DeviceEndpoint[i].EPINTFLAG.reg & USB_DEVICE_EPINTFLAG_STALL1) {
    7cca:	4b68      	ldr	r3, [pc, #416]	; (7e6c <_usb_device_interrupt_handler+0x2f8>)
    7ccc:	681b      	ldr	r3, [r3, #0]
    7cce:	681a      	ldr	r2, [r3, #0]
    7cd0:	230b      	movs	r3, #11
    7cd2:	18fb      	adds	r3, r7, r3
    7cd4:	781b      	ldrb	r3, [r3, #0]
    7cd6:	3308      	adds	r3, #8
    7cd8:	015b      	lsls	r3, r3, #5
    7cda:	18d3      	adds	r3, r2, r3
    7cdc:	79db      	ldrb	r3, [r3, #7]
    7cde:	b2db      	uxtb	r3, r3
    7ce0:	1c1a      	adds	r2, r3, #0
    7ce2:	2340      	movs	r3, #64	; 0x40
    7ce4:	4013      	ands	r3, r2
    7ce6:	d014      	beq.n	7d12 <_usb_device_interrupt_handler+0x19e>
						_usb_instances->hw->DEVICE.DeviceEndpoint[i].EPINTFLAG.reg = USB_DEVICE_EPINTFLAG_STALL1;
    7ce8:	4b60      	ldr	r3, [pc, #384]	; (7e6c <_usb_device_interrupt_handler+0x2f8>)
    7cea:	681b      	ldr	r3, [r3, #0]
    7cec:	681a      	ldr	r2, [r3, #0]
    7cee:	230b      	movs	r3, #11
    7cf0:	18fb      	adds	r3, r7, r3
    7cf2:	781b      	ldrb	r3, [r3, #0]
    7cf4:	3308      	adds	r3, #8
    7cf6:	015b      	lsls	r3, r3, #5
    7cf8:	18d3      	adds	r3, r2, r3
    7cfa:	2240      	movs	r2, #64	; 0x40
    7cfc:	71da      	strb	r2, [r3, #7]
						ep_callback_para.endpoint_address = USB_EP_DIR_IN | i;
    7cfe:	230b      	movs	r3, #11
    7d00:	18fb      	adds	r3, r7, r3
    7d02:	781b      	ldrb	r3, [r3, #0]
    7d04:	2280      	movs	r2, #128	; 0x80
    7d06:	4252      	negs	r2, r2
    7d08:	4313      	orrs	r3, r2
    7d0a:	b2da      	uxtb	r2, r3
    7d0c:	4b5b      	ldr	r3, [pc, #364]	; (7e7c <_usb_device_interrupt_handler+0x308>)
    7d0e:	719a      	strb	r2, [r3, #6]
    7d10:	e01e      	b.n	7d50 <_usb_device_interrupt_handler+0x1dc>
					} else if (_usb_instances->hw->DEVICE.DeviceEndpoint[i].EPINTFLAG.reg & USB_DEVICE_EPINTFLAG_STALL0) {
    7d12:	4b56      	ldr	r3, [pc, #344]	; (7e6c <_usb_device_interrupt_handler+0x2f8>)
    7d14:	681b      	ldr	r3, [r3, #0]
    7d16:	681a      	ldr	r2, [r3, #0]
    7d18:	230b      	movs	r3, #11
    7d1a:	18fb      	adds	r3, r7, r3
    7d1c:	781b      	ldrb	r3, [r3, #0]
    7d1e:	3308      	adds	r3, #8
    7d20:	015b      	lsls	r3, r3, #5
    7d22:	18d3      	adds	r3, r2, r3
    7d24:	79db      	ldrb	r3, [r3, #7]
    7d26:	b2db      	uxtb	r3, r3
    7d28:	1c1a      	adds	r2, r3, #0
    7d2a:	2320      	movs	r3, #32
    7d2c:	4013      	ands	r3, r2
    7d2e:	d00f      	beq.n	7d50 <_usb_device_interrupt_handler+0x1dc>
						_usb_instances->hw->DEVICE.DeviceEndpoint[i].EPINTFLAG.reg = USB_DEVICE_EPINTFLAG_STALL0;
    7d30:	4b4e      	ldr	r3, [pc, #312]	; (7e6c <_usb_device_interrupt_handler+0x2f8>)
    7d32:	681b      	ldr	r3, [r3, #0]
    7d34:	681a      	ldr	r2, [r3, #0]
    7d36:	230b      	movs	r3, #11
    7d38:	18fb      	adds	r3, r7, r3
    7d3a:	781b      	ldrb	r3, [r3, #0]
    7d3c:	3308      	adds	r3, #8
    7d3e:	015b      	lsls	r3, r3, #5
    7d40:	18d3      	adds	r3, r2, r3
    7d42:	2220      	movs	r2, #32
    7d44:	71da      	strb	r2, [r3, #7]
						ep_callback_para.endpoint_address = USB_EP_DIR_OUT | i;
    7d46:	4b4d      	ldr	r3, [pc, #308]	; (7e7c <_usb_device_interrupt_handler+0x308>)
    7d48:	220b      	movs	r2, #11
    7d4a:	18ba      	adds	r2, r7, r2
    7d4c:	7812      	ldrb	r2, [r2, #0]
    7d4e:	719a      	strb	r2, [r3, #6]
					}

					if (flags_run & USB_DEVICE_EPINTFLAG_STALL_Msk) {
    7d50:	1d3b      	adds	r3, r7, #4
    7d52:	881b      	ldrh	r3, [r3, #0]
    7d54:	2260      	movs	r2, #96	; 0x60
    7d56:	4013      	ands	r3, r2
    7d58:	d010      	beq.n	7d7c <_usb_device_interrupt_handler+0x208>
						(_usb_instances->device_endpoint_callback[i][USB_DEVICE_ENDPOINT_CALLBACK_STALL])(_usb_instances,&ep_callback_para);
    7d5a:	4b44      	ldr	r3, [pc, #272]	; (7e6c <_usb_device_interrupt_handler+0x2f8>)
    7d5c:	681a      	ldr	r2, [r3, #0]
    7d5e:	230b      	movs	r3, #11
    7d60:	18fb      	adds	r3, r7, r3
    7d62:	781b      	ldrb	r3, [r3, #0]
    7d64:	21dc      	movs	r1, #220	; 0xdc
    7d66:	011b      	lsls	r3, r3, #4
    7d68:	18d3      	adds	r3, r2, r3
    7d6a:	185b      	adds	r3, r3, r1
    7d6c:	685a      	ldr	r2, [r3, #4]
    7d6e:	4b3f      	ldr	r3, [pc, #252]	; (7e6c <_usb_device_interrupt_handler+0x2f8>)
    7d70:	6819      	ldr	r1, [r3, #0]
    7d72:	4b42      	ldr	r3, [pc, #264]	; (7e7c <_usb_device_interrupt_handler+0x308>)
    7d74:	1c08      	adds	r0, r1, #0
    7d76:	1c19      	adds	r1, r3, #0
    7d78:	4790      	blx	r2
					}
					return;
    7d7a:	e1a1      	b.n	80c0 <_usb_device_interrupt_handler+0x54c>
    7d7c:	e1a0      	b.n	80c0 <_usb_device_interrupt_handler+0x54c>
				}

				// endpoint received setup interrupt
				if (flags & USB_DEVICE_EPINTFLAG_RXSTP) {
    7d7e:	1dbb      	adds	r3, r7, #6
    7d80:	881b      	ldrh	r3, [r3, #0]
    7d82:	2210      	movs	r2, #16
    7d84:	4013      	ands	r3, r2
    7d86:	d038      	beq.n	7dfa <_usb_device_interrupt_handler+0x286>
					_usb_instances->hw->DEVICE.DeviceEndpoint[i].EPINTFLAG.reg = USB_DEVICE_EPINTFLAG_RXSTP;
    7d88:	4b38      	ldr	r3, [pc, #224]	; (7e6c <_usb_device_interrupt_handler+0x2f8>)
    7d8a:	681b      	ldr	r3, [r3, #0]
    7d8c:	681a      	ldr	r2, [r3, #0]
    7d8e:	230b      	movs	r3, #11
    7d90:	18fb      	adds	r3, r7, r3
    7d92:	781b      	ldrb	r3, [r3, #0]
    7d94:	3308      	adds	r3, #8
    7d96:	015b      	lsls	r3, r3, #5
    7d98:	18d3      	adds	r3, r2, r3
    7d9a:	2210      	movs	r2, #16
    7d9c:	71da      	strb	r2, [r3, #7]
					if(_usb_instances->device_endpoint_enabled_callback_mask[i] & _usb_endpoint_irq_bits[USB_DEVICE_ENDPOINT_CALLBACK_RXSTP]) {
    7d9e:	4b33      	ldr	r3, [pc, #204]	; (7e6c <_usb_device_interrupt_handler+0x2f8>)
    7da0:	6819      	ldr	r1, [r3, #0]
    7da2:	230b      	movs	r3, #11
    7da4:	18fb      	adds	r3, r7, r3
    7da6:	781a      	ldrb	r2, [r3, #0]
    7da8:	23b0      	movs	r3, #176	; 0xb0
    7daa:	005b      	lsls	r3, r3, #1
    7dac:	188a      	adds	r2, r1, r2
    7dae:	18d3      	adds	r3, r2, r3
    7db0:	781b      	ldrb	r3, [r3, #0]
    7db2:	2210      	movs	r2, #16
    7db4:	4013      	ands	r3, r2
    7db6:	b2db      	uxtb	r3, r3
    7db8:	2b00      	cmp	r3, #0
    7dba:	d01d      	beq.n	7df8 <_usb_device_interrupt_handler+0x284>
						ep_callback_para.received_bytes = (uint16_t)(usb_descriptor_table.usb_endpoint_table[i].DeviceDescBank[0].PCKSIZE.bit.BYTE_COUNT);
    7dbc:	230b      	movs	r3, #11
    7dbe:	18fb      	adds	r3, r7, r3
    7dc0:	781b      	ldrb	r3, [r3, #0]
    7dc2:	4a2c      	ldr	r2, [pc, #176]	; (7e74 <_usb_device_interrupt_handler+0x300>)
    7dc4:	015b      	lsls	r3, r3, #5
    7dc6:	18d3      	adds	r3, r2, r3
    7dc8:	685b      	ldr	r3, [r3, #4]
    7dca:	049b      	lsls	r3, r3, #18
    7dcc:	0c9b      	lsrs	r3, r3, #18
    7dce:	b29b      	uxth	r3, r3
    7dd0:	1c1a      	adds	r2, r3, #0
    7dd2:	4b2a      	ldr	r3, [pc, #168]	; (7e7c <_usb_device_interrupt_handler+0x308>)
    7dd4:	801a      	strh	r2, [r3, #0]
						(_usb_instances->device_endpoint_callback[i][USB_DEVICE_ENDPOINT_CALLBACK_RXSTP])(_usb_instances,&ep_callback_para);
    7dd6:	4b25      	ldr	r3, [pc, #148]	; (7e6c <_usb_device_interrupt_handler+0x2f8>)
    7dd8:	681a      	ldr	r2, [r3, #0]
    7dda:	230b      	movs	r3, #11
    7ddc:	18fb      	adds	r3, r7, r3
    7dde:	781b      	ldrb	r3, [r3, #0]
    7de0:	21d8      	movs	r1, #216	; 0xd8
    7de2:	011b      	lsls	r3, r3, #4
    7de4:	18d3      	adds	r3, r2, r3
    7de6:	185b      	adds	r3, r3, r1
    7de8:	685a      	ldr	r2, [r3, #4]
    7dea:	4b20      	ldr	r3, [pc, #128]	; (7e6c <_usb_device_interrupt_handler+0x2f8>)
    7dec:	6819      	ldr	r1, [r3, #0]
    7dee:	4b23      	ldr	r3, [pc, #140]	; (7e7c <_usb_device_interrupt_handler+0x308>)
    7df0:	1c08      	adds	r0, r1, #0
    7df2:	1c19      	adds	r1, r3, #0
    7df4:	4790      	blx	r2
					}
					return;
    7df6:	e163      	b.n	80c0 <_usb_device_interrupt_handler+0x54c>
    7df8:	e162      	b.n	80c0 <_usb_device_interrupt_handler+0x54c>
				}

				// endpoint transfer complete interrupt
				if (flags & USB_DEVICE_EPINTFLAG_TRCPT_Msk) {
    7dfa:	1dbb      	adds	r3, r7, #6
    7dfc:	881b      	ldrh	r3, [r3, #0]
    7dfe:	2203      	movs	r2, #3
    7e00:	4013      	ands	r3, r2
    7e02:	d100      	bne.n	7e06 <_usb_device_interrupt_handler+0x292>
    7e04:	e08c      	b.n	7f20 <_usb_device_interrupt_handler+0x3ac>
					if (_usb_instances->hw->DEVICE.DeviceEndpoint[i].EPINTFLAG.reg & USB_DEVICE_EPINTFLAG_TRCPT1) {
    7e06:	4b19      	ldr	r3, [pc, #100]	; (7e6c <_usb_device_interrupt_handler+0x2f8>)
    7e08:	681b      	ldr	r3, [r3, #0]
    7e0a:	681a      	ldr	r2, [r3, #0]
    7e0c:	230b      	movs	r3, #11
    7e0e:	18fb      	adds	r3, r7, r3
    7e10:	781b      	ldrb	r3, [r3, #0]
    7e12:	3308      	adds	r3, #8
    7e14:	015b      	lsls	r3, r3, #5
    7e16:	18d3      	adds	r3, r2, r3
    7e18:	79db      	ldrb	r3, [r3, #7]
    7e1a:	b2db      	uxtb	r3, r3
    7e1c:	1c1a      	adds	r2, r3, #0
    7e1e:	2302      	movs	r3, #2
    7e20:	4013      	ands	r3, r2
    7e22:	d02d      	beq.n	7e80 <_usb_device_interrupt_handler+0x30c>
						_usb_instances->hw->DEVICE.DeviceEndpoint[i].EPINTFLAG.reg = USB_DEVICE_EPINTFLAG_TRCPT1;
    7e24:	4b11      	ldr	r3, [pc, #68]	; (7e6c <_usb_device_interrupt_handler+0x2f8>)
    7e26:	681b      	ldr	r3, [r3, #0]
    7e28:	681a      	ldr	r2, [r3, #0]
    7e2a:	230b      	movs	r3, #11
    7e2c:	18fb      	adds	r3, r7, r3
    7e2e:	781b      	ldrb	r3, [r3, #0]
    7e30:	3308      	adds	r3, #8
    7e32:	015b      	lsls	r3, r3, #5
    7e34:	18d3      	adds	r3, r2, r3
    7e36:	2202      	movs	r2, #2
    7e38:	71da      	strb	r2, [r3, #7]
						ep_callback_para.endpoint_address = USB_EP_DIR_IN | i;
    7e3a:	230b      	movs	r3, #11
    7e3c:	18fb      	adds	r3, r7, r3
    7e3e:	781b      	ldrb	r3, [r3, #0]
    7e40:	2280      	movs	r2, #128	; 0x80
    7e42:	4252      	negs	r2, r2
    7e44:	4313      	orrs	r3, r2
    7e46:	b2da      	uxtb	r2, r3
    7e48:	4b0c      	ldr	r3, [pc, #48]	; (7e7c <_usb_device_interrupt_handler+0x308>)
    7e4a:	719a      	strb	r2, [r3, #6]
						ep_callback_para.sent_bytes = (uint16_t)(usb_descriptor_table.usb_endpoint_table[i].DeviceDescBank[1].PCKSIZE.bit.BYTE_COUNT);
    7e4c:	230b      	movs	r3, #11
    7e4e:	18fb      	adds	r3, r7, r3
    7e50:	781b      	ldrb	r3, [r3, #0]
    7e52:	4a08      	ldr	r2, [pc, #32]	; (7e74 <_usb_device_interrupt_handler+0x300>)
    7e54:	015b      	lsls	r3, r3, #5
    7e56:	18d3      	adds	r3, r2, r3
    7e58:	3310      	adds	r3, #16
    7e5a:	685b      	ldr	r3, [r3, #4]
    7e5c:	049b      	lsls	r3, r3, #18
    7e5e:	0c9b      	lsrs	r3, r3, #18
    7e60:	b29b      	uxth	r3, r3
    7e62:	1c1a      	adds	r2, r3, #0
    7e64:	4b05      	ldr	r3, [pc, #20]	; (7e7c <_usb_device_interrupt_handler+0x308>)
    7e66:	805a      	strh	r2, [r3, #2]
    7e68:	e044      	b.n	7ef4 <_usb_device_interrupt_handler+0x380>
    7e6a:	46c0      	nop			; (mov r8, r8)
    7e6c:	20000194 	.word	0x20000194
    7e70:	00008ce0 	.word	0x00008ce0
    7e74:	2000047c 	.word	0x2000047c
    7e78:	200001a0 	.word	0x200001a0
    7e7c:	200001a4 	.word	0x200001a4

					} else if (_usb_instances->hw->DEVICE.DeviceEndpoint[i].EPINTFLAG.reg & USB_DEVICE_EPINTFLAG_TRCPT0) {
    7e80:	4b91      	ldr	r3, [pc, #580]	; (80c8 <_usb_device_interrupt_handler+0x554>)
    7e82:	681b      	ldr	r3, [r3, #0]
    7e84:	681a      	ldr	r2, [r3, #0]
    7e86:	230b      	movs	r3, #11
    7e88:	18fb      	adds	r3, r7, r3
    7e8a:	781b      	ldrb	r3, [r3, #0]
    7e8c:	3308      	adds	r3, #8
    7e8e:	015b      	lsls	r3, r3, #5
    7e90:	18d3      	adds	r3, r2, r3
    7e92:	79db      	ldrb	r3, [r3, #7]
    7e94:	b2db      	uxtb	r3, r3
    7e96:	1c1a      	adds	r2, r3, #0
    7e98:	2301      	movs	r3, #1
    7e9a:	4013      	ands	r3, r2
    7e9c:	d02a      	beq.n	7ef4 <_usb_device_interrupt_handler+0x380>
						_usb_instances->hw->DEVICE.DeviceEndpoint[i].EPINTFLAG.reg = USB_DEVICE_EPINTFLAG_TRCPT0;
    7e9e:	4b8a      	ldr	r3, [pc, #552]	; (80c8 <_usb_device_interrupt_handler+0x554>)
    7ea0:	681b      	ldr	r3, [r3, #0]
    7ea2:	681a      	ldr	r2, [r3, #0]
    7ea4:	230b      	movs	r3, #11
    7ea6:	18fb      	adds	r3, r7, r3
    7ea8:	781b      	ldrb	r3, [r3, #0]
    7eaa:	3308      	adds	r3, #8
    7eac:	015b      	lsls	r3, r3, #5
    7eae:	18d3      	adds	r3, r2, r3
    7eb0:	2201      	movs	r2, #1
    7eb2:	71da      	strb	r2, [r3, #7]
						ep_callback_para.endpoint_address = USB_EP_DIR_OUT | i;
    7eb4:	4b85      	ldr	r3, [pc, #532]	; (80cc <_usb_device_interrupt_handler+0x558>)
    7eb6:	220b      	movs	r2, #11
    7eb8:	18ba      	adds	r2, r7, r2
    7eba:	7812      	ldrb	r2, [r2, #0]
    7ebc:	719a      	strb	r2, [r3, #6]
						ep_callback_para.received_bytes = (uint16_t)(usb_descriptor_table.usb_endpoint_table[i].DeviceDescBank[0].PCKSIZE.bit.BYTE_COUNT);
    7ebe:	230b      	movs	r3, #11
    7ec0:	18fb      	adds	r3, r7, r3
    7ec2:	781b      	ldrb	r3, [r3, #0]
    7ec4:	4a82      	ldr	r2, [pc, #520]	; (80d0 <_usb_device_interrupt_handler+0x55c>)
    7ec6:	015b      	lsls	r3, r3, #5
    7ec8:	18d3      	adds	r3, r2, r3
    7eca:	685b      	ldr	r3, [r3, #4]
    7ecc:	049b      	lsls	r3, r3, #18
    7ece:	0c9b      	lsrs	r3, r3, #18
    7ed0:	b29b      	uxth	r3, r3
    7ed2:	1c1a      	adds	r2, r3, #0
    7ed4:	4b7d      	ldr	r3, [pc, #500]	; (80cc <_usb_device_interrupt_handler+0x558>)
    7ed6:	801a      	strh	r2, [r3, #0]
						ep_callback_para.out_buffer_size = (uint16_t)(usb_descriptor_table.usb_endpoint_table[i].DeviceDescBank[0].PCKSIZE.bit.MULTI_PACKET_SIZE);
    7ed8:	230b      	movs	r3, #11
    7eda:	18fb      	adds	r3, r7, r3
    7edc:	781b      	ldrb	r3, [r3, #0]
    7ede:	4a7c      	ldr	r2, [pc, #496]	; (80d0 <_usb_device_interrupt_handler+0x55c>)
    7ee0:	015b      	lsls	r3, r3, #5
    7ee2:	18d3      	adds	r3, r2, r3
    7ee4:	685b      	ldr	r3, [r3, #4]
    7ee6:	0b9b      	lsrs	r3, r3, #14
    7ee8:	049b      	lsls	r3, r3, #18
    7eea:	0c9b      	lsrs	r3, r3, #18
    7eec:	b29b      	uxth	r3, r3
    7eee:	1c1a      	adds	r2, r3, #0
    7ef0:	4b76      	ldr	r3, [pc, #472]	; (80cc <_usb_device_interrupt_handler+0x558>)
    7ef2:	809a      	strh	r2, [r3, #4]
					}
					if(flags_run & USB_DEVICE_EPINTFLAG_TRCPT_Msk) {
    7ef4:	1d3b      	adds	r3, r7, #4
    7ef6:	881b      	ldrh	r3, [r3, #0]
    7ef8:	2203      	movs	r2, #3
    7efa:	4013      	ands	r3, r2
    7efc:	d00f      	beq.n	7f1e <_usb_device_interrupt_handler+0x3aa>
						(_usb_instances->device_endpoint_callback[i][USB_DEVICE_ENDPOINT_CALLBACK_TRCPT])(_usb_instances,&ep_callback_para);
    7efe:	4b72      	ldr	r3, [pc, #456]	; (80c8 <_usb_device_interrupt_handler+0x554>)
    7f00:	681a      	ldr	r2, [r3, #0]
    7f02:	230b      	movs	r3, #11
    7f04:	18fb      	adds	r3, r7, r3
    7f06:	781b      	ldrb	r3, [r3, #0]
    7f08:	330d      	adds	r3, #13
    7f0a:	011b      	lsls	r3, r3, #4
    7f0c:	18d3      	adds	r3, r2, r3
    7f0e:	685a      	ldr	r2, [r3, #4]
    7f10:	4b6d      	ldr	r3, [pc, #436]	; (80c8 <_usb_device_interrupt_handler+0x554>)
    7f12:	6819      	ldr	r1, [r3, #0]
    7f14:	4b6d      	ldr	r3, [pc, #436]	; (80cc <_usb_device_interrupt_handler+0x558>)
    7f16:	1c08      	adds	r0, r1, #0
    7f18:	1c19      	adds	r1, r3, #0
    7f1a:	4790      	blx	r2
					}
					return;
    7f1c:	e0d0      	b.n	80c0 <_usb_device_interrupt_handler+0x54c>
    7f1e:	e0cf      	b.n	80c0 <_usb_device_interrupt_handler+0x54c>
				}

				// endpoint transfer fail interrupt
				if (flags & USB_DEVICE_EPINTFLAG_TRFAIL_Msk) {
    7f20:	1dbb      	adds	r3, r7, #6
    7f22:	881b      	ldrh	r3, [r3, #0]
    7f24:	220c      	movs	r2, #12
    7f26:	4013      	ands	r3, r2
    7f28:	d100      	bne.n	7f2c <_usb_device_interrupt_handler+0x3b8>
    7f2a:	e0bc      	b.n	80a6 <_usb_device_interrupt_handler+0x532>
					if (_usb_instances->hw->DEVICE.DeviceEndpoint[i].EPINTFLAG.reg & USB_DEVICE_EPINTFLAG_TRFAIL1) {
    7f2c:	4b66      	ldr	r3, [pc, #408]	; (80c8 <_usb_device_interrupt_handler+0x554>)
    7f2e:	681b      	ldr	r3, [r3, #0]
    7f30:	681a      	ldr	r2, [r3, #0]
    7f32:	230b      	movs	r3, #11
    7f34:	18fb      	adds	r3, r7, r3
    7f36:	781b      	ldrb	r3, [r3, #0]
    7f38:	3308      	adds	r3, #8
    7f3a:	015b      	lsls	r3, r3, #5
    7f3c:	18d3      	adds	r3, r2, r3
    7f3e:	79db      	ldrb	r3, [r3, #7]
    7f40:	b2db      	uxtb	r3, r3
    7f42:	1c1a      	adds	r2, r3, #0
    7f44:	2308      	movs	r3, #8
    7f46:	4013      	ands	r3, r2
    7f48:	d045      	beq.n	7fd6 <_usb_device_interrupt_handler+0x462>
						_usb_instances->hw->DEVICE.DeviceEndpoint[i].EPINTFLAG.reg = USB_DEVICE_EPINTFLAG_TRFAIL1;
    7f4a:	4b5f      	ldr	r3, [pc, #380]	; (80c8 <_usb_device_interrupt_handler+0x554>)
    7f4c:	681b      	ldr	r3, [r3, #0]
    7f4e:	681a      	ldr	r2, [r3, #0]
    7f50:	230b      	movs	r3, #11
    7f52:	18fb      	adds	r3, r7, r3
    7f54:	781b      	ldrb	r3, [r3, #0]
    7f56:	3308      	adds	r3, #8
    7f58:	015b      	lsls	r3, r3, #5
    7f5a:	18d3      	adds	r3, r2, r3
    7f5c:	2208      	movs	r2, #8
    7f5e:	71da      	strb	r2, [r3, #7]
						if (usb_descriptor_table.usb_endpoint_table[i].DeviceDescBank[1].STATUS_BK.reg & USB_DEVICE_STATUS_BK_ERRORFLOW) {
    7f60:	230b      	movs	r3, #11
    7f62:	18fb      	adds	r3, r7, r3
    7f64:	781b      	ldrb	r3, [r3, #0]
    7f66:	4a5a      	ldr	r2, [pc, #360]	; (80d0 <_usb_device_interrupt_handler+0x55c>)
    7f68:	015b      	lsls	r3, r3, #5
    7f6a:	18d3      	adds	r3, r2, r3
    7f6c:	3318      	adds	r3, #24
    7f6e:	789b      	ldrb	r3, [r3, #2]
    7f70:	b2db      	uxtb	r3, r3
    7f72:	1c1a      	adds	r2, r3, #0
    7f74:	2302      	movs	r3, #2
    7f76:	4013      	ands	r3, r2
    7f78:	d014      	beq.n	7fa4 <_usb_device_interrupt_handler+0x430>
							usb_descriptor_table.usb_endpoint_table[i].DeviceDescBank[1].STATUS_BK.reg &= ~USB_DEVICE_STATUS_BK_ERRORFLOW;
    7f7a:	230b      	movs	r3, #11
    7f7c:	18fb      	adds	r3, r7, r3
    7f7e:	781b      	ldrb	r3, [r3, #0]
    7f80:	220b      	movs	r2, #11
    7f82:	18ba      	adds	r2, r7, r2
    7f84:	7812      	ldrb	r2, [r2, #0]
    7f86:	4952      	ldr	r1, [pc, #328]	; (80d0 <_usb_device_interrupt_handler+0x55c>)
    7f88:	0152      	lsls	r2, r2, #5
    7f8a:	188a      	adds	r2, r1, r2
    7f8c:	3218      	adds	r2, #24
    7f8e:	7892      	ldrb	r2, [r2, #2]
    7f90:	b2d2      	uxtb	r2, r2
    7f92:	2102      	movs	r1, #2
    7f94:	438a      	bics	r2, r1
    7f96:	b2d1      	uxtb	r1, r2
    7f98:	4a4d      	ldr	r2, [pc, #308]	; (80d0 <_usb_device_interrupt_handler+0x55c>)
    7f9a:	015b      	lsls	r3, r3, #5
    7f9c:	18d3      	adds	r3, r2, r3
    7f9e:	3318      	adds	r3, #24
    7fa0:	1c0a      	adds	r2, r1, #0
    7fa2:	709a      	strb	r2, [r3, #2]
						}
						ep_callback_para.endpoint_address = USB_EP_DIR_IN | i;
    7fa4:	230b      	movs	r3, #11
    7fa6:	18fb      	adds	r3, r7, r3
    7fa8:	781b      	ldrb	r3, [r3, #0]
    7faa:	2280      	movs	r2, #128	; 0x80
    7fac:	4252      	negs	r2, r2
    7fae:	4313      	orrs	r3, r2
    7fb0:	b2da      	uxtb	r2, r3
    7fb2:	4b46      	ldr	r3, [pc, #280]	; (80cc <_usb_device_interrupt_handler+0x558>)
    7fb4:	719a      	strb	r2, [r3, #6]
						if (_usb_instances->hw->DEVICE.DeviceEndpoint[i].EPINTFLAG.reg & USB_DEVICE_EPINTFLAG_TRCPT1) {
    7fb6:	4b44      	ldr	r3, [pc, #272]	; (80c8 <_usb_device_interrupt_handler+0x554>)
    7fb8:	681b      	ldr	r3, [r3, #0]
    7fba:	681a      	ldr	r2, [r3, #0]
    7fbc:	230b      	movs	r3, #11
    7fbe:	18fb      	adds	r3, r7, r3
    7fc0:	781b      	ldrb	r3, [r3, #0]
    7fc2:	3308      	adds	r3, #8
    7fc4:	015b      	lsls	r3, r3, #5
    7fc6:	18d3      	adds	r3, r2, r3
    7fc8:	79db      	ldrb	r3, [r3, #7]
    7fca:	b2db      	uxtb	r3, r3
    7fcc:	1c1a      	adds	r2, r3, #0
    7fce:	2302      	movs	r3, #2
    7fd0:	4013      	ands	r3, r2
    7fd2:	d051      	beq.n	8078 <_usb_device_interrupt_handler+0x504>
							return;
    7fd4:	e074      	b.n	80c0 <_usb_device_interrupt_handler+0x54c>
						}
					} else if(_usb_instances->hw->DEVICE.DeviceEndpoint[i].EPINTFLAG.reg & USB_DEVICE_EPINTFLAG_TRFAIL0) {
    7fd6:	4b3c      	ldr	r3, [pc, #240]	; (80c8 <_usb_device_interrupt_handler+0x554>)
    7fd8:	681b      	ldr	r3, [r3, #0]
    7fda:	681a      	ldr	r2, [r3, #0]
    7fdc:	230b      	movs	r3, #11
    7fde:	18fb      	adds	r3, r7, r3
    7fe0:	781b      	ldrb	r3, [r3, #0]
    7fe2:	3308      	adds	r3, #8
    7fe4:	015b      	lsls	r3, r3, #5
    7fe6:	18d3      	adds	r3, r2, r3
    7fe8:	79db      	ldrb	r3, [r3, #7]
    7fea:	b2db      	uxtb	r3, r3
    7fec:	1c1a      	adds	r2, r3, #0
    7fee:	2304      	movs	r3, #4
    7ff0:	4013      	ands	r3, r2
    7ff2:	d041      	beq.n	8078 <_usb_device_interrupt_handler+0x504>
						_usb_instances->hw->DEVICE.DeviceEndpoint[i].EPINTFLAG.reg = USB_DEVICE_EPINTFLAG_TRFAIL0;
    7ff4:	4b34      	ldr	r3, [pc, #208]	; (80c8 <_usb_device_interrupt_handler+0x554>)
    7ff6:	681b      	ldr	r3, [r3, #0]
    7ff8:	681a      	ldr	r2, [r3, #0]
    7ffa:	230b      	movs	r3, #11
    7ffc:	18fb      	adds	r3, r7, r3
    7ffe:	781b      	ldrb	r3, [r3, #0]
    8000:	3308      	adds	r3, #8
    8002:	015b      	lsls	r3, r3, #5
    8004:	18d3      	adds	r3, r2, r3
    8006:	2204      	movs	r2, #4
    8008:	71da      	strb	r2, [r3, #7]
						if (usb_descriptor_table.usb_endpoint_table[i].DeviceDescBank[0].STATUS_BK.reg & USB_DEVICE_STATUS_BK_ERRORFLOW) {
    800a:	230b      	movs	r3, #11
    800c:	18fb      	adds	r3, r7, r3
    800e:	781b      	ldrb	r3, [r3, #0]
    8010:	4a2f      	ldr	r2, [pc, #188]	; (80d0 <_usb_device_interrupt_handler+0x55c>)
    8012:	015b      	lsls	r3, r3, #5
    8014:	18d3      	adds	r3, r2, r3
    8016:	3308      	adds	r3, #8
    8018:	789b      	ldrb	r3, [r3, #2]
    801a:	b2db      	uxtb	r3, r3
    801c:	1c1a      	adds	r2, r3, #0
    801e:	2302      	movs	r3, #2
    8020:	4013      	ands	r3, r2
    8022:	d014      	beq.n	804e <_usb_device_interrupt_handler+0x4da>
							usb_descriptor_table.usb_endpoint_table[i].DeviceDescBank[0].STATUS_BK.reg &= ~USB_DEVICE_STATUS_BK_ERRORFLOW;
    8024:	230b      	movs	r3, #11
    8026:	18fb      	adds	r3, r7, r3
    8028:	781b      	ldrb	r3, [r3, #0]
    802a:	220b      	movs	r2, #11
    802c:	18ba      	adds	r2, r7, r2
    802e:	7812      	ldrb	r2, [r2, #0]
    8030:	4927      	ldr	r1, [pc, #156]	; (80d0 <_usb_device_interrupt_handler+0x55c>)
    8032:	0152      	lsls	r2, r2, #5
    8034:	188a      	adds	r2, r1, r2
    8036:	3208      	adds	r2, #8
    8038:	7892      	ldrb	r2, [r2, #2]
    803a:	b2d2      	uxtb	r2, r2
    803c:	2102      	movs	r1, #2
    803e:	438a      	bics	r2, r1
    8040:	b2d1      	uxtb	r1, r2
    8042:	4a23      	ldr	r2, [pc, #140]	; (80d0 <_usb_device_interrupt_handler+0x55c>)
    8044:	015b      	lsls	r3, r3, #5
    8046:	18d3      	adds	r3, r2, r3
    8048:	3308      	adds	r3, #8
    804a:	1c0a      	adds	r2, r1, #0
    804c:	709a      	strb	r2, [r3, #2]
						}
						ep_callback_para.endpoint_address = USB_EP_DIR_OUT | i;
    804e:	4b1f      	ldr	r3, [pc, #124]	; (80cc <_usb_device_interrupt_handler+0x558>)
    8050:	220b      	movs	r2, #11
    8052:	18ba      	adds	r2, r7, r2
    8054:	7812      	ldrb	r2, [r2, #0]
    8056:	719a      	strb	r2, [r3, #6]
						if (_usb_instances->hw->DEVICE.DeviceEndpoint[i].EPINTFLAG.reg & USB_DEVICE_EPINTFLAG_TRCPT0) {
    8058:	4b1b      	ldr	r3, [pc, #108]	; (80c8 <_usb_device_interrupt_handler+0x554>)
    805a:	681b      	ldr	r3, [r3, #0]
    805c:	681a      	ldr	r2, [r3, #0]
    805e:	230b      	movs	r3, #11
    8060:	18fb      	adds	r3, r7, r3
    8062:	781b      	ldrb	r3, [r3, #0]
    8064:	3308      	adds	r3, #8
    8066:	015b      	lsls	r3, r3, #5
    8068:	18d3      	adds	r3, r2, r3
    806a:	79db      	ldrb	r3, [r3, #7]
    806c:	b2db      	uxtb	r3, r3
    806e:	1c1a      	adds	r2, r3, #0
    8070:	2301      	movs	r3, #1
    8072:	4013      	ands	r3, r2
    8074:	d000      	beq.n	8078 <_usb_device_interrupt_handler+0x504>
							return;
    8076:	e023      	b.n	80c0 <_usb_device_interrupt_handler+0x54c>
						}
					}

					if(flags_run & USB_DEVICE_EPINTFLAG_TRFAIL_Msk) {
    8078:	1d3b      	adds	r3, r7, #4
    807a:	881b      	ldrh	r3, [r3, #0]
    807c:	220c      	movs	r2, #12
    807e:	4013      	ands	r3, r2
    8080:	d010      	beq.n	80a4 <_usb_device_interrupt_handler+0x530>
						(_usb_instances->device_endpoint_callback[i][USB_DEVICE_ENDPOINT_CALLBACK_TRFAIL])(_usb_instances,&ep_callback_para);
    8082:	4b11      	ldr	r3, [pc, #68]	; (80c8 <_usb_device_interrupt_handler+0x554>)
    8084:	681a      	ldr	r2, [r3, #0]
    8086:	230b      	movs	r3, #11
    8088:	18fb      	adds	r3, r7, r3
    808a:	781b      	ldrb	r3, [r3, #0]
    808c:	21d4      	movs	r1, #212	; 0xd4
    808e:	011b      	lsls	r3, r3, #4
    8090:	18d3      	adds	r3, r2, r3
    8092:	185b      	adds	r3, r3, r1
    8094:	685a      	ldr	r2, [r3, #4]
    8096:	4b0c      	ldr	r3, [pc, #48]	; (80c8 <_usb_device_interrupt_handler+0x554>)
    8098:	6819      	ldr	r1, [r3, #0]
    809a:	4b0c      	ldr	r3, [pc, #48]	; (80cc <_usb_device_interrupt_handler+0x558>)
    809c:	1c08      	adds	r0, r1, #0
    809e:	1c19      	adds	r1, r3, #0
    80a0:	4790      	blx	r2
					}
					return;
    80a2:	e00d      	b.n	80c0 <_usb_device_interrupt_handler+0x54c>
    80a4:	e00c      	b.n	80c0 <_usb_device_interrupt_handler+0x54c>
		}

	} else {
		/* endpoint interrupt */

		for (uint8_t i = 0; i < USB_EPT_NUM; i++) {
    80a6:	230b      	movs	r3, #11
    80a8:	18fb      	adds	r3, r7, r3
    80aa:	781a      	ldrb	r2, [r3, #0]
    80ac:	230b      	movs	r3, #11
    80ae:	18fb      	adds	r3, r7, r3
    80b0:	3201      	adds	r2, #1
    80b2:	701a      	strb	r2, [r3, #0]
    80b4:	230b      	movs	r3, #11
    80b6:	18fb      	adds	r3, r7, r3
    80b8:	781b      	ldrb	r3, [r3, #0]
    80ba:	2b07      	cmp	r3, #7
    80bc:	d800      	bhi.n	80c0 <_usb_device_interrupt_handler+0x54c>
    80be:	e5c6      	b.n	7c4e <_usb_device_interrupt_handler+0xda>
					return;
				}
			}
		}
	}
}
    80c0:	46bd      	mov	sp, r7
    80c2:	b004      	add	sp, #16
    80c4:	bd80      	pop	{r7, pc}
    80c6:	46c0      	nop			; (mov r8, r8)
    80c8:	20000194 	.word	0x20000194
    80cc:	200001a4 	.word	0x200001a4
    80d0:	2000047c 	.word	0x2000047c

000080d4 <usb_enable>:
 * \brief Enable the USB module peripheral
 *
 * \param module_inst pointer to USB module instance
 */
void usb_enable(struct usb_module *module_inst)
{
    80d4:	b580      	push	{r7, lr}
    80d6:	b082      	sub	sp, #8
    80d8:	af00      	add	r7, sp, #0
    80da:	6078      	str	r0, [r7, #4]
	Assert(module_inst);
	Assert(module_inst->hw);

	module_inst->hw->DEVICE.CTRLA.reg |= USB_CTRLA_ENABLE;
    80dc:	687b      	ldr	r3, [r7, #4]
    80de:	681a      	ldr	r2, [r3, #0]
    80e0:	687b      	ldr	r3, [r7, #4]
    80e2:	681b      	ldr	r3, [r3, #0]
    80e4:	781b      	ldrb	r3, [r3, #0]
    80e6:	b2db      	uxtb	r3, r3
    80e8:	2102      	movs	r1, #2
    80ea:	430b      	orrs	r3, r1
    80ec:	b2db      	uxtb	r3, r3
    80ee:	7013      	strb	r3, [r2, #0]
	while (module_inst->hw->DEVICE.SYNCBUSY.reg == USB_SYNCBUSY_ENABLE);
    80f0:	46c0      	nop			; (mov r8, r8)
    80f2:	687b      	ldr	r3, [r7, #4]
    80f4:	681b      	ldr	r3, [r3, #0]
    80f6:	789b      	ldrb	r3, [r3, #2]
    80f8:	b2db      	uxtb	r3, r3
    80fa:	2b02      	cmp	r3, #2
    80fc:	d0f9      	beq.n	80f2 <usb_enable+0x1e>
}
    80fe:	46bd      	mov	sp, r7
    8100:	b002      	add	sp, #8
    8102:	bd80      	pop	{r7, pc}

00008104 <USB_Handler>:

/**
 * \brief Interrupt handler for the USB module.
 */
void USB_Handler(void)
{
    8104:	b580      	push	{r7, lr}
    8106:	af00      	add	r7, sp, #0
	if (_usb_instances->hw->DEVICE.CTRLA.bit.MODE) {
    8108:	4b07      	ldr	r3, [pc, #28]	; (8128 <USB_Handler+0x24>)
    810a:	681b      	ldr	r3, [r3, #0]
    810c:	681b      	ldr	r3, [r3, #0]
    810e:	781b      	ldrb	r3, [r3, #0]
    8110:	b2db      	uxtb	r3, r3
    8112:	09db      	lsrs	r3, r3, #7
    8114:	b2db      	uxtb	r3, r3
    8116:	2b00      	cmp	r3, #0
    8118:	d002      	beq.n	8120 <USB_Handler+0x1c>
#if !SAMD11
		/*host mode ISR */
		_usb_host_interrupt_handler();
    811a:	4b04      	ldr	r3, [pc, #16]	; (812c <USB_Handler+0x28>)
    811c:	4798      	blx	r3
    811e:	e001      	b.n	8124 <USB_Handler+0x20>
#endif
	} else {
		/*device mode ISR */
		_usb_device_interrupt_handler();
    8120:	4b03      	ldr	r3, [pc, #12]	; (8130 <USB_Handler+0x2c>)
    8122:	4798      	blx	r3
	}
}
    8124:	46bd      	mov	sp, r7
    8126:	bd80      	pop	{r7, pc}
    8128:	20000194 	.word	0x20000194
    812c:	00006861 	.word	0x00006861
    8130:	00007b75 	.word	0x00007b75

00008134 <usb_get_config_defaults>:
 * \brief Get the default USB module settings
 *
 * \param[out] module_config  Configuration structure to initialize to default values
 */
void usb_get_config_defaults(struct usb_config *module_config)
{
    8134:	b580      	push	{r7, lr}
    8136:	b082      	sub	sp, #8
    8138:	af00      	add	r7, sp, #0
    813a:	6078      	str	r0, [r7, #4]
	Assert(module_config);

	/* Sanity check arguments */
	Assert(module_config);
	/* Write default configuration to config struct */
	module_config->select_host_mode = 0;
    813c:	687b      	ldr	r3, [r7, #4]
    813e:	2200      	movs	r2, #0
    8140:	701a      	strb	r2, [r3, #0]
	module_config->run_in_standby = 1;
    8142:	687b      	ldr	r3, [r7, #4]
    8144:	2201      	movs	r2, #1
    8146:	705a      	strb	r2, [r3, #1]
	module_config->source_generator = GCLK_GENERATOR_0;
    8148:	687b      	ldr	r3, [r7, #4]
    814a:	2200      	movs	r2, #0
    814c:	709a      	strb	r2, [r3, #2]
	module_config->speed_mode = USB_SPEED_FULL;
    814e:	687b      	ldr	r3, [r7, #4]
    8150:	2201      	movs	r2, #1
    8152:	70da      	strb	r2, [r3, #3]
}
    8154:	46bd      	mov	sp, r7
    8156:	b002      	add	sp, #8
    8158:	bd80      	pop	{r7, pc}
    815a:	46c0      	nop			; (mov r8, r8)

0000815c <usb_init>:
 *
 * \retval STATUS_OK           The module was initialized successfully
 */
enum status_code usb_init(struct usb_module *module_inst, Usb *const hw,
		struct usb_config *module_config)
{
    815c:	b580      	push	{r7, lr}
    815e:	b08c      	sub	sp, #48	; 0x30
    8160:	af00      	add	r7, sp, #0
    8162:	60f8      	str	r0, [r7, #12]
    8164:	60b9      	str	r1, [r7, #8]
    8166:	607a      	str	r2, [r7, #4]
	uint32_t pad_transn, pad_transp, pad_trim;
	struct system_pinmux_config pin_config;
	struct system_gclk_chan_config gclk_chan_config;

#if !SAMD11
	host_pipe_job_busy_status = 0;
    8168:	4bc3      	ldr	r3, [pc, #780]	; (8478 <usb_init+0x31c>)
    816a:	2200      	movs	r2, #0
    816c:	601a      	str	r2, [r3, #0]
#endif

	_usb_instances = module_inst;
    816e:	4bc3      	ldr	r3, [pc, #780]	; (847c <usb_init+0x320>)
    8170:	68fa      	ldr	r2, [r7, #12]
    8172:	601a      	str	r2, [r3, #0]

	/* Associate the software module instance with the hardware module */
	module_inst->hw = hw;
    8174:	68fb      	ldr	r3, [r7, #12]
    8176:	68ba      	ldr	r2, [r7, #8]
    8178:	601a      	str	r2, [r3, #0]

	/* Turn on the digital interface clock */
	system_apb_clock_set_mask(SYSTEM_CLOCK_APB_APBB, PM_APBBMASK_USB);
    817a:	2001      	movs	r0, #1
    817c:	2120      	movs	r1, #32
    817e:	4bc0      	ldr	r3, [pc, #768]	; (8480 <usb_init+0x324>)
    8180:	4798      	blx	r3

	/* Set up the USB DP/DN pins */
	system_pinmux_get_config_defaults(&pin_config);
    8182:	2318      	movs	r3, #24
    8184:	18fb      	adds	r3, r7, r3
    8186:	1c18      	adds	r0, r3, #0
    8188:	4bbe      	ldr	r3, [pc, #760]	; (8484 <usb_init+0x328>)
    818a:	4798      	blx	r3
	pin_config.mux_position = MUX_PA24G_USB_DM;
    818c:	2318      	movs	r3, #24
    818e:	18fb      	adds	r3, r7, r3
    8190:	2206      	movs	r2, #6
    8192:	701a      	strb	r2, [r3, #0]
	system_pinmux_pin_set_config(PIN_PA24G_USB_DM, &pin_config);
    8194:	2318      	movs	r3, #24
    8196:	18fb      	adds	r3, r7, r3
    8198:	2018      	movs	r0, #24
    819a:	1c19      	adds	r1, r3, #0
    819c:	4bba      	ldr	r3, [pc, #744]	; (8488 <usb_init+0x32c>)
    819e:	4798      	blx	r3
	pin_config.mux_position = MUX_PA25G_USB_DP;
    81a0:	2318      	movs	r3, #24
    81a2:	18fb      	adds	r3, r7, r3
    81a4:	2206      	movs	r2, #6
    81a6:	701a      	strb	r2, [r3, #0]
	system_pinmux_pin_set_config(PIN_PA25G_USB_DP, &pin_config);
    81a8:	2318      	movs	r3, #24
    81aa:	18fb      	adds	r3, r7, r3
    81ac:	2019      	movs	r0, #25
    81ae:	1c19      	adds	r1, r3, #0
    81b0:	4bb5      	ldr	r3, [pc, #724]	; (8488 <usb_init+0x32c>)
    81b2:	4798      	blx	r3

	/* Setup clock for module */
	system_gclk_chan_get_config_defaults(&gclk_chan_config);
    81b4:	2314      	movs	r3, #20
    81b6:	18fb      	adds	r3, r7, r3
    81b8:	1c18      	adds	r0, r3, #0
    81ba:	4bb4      	ldr	r3, [pc, #720]	; (848c <usb_init+0x330>)
    81bc:	4798      	blx	r3
	gclk_chan_config.source_generator = module_config->source_generator;
    81be:	687b      	ldr	r3, [r7, #4]
    81c0:	789a      	ldrb	r2, [r3, #2]
    81c2:	2314      	movs	r3, #20
    81c4:	18fb      	adds	r3, r7, r3
    81c6:	701a      	strb	r2, [r3, #0]
	system_gclk_chan_set_config(USB_GCLK_ID, &gclk_chan_config);
    81c8:	2314      	movs	r3, #20
    81ca:	18fb      	adds	r3, r7, r3
    81cc:	2006      	movs	r0, #6
    81ce:	1c19      	adds	r1, r3, #0
    81d0:	4baf      	ldr	r3, [pc, #700]	; (8490 <usb_init+0x334>)
    81d2:	4798      	blx	r3
	system_gclk_chan_enable(USB_GCLK_ID);
    81d4:	2006      	movs	r0, #6
    81d6:	4baf      	ldr	r3, [pc, #700]	; (8494 <usb_init+0x338>)
    81d8:	4798      	blx	r3

	/* Reset */
	hw->DEVICE.CTRLA.bit.SWRST = 1;
    81da:	68bb      	ldr	r3, [r7, #8]
    81dc:	781a      	ldrb	r2, [r3, #0]
    81de:	2101      	movs	r1, #1
    81e0:	430a      	orrs	r2, r1
    81e2:	701a      	strb	r2, [r3, #0]
	while (hw->DEVICE.SYNCBUSY.bit.SWRST) {
    81e4:	46c0      	nop			; (mov r8, r8)
    81e6:	68bb      	ldr	r3, [r7, #8]
    81e8:	789b      	ldrb	r3, [r3, #2]
    81ea:	2201      	movs	r2, #1
    81ec:	4013      	ands	r3, r2
    81ee:	b2db      	uxtb	r3, r3
    81f0:	2b00      	cmp	r3, #0
    81f2:	d1f8      	bne.n	81e6 <usb_init+0x8a>
		/* Sync wait */
	}

	/* Change QOS values to have the best performance and correct USB behaviour */
	USB->DEVICE.QOSCTRL.bit.CQOS = 2;
    81f4:	4ba8      	ldr	r3, [pc, #672]	; (8498 <usb_init+0x33c>)
    81f6:	78da      	ldrb	r2, [r3, #3]
    81f8:	2103      	movs	r1, #3
    81fa:	438a      	bics	r2, r1
    81fc:	1c11      	adds	r1, r2, #0
    81fe:	2202      	movs	r2, #2
    8200:	430a      	orrs	r2, r1
    8202:	70da      	strb	r2, [r3, #3]
	USB->DEVICE.QOSCTRL.bit.DQOS = 2;
    8204:	4ba4      	ldr	r3, [pc, #656]	; (8498 <usb_init+0x33c>)
    8206:	78da      	ldrb	r2, [r3, #3]
    8208:	210c      	movs	r1, #12
    820a:	438a      	bics	r2, r1
    820c:	1c11      	adds	r1, r2, #0
    820e:	2208      	movs	r2, #8
    8210:	430a      	orrs	r2, r1
    8212:	70da      	strb	r2, [r3, #3]

	/* Load Pad Calibration */
	pad_transn =( *((uint32_t *)(NVMCTRL_OTP4)
    8214:	4ba1      	ldr	r3, [pc, #644]	; (849c <usb_init+0x340>)
    8216:	681b      	ldr	r3, [r3, #0]
			+ (NVM_USB_PAD_TRANSN_POS / 32))
		>> (NVM_USB_PAD_TRANSN_POS % 32))
    8218:	0b5b      	lsrs	r3, r3, #13
	/* Change QOS values to have the best performance and correct USB behaviour */
	USB->DEVICE.QOSCTRL.bit.CQOS = 2;
	USB->DEVICE.QOSCTRL.bit.DQOS = 2;

	/* Load Pad Calibration */
	pad_transn =( *((uint32_t *)(NVMCTRL_OTP4)
    821a:	221f      	movs	r2, #31
    821c:	4013      	ands	r3, r2
    821e:	627b      	str	r3, [r7, #36]	; 0x24
			+ (NVM_USB_PAD_TRANSN_POS / 32))
		>> (NVM_USB_PAD_TRANSN_POS % 32))
		& ((1 << NVM_USB_PAD_TRANSN_SIZE) - 1);

	if (pad_transn == 0x1F) {
    8220:	6a7b      	ldr	r3, [r7, #36]	; 0x24
    8222:	2b1f      	cmp	r3, #31
    8224:	d101      	bne.n	822a <usb_init+0xce>
		pad_transn = 5;
    8226:	2305      	movs	r3, #5
    8228:	627b      	str	r3, [r7, #36]	; 0x24
	}

	hw->DEVICE.PADCAL.bit.TRANSN = pad_transn;
    822a:	6a7b      	ldr	r3, [r7, #36]	; 0x24
    822c:	b2db      	uxtb	r3, r3
    822e:	1c1a      	adds	r2, r3, #0
    8230:	231f      	movs	r3, #31
    8232:	4013      	ands	r3, r2
    8234:	b2da      	uxtb	r2, r3
    8236:	68bb      	ldr	r3, [r7, #8]
    8238:	1c11      	adds	r1, r2, #0
    823a:	221f      	movs	r2, #31
    823c:	400a      	ands	r2, r1
    823e:	0190      	lsls	r0, r2, #6
    8240:	8d1a      	ldrh	r2, [r3, #40]	; 0x28
    8242:	4997      	ldr	r1, [pc, #604]	; (84a0 <usb_init+0x344>)
    8244:	400a      	ands	r2, r1
    8246:	1c11      	adds	r1, r2, #0
    8248:	1c02      	adds	r2, r0, #0
    824a:	430a      	orrs	r2, r1
    824c:	851a      	strh	r2, [r3, #40]	; 0x28

	pad_transp =( *((uint32_t *)(NVMCTRL_OTP4)
    824e:	4b93      	ldr	r3, [pc, #588]	; (849c <usb_init+0x340>)
    8250:	681b      	ldr	r3, [r3, #0]
			+ (NVM_USB_PAD_TRANSP_POS / 32))
			>> (NVM_USB_PAD_TRANSP_POS % 32))
    8252:	0c9b      	lsrs	r3, r3, #18
		pad_transn = 5;
	}

	hw->DEVICE.PADCAL.bit.TRANSN = pad_transn;

	pad_transp =( *((uint32_t *)(NVMCTRL_OTP4)
    8254:	221f      	movs	r2, #31
    8256:	4013      	ands	r3, r2
    8258:	623b      	str	r3, [r7, #32]
			+ (NVM_USB_PAD_TRANSP_POS / 32))
			>> (NVM_USB_PAD_TRANSP_POS % 32))
			& ((1 << NVM_USB_PAD_TRANSP_SIZE) - 1);

	if (pad_transp == 0x1F) {
    825a:	6a3b      	ldr	r3, [r7, #32]
    825c:	2b1f      	cmp	r3, #31
    825e:	d101      	bne.n	8264 <usb_init+0x108>
		pad_transp = 29;
    8260:	231d      	movs	r3, #29
    8262:	623b      	str	r3, [r7, #32]
	}

	hw->DEVICE.PADCAL.bit.TRANSP = pad_transp;
    8264:	6a3b      	ldr	r3, [r7, #32]
    8266:	b2db      	uxtb	r3, r3
    8268:	1c1a      	adds	r2, r3, #0
    826a:	231f      	movs	r3, #31
    826c:	4013      	ands	r3, r2
    826e:	b2da      	uxtb	r2, r3
    8270:	68bb      	ldr	r3, [r7, #8]
    8272:	1c11      	adds	r1, r2, #0
    8274:	221f      	movs	r2, #31
    8276:	1c08      	adds	r0, r1, #0
    8278:	4010      	ands	r0, r2
    827a:	8d1a      	ldrh	r2, [r3, #40]	; 0x28
    827c:	211f      	movs	r1, #31
    827e:	438a      	bics	r2, r1
    8280:	1c11      	adds	r1, r2, #0
    8282:	1c02      	adds	r2, r0, #0
    8284:	430a      	orrs	r2, r1
    8286:	851a      	strh	r2, [r3, #40]	; 0x28

	pad_trim =( *((uint32_t *)(NVMCTRL_OTP4)
    8288:	4b84      	ldr	r3, [pc, #528]	; (849c <usb_init+0x340>)
    828a:	681b      	ldr	r3, [r3, #0]
			+ (NVM_USB_PAD_TRIM_POS / 32))
			>> (NVM_USB_PAD_TRIM_POS % 32))
    828c:	0ddb      	lsrs	r3, r3, #23
		pad_transp = 29;
	}

	hw->DEVICE.PADCAL.bit.TRANSP = pad_transp;

	pad_trim =( *((uint32_t *)(NVMCTRL_OTP4)
    828e:	2207      	movs	r2, #7
    8290:	4013      	ands	r3, r2
    8292:	61fb      	str	r3, [r7, #28]
			+ (NVM_USB_PAD_TRIM_POS / 32))
			>> (NVM_USB_PAD_TRIM_POS % 32))
			& ((1 << NVM_USB_PAD_TRIM_SIZE) - 1);

	if (pad_trim == 0x7) {
    8294:	69fb      	ldr	r3, [r7, #28]
    8296:	2b07      	cmp	r3, #7
    8298:	d101      	bne.n	829e <usb_init+0x142>
		pad_trim = 3;
    829a:	2303      	movs	r3, #3
    829c:	61fb      	str	r3, [r7, #28]
	}

	hw->DEVICE.PADCAL.bit.TRIM = pad_trim;
    829e:	69fb      	ldr	r3, [r7, #28]
    82a0:	b2db      	uxtb	r3, r3
    82a2:	1c1a      	adds	r2, r3, #0
    82a4:	2307      	movs	r3, #7
    82a6:	4013      	ands	r3, r2
    82a8:	b2da      	uxtb	r2, r3
    82aa:	68bb      	ldr	r3, [r7, #8]
    82ac:	1c11      	adds	r1, r2, #0
    82ae:	2207      	movs	r2, #7
    82b0:	400a      	ands	r2, r1
    82b2:	0310      	lsls	r0, r2, #12
    82b4:	8d1a      	ldrh	r2, [r3, #40]	; 0x28
    82b6:	497b      	ldr	r1, [pc, #492]	; (84a4 <usb_init+0x348>)
    82b8:	400a      	ands	r2, r1
    82ba:	1c11      	adds	r1, r2, #0
    82bc:	1c02      	adds	r2, r0, #0
    82be:	430a      	orrs	r2, r1
    82c0:	851a      	strh	r2, [r3, #40]	; 0x28

	/* Set the configuration */
	hw->DEVICE.CTRLA.bit.MODE = module_config->select_host_mode;
    82c2:	687b      	ldr	r3, [r7, #4]
    82c4:	781a      	ldrb	r2, [r3, #0]
    82c6:	68bb      	ldr	r3, [r7, #8]
    82c8:	01d0      	lsls	r0, r2, #7
    82ca:	781a      	ldrb	r2, [r3, #0]
    82cc:	217f      	movs	r1, #127	; 0x7f
    82ce:	400a      	ands	r2, r1
    82d0:	1c11      	adds	r1, r2, #0
    82d2:	1c02      	adds	r2, r0, #0
    82d4:	430a      	orrs	r2, r1
    82d6:	701a      	strb	r2, [r3, #0]
	hw->DEVICE.CTRLA.bit.RUNSTDBY = module_config->run_in_standby;
    82d8:	687b      	ldr	r3, [r7, #4]
    82da:	785a      	ldrb	r2, [r3, #1]
    82dc:	68bb      	ldr	r3, [r7, #8]
    82de:	2101      	movs	r1, #1
    82e0:	400a      	ands	r2, r1
    82e2:	0090      	lsls	r0, r2, #2
    82e4:	781a      	ldrb	r2, [r3, #0]
    82e6:	2104      	movs	r1, #4
    82e8:	438a      	bics	r2, r1
    82ea:	1c11      	adds	r1, r2, #0
    82ec:	1c02      	adds	r2, r0, #0
    82ee:	430a      	orrs	r2, r1
    82f0:	701a      	strb	r2, [r3, #0]
	hw->DEVICE.DESCADD.reg = (uint32_t)(&usb_descriptor_table.usb_endpoint_table[0]);
    82f2:	4a6d      	ldr	r2, [pc, #436]	; (84a8 <usb_init+0x34c>)
    82f4:	68bb      	ldr	r3, [r7, #8]
    82f6:	625a      	str	r2, [r3, #36]	; 0x24
	if (USB_SPEED_FULL == module_config->speed_mode) {
    82f8:	687b      	ldr	r3, [r7, #4]
    82fa:	78db      	ldrb	r3, [r3, #3]
    82fc:	2b01      	cmp	r3, #1
    82fe:	d106      	bne.n	830e <usb_init+0x1b2>
		module_inst->hw->DEVICE.CTRLB.bit.SPDCONF = USB_DEVICE_CTRLB_SPDCONF_FS_Val;
    8300:	68fb      	ldr	r3, [r7, #12]
    8302:	681b      	ldr	r3, [r3, #0]
    8304:	891a      	ldrh	r2, [r3, #8]
    8306:	210c      	movs	r1, #12
    8308:	438a      	bics	r2, r1
    830a:	811a      	strh	r2, [r3, #8]
    830c:	e00c      	b.n	8328 <usb_init+0x1cc>
	} else if(USB_SPEED_LOW == module_config->speed_mode) {
    830e:	687b      	ldr	r3, [r7, #4]
    8310:	78db      	ldrb	r3, [r3, #3]
    8312:	2b00      	cmp	r3, #0
    8314:	d108      	bne.n	8328 <usb_init+0x1cc>
		module_inst->hw->DEVICE.CTRLB.bit.SPDCONF = USB_DEVICE_CTRLB_SPDCONF_LS_Val;
    8316:	68fb      	ldr	r3, [r7, #12]
    8318:	681b      	ldr	r3, [r3, #0]
    831a:	891a      	ldrh	r2, [r3, #8]
    831c:	210c      	movs	r1, #12
    831e:	438a      	bics	r2, r1
    8320:	1c11      	adds	r1, r2, #0
    8322:	2204      	movs	r2, #4
    8324:	430a      	orrs	r2, r1
    8326:	811a      	strh	r2, [r3, #8]
	}

	memset((uint8_t *)(&usb_descriptor_table.usb_endpoint_table[0]), 0,
    8328:	4a5f      	ldr	r2, [pc, #380]	; (84a8 <usb_init+0x34c>)
    832a:	2380      	movs	r3, #128	; 0x80
    832c:	005b      	lsls	r3, r3, #1
    832e:	1c10      	adds	r0, r2, #0
    8330:	2100      	movs	r1, #0
    8332:	1c1a      	adds	r2, r3, #0
    8334:	4b5d      	ldr	r3, [pc, #372]	; (84ac <usb_init+0x350>)
    8336:	4798      	blx	r3
			sizeof(usb_descriptor_table.usb_endpoint_table));

#if !SAMD11
	/* callback related init */
	for (i = 0; i < USB_HOST_CALLBACK_N; i++) {
    8338:	2300      	movs	r3, #0
    833a:	62fb      	str	r3, [r7, #44]	; 0x2c
    833c:	e008      	b.n	8350 <usb_init+0x1f4>
		module_inst->host_callback[i] = NULL;
    833e:	68fa      	ldr	r2, [r7, #12]
    8340:	6afb      	ldr	r3, [r7, #44]	; 0x2c
    8342:	009b      	lsls	r3, r3, #2
    8344:	18d3      	adds	r3, r2, r3
    8346:	2200      	movs	r2, #0
    8348:	605a      	str	r2, [r3, #4]
	memset((uint8_t *)(&usb_descriptor_table.usb_endpoint_table[0]), 0,
			sizeof(usb_descriptor_table.usb_endpoint_table));

#if !SAMD11
	/* callback related init */
	for (i = 0; i < USB_HOST_CALLBACK_N; i++) {
    834a:	6afb      	ldr	r3, [r7, #44]	; 0x2c
    834c:	3301      	adds	r3, #1
    834e:	62fb      	str	r3, [r7, #44]	; 0x2c
    8350:	6afb      	ldr	r3, [r7, #44]	; 0x2c
    8352:	2b07      	cmp	r3, #7
    8354:	d9f3      	bls.n	833e <usb_init+0x1e2>
		module_inst->host_callback[i] = NULL;
	};
	for (i = 0; i < USB_PIPE_NUM; i++) {
    8356:	2300      	movs	r3, #0
    8358:	62fb      	str	r3, [r7, #44]	; 0x2c
    835a:	e015      	b.n	8388 <usb_init+0x22c>
		for (j = 0; j < USB_HOST_PIPE_CALLBACK_N; j++) {
    835c:	2300      	movs	r3, #0
    835e:	62bb      	str	r3, [r7, #40]	; 0x28
    8360:	e00c      	b.n	837c <usb_init+0x220>
			module_inst->host_pipe_callback[i][j] = NULL;
    8362:	68fa      	ldr	r2, [r7, #12]
    8364:	6afb      	ldr	r3, [r7, #44]	; 0x2c
    8366:	0099      	lsls	r1, r3, #2
    8368:	6abb      	ldr	r3, [r7, #40]	; 0x28
    836a:	18cb      	adds	r3, r1, r3
    836c:	3308      	adds	r3, #8
    836e:	009b      	lsls	r3, r3, #2
    8370:	18d3      	adds	r3, r2, r3
    8372:	2200      	movs	r2, #0
    8374:	605a      	str	r2, [r3, #4]
	/* callback related init */
	for (i = 0; i < USB_HOST_CALLBACK_N; i++) {
		module_inst->host_callback[i] = NULL;
	};
	for (i = 0; i < USB_PIPE_NUM; i++) {
		for (j = 0; j < USB_HOST_PIPE_CALLBACK_N; j++) {
    8376:	6abb      	ldr	r3, [r7, #40]	; 0x28
    8378:	3301      	adds	r3, #1
    837a:	62bb      	str	r3, [r7, #40]	; 0x28
    837c:	6abb      	ldr	r3, [r7, #40]	; 0x28
    837e:	2b03      	cmp	r3, #3
    8380:	d9ef      	bls.n	8362 <usb_init+0x206>
#if !SAMD11
	/* callback related init */
	for (i = 0; i < USB_HOST_CALLBACK_N; i++) {
		module_inst->host_callback[i] = NULL;
	};
	for (i = 0; i < USB_PIPE_NUM; i++) {
    8382:	6afb      	ldr	r3, [r7, #44]	; 0x2c
    8384:	3301      	adds	r3, #1
    8386:	62fb      	str	r3, [r7, #44]	; 0x2c
    8388:	6afb      	ldr	r3, [r7, #44]	; 0x2c
    838a:	2b07      	cmp	r3, #7
    838c:	d9e6      	bls.n	835c <usb_init+0x200>
		for (j = 0; j < USB_HOST_PIPE_CALLBACK_N; j++) {
			module_inst->host_pipe_callback[i][j] = NULL;
		}
	};
	module_inst->host_registered_callback_mask = 0;
    838e:	68fb      	ldr	r3, [r7, #12]
    8390:	22a4      	movs	r2, #164	; 0xa4
    8392:	2100      	movs	r1, #0
    8394:	5499      	strb	r1, [r3, r2]
	module_inst->host_enabled_callback_mask = 0;
    8396:	68fb      	ldr	r3, [r7, #12]
    8398:	22a5      	movs	r2, #165	; 0xa5
    839a:	2100      	movs	r1, #0
    839c:	5499      	strb	r1, [r3, r2]
	for (i = 0; i < USB_PIPE_NUM; i++) {
    839e:	2300      	movs	r3, #0
    83a0:	62fb      	str	r3, [r7, #44]	; 0x2c
    83a2:	e010      	b.n	83c6 <usb_init+0x26a>
		module_inst->host_pipe_registered_callback_mask[i] = 0;
    83a4:	68fa      	ldr	r2, [r7, #12]
    83a6:	21a0      	movs	r1, #160	; 0xa0
    83a8:	6afb      	ldr	r3, [r7, #44]	; 0x2c
    83aa:	18d3      	adds	r3, r2, r3
    83ac:	185b      	adds	r3, r3, r1
    83ae:	2200      	movs	r2, #0
    83b0:	719a      	strb	r2, [r3, #6]
		module_inst->host_pipe_enabled_callback_mask[i] = 0;
    83b2:	68fa      	ldr	r2, [r7, #12]
    83b4:	21a8      	movs	r1, #168	; 0xa8
    83b6:	6afb      	ldr	r3, [r7, #44]	; 0x2c
    83b8:	18d3      	adds	r3, r2, r3
    83ba:	185b      	adds	r3, r3, r1
    83bc:	2200      	movs	r2, #0
    83be:	719a      	strb	r2, [r3, #6]
			module_inst->host_pipe_callback[i][j] = NULL;
		}
	};
	module_inst->host_registered_callback_mask = 0;
	module_inst->host_enabled_callback_mask = 0;
	for (i = 0; i < USB_PIPE_NUM; i++) {
    83c0:	6afb      	ldr	r3, [r7, #44]	; 0x2c
    83c2:	3301      	adds	r3, #1
    83c4:	62fb      	str	r3, [r7, #44]	; 0x2c
    83c6:	6afb      	ldr	r3, [r7, #44]	; 0x2c
    83c8:	2b07      	cmp	r3, #7
    83ca:	d9eb      	bls.n	83a4 <usb_init+0x248>
		module_inst->host_pipe_enabled_callback_mask[i] = 0;
	}
#endif

	/*  device callback related */
	for (i = 0; i < USB_DEVICE_CALLBACK_N; i++) {
    83cc:	2300      	movs	r3, #0
    83ce:	62fb      	str	r3, [r7, #44]	; 0x2c
    83d0:	e008      	b.n	83e4 <usb_init+0x288>
		module_inst->device_callback[i] = NULL;
    83d2:	68fb      	ldr	r3, [r7, #12]
    83d4:	6afa      	ldr	r2, [r7, #44]	; 0x2c
    83d6:	322e      	adds	r2, #46	; 0x2e
    83d8:	0092      	lsls	r2, r2, #2
    83da:	2100      	movs	r1, #0
    83dc:	50d1      	str	r1, [r2, r3]
		module_inst->host_pipe_enabled_callback_mask[i] = 0;
	}
#endif

	/*  device callback related */
	for (i = 0; i < USB_DEVICE_CALLBACK_N; i++) {
    83de:	6afb      	ldr	r3, [r7, #44]	; 0x2c
    83e0:	3301      	adds	r3, #1
    83e2:	62fb      	str	r3, [r7, #44]	; 0x2c
    83e4:	6afb      	ldr	r3, [r7, #44]	; 0x2c
    83e6:	2b06      	cmp	r3, #6
    83e8:	d9f3      	bls.n	83d2 <usb_init+0x276>
		module_inst->device_callback[i] = NULL;
	}
	for (i = 0; i < USB_EPT_NUM; i++) {
    83ea:	2300      	movs	r3, #0
    83ec:	62fb      	str	r3, [r7, #44]	; 0x2c
    83ee:	e015      	b.n	841c <usb_init+0x2c0>
		for(j = 0; j < USB_DEVICE_EP_CALLBACK_N; j++) {
    83f0:	2300      	movs	r3, #0
    83f2:	62bb      	str	r3, [r7, #40]	; 0x28
    83f4:	e00c      	b.n	8410 <usb_init+0x2b4>
			module_inst->device_endpoint_callback[i][j] = NULL;
    83f6:	68fa      	ldr	r2, [r7, #12]
    83f8:	6afb      	ldr	r3, [r7, #44]	; 0x2c
    83fa:	0099      	lsls	r1, r3, #2
    83fc:	6abb      	ldr	r3, [r7, #40]	; 0x28
    83fe:	18cb      	adds	r3, r1, r3
    8400:	3334      	adds	r3, #52	; 0x34
    8402:	009b      	lsls	r3, r3, #2
    8404:	18d3      	adds	r3, r2, r3
    8406:	2200      	movs	r2, #0
    8408:	605a      	str	r2, [r3, #4]
	/*  device callback related */
	for (i = 0; i < USB_DEVICE_CALLBACK_N; i++) {
		module_inst->device_callback[i] = NULL;
	}
	for (i = 0; i < USB_EPT_NUM; i++) {
		for(j = 0; j < USB_DEVICE_EP_CALLBACK_N; j++) {
    840a:	6abb      	ldr	r3, [r7, #40]	; 0x28
    840c:	3301      	adds	r3, #1
    840e:	62bb      	str	r3, [r7, #40]	; 0x28
    8410:	6abb      	ldr	r3, [r7, #40]	; 0x28
    8412:	2b03      	cmp	r3, #3
    8414:	d9ef      	bls.n	83f6 <usb_init+0x29a>

	/*  device callback related */
	for (i = 0; i < USB_DEVICE_CALLBACK_N; i++) {
		module_inst->device_callback[i] = NULL;
	}
	for (i = 0; i < USB_EPT_NUM; i++) {
    8416:	6afb      	ldr	r3, [r7, #44]	; 0x2c
    8418:	3301      	adds	r3, #1
    841a:	62fb      	str	r3, [r7, #44]	; 0x2c
    841c:	6afb      	ldr	r3, [r7, #44]	; 0x2c
    841e:	2b07      	cmp	r3, #7
    8420:	d9e6      	bls.n	83f0 <usb_init+0x294>
		for(j = 0; j < USB_DEVICE_EP_CALLBACK_N; j++) {
			module_inst->device_endpoint_callback[i][j] = NULL;
		}
	}
	module_inst->device_registered_callback_mask = 0;
    8422:	68fa      	ldr	r2, [r7, #12]
    8424:	23aa      	movs	r3, #170	; 0xaa
    8426:	005b      	lsls	r3, r3, #1
    8428:	2100      	movs	r1, #0
    842a:	52d1      	strh	r1, [r2, r3]
	module_inst->device_enabled_callback_mask = 0;
    842c:	68fa      	ldr	r2, [r7, #12]
    842e:	23ab      	movs	r3, #171	; 0xab
    8430:	005b      	lsls	r3, r3, #1
    8432:	2100      	movs	r1, #0
    8434:	52d1      	strh	r1, [r2, r3]
	for (j = 0; j < USB_EPT_NUM; j++) {
    8436:	2300      	movs	r3, #0
    8438:	62bb      	str	r3, [r7, #40]	; 0x28
    843a:	e012      	b.n	8462 <usb_init+0x306>
		module_inst->deivce_endpoint_registered_callback_mask[j] = 0;
    843c:	68f9      	ldr	r1, [r7, #12]
    843e:	23ac      	movs	r3, #172	; 0xac
    8440:	005b      	lsls	r3, r3, #1
    8442:	6aba      	ldr	r2, [r7, #40]	; 0x28
    8444:	188a      	adds	r2, r1, r2
    8446:	18d3      	adds	r3, r2, r3
    8448:	2200      	movs	r2, #0
    844a:	701a      	strb	r2, [r3, #0]
		module_inst->device_endpoint_enabled_callback_mask[j] = 0;
    844c:	68f9      	ldr	r1, [r7, #12]
    844e:	23b0      	movs	r3, #176	; 0xb0
    8450:	005b      	lsls	r3, r3, #1
    8452:	6aba      	ldr	r2, [r7, #40]	; 0x28
    8454:	188a      	adds	r2, r1, r2
    8456:	18d3      	adds	r3, r2, r3
    8458:	2200      	movs	r2, #0
    845a:	701a      	strb	r2, [r3, #0]
			module_inst->device_endpoint_callback[i][j] = NULL;
		}
	}
	module_inst->device_registered_callback_mask = 0;
	module_inst->device_enabled_callback_mask = 0;
	for (j = 0; j < USB_EPT_NUM; j++) {
    845c:	6abb      	ldr	r3, [r7, #40]	; 0x28
    845e:	3301      	adds	r3, #1
    8460:	62bb      	str	r3, [r7, #40]	; 0x28
    8462:	6abb      	ldr	r3, [r7, #40]	; 0x28
    8464:	2b07      	cmp	r3, #7
    8466:	d9e9      	bls.n	843c <usb_init+0x2e0>
		module_inst->deivce_endpoint_registered_callback_mask[j] = 0;
		module_inst->device_endpoint_enabled_callback_mask[j] = 0;
	}

	/* Enable interrupts for this USB module */
	system_interrupt_enable(SYSTEM_INTERRUPT_MODULE_USB);
    8468:	2007      	movs	r0, #7
    846a:	4b11      	ldr	r3, [pc, #68]	; (84b0 <usb_init+0x354>)
    846c:	4798      	blx	r3

	return STATUS_OK;
    846e:	2300      	movs	r3, #0
}
    8470:	1c18      	adds	r0, r3, #0
    8472:	46bd      	mov	sp, r7
    8474:	b00c      	add	sp, #48	; 0x30
    8476:	bd80      	pop	{r7, pc}
    8478:	200001ac 	.word	0x200001ac
    847c:	20000194 	.word	0x20000194
    8480:	000067b1 	.word	0x000067b1
    8484:	0000680d 	.word	0x0000680d
    8488:	00004eed 	.word	0x00004eed
    848c:	0000679d 	.word	0x0000679d
    8490:	00004c01 	.word	0x00004c01
    8494:	00004c45 	.word	0x00004c45
    8498:	41005000 	.word	0x41005000
    849c:	00806024 	.word	0x00806024
    84a0:	fffff83f 	.word	0xfffff83f
    84a4:	ffff8fff 	.word	0xffff8fff
    84a8:	2000047c 	.word	0x2000047c
    84ac:	00008bf7 	.word	0x00008bf7
    84b0:	00006835 	.word	0x00006835

000084b4 <Reset_Handler>:
/**
 * \brief This is the code that gets called on processor reset.
 * To initialize the device, and call the main() routine.
 */
void Reset_Handler(void)
{
    84b4:	b580      	push	{r7, lr}
    84b6:	b082      	sub	sp, #8
    84b8:	af00      	add	r7, sp, #0
        uint32_t *pSrc, *pDest;

        /* Initialize the relocate segment */
        pSrc = &_etext;
    84ba:	4b2f      	ldr	r3, [pc, #188]	; (8578 <Reset_Handler+0xc4>)
    84bc:	607b      	str	r3, [r7, #4]
        pDest = &_srelocate;
    84be:	4b2f      	ldr	r3, [pc, #188]	; (857c <Reset_Handler+0xc8>)
    84c0:	603b      	str	r3, [r7, #0]

        if (pSrc != pDest) {
    84c2:	687a      	ldr	r2, [r7, #4]
    84c4:	683b      	ldr	r3, [r7, #0]
    84c6:	429a      	cmp	r2, r3
    84c8:	d00c      	beq.n	84e4 <Reset_Handler+0x30>
                for (; pDest < &_erelocate;) {
    84ca:	e007      	b.n	84dc <Reset_Handler+0x28>
                        *pDest++ = *pSrc++;
    84cc:	683b      	ldr	r3, [r7, #0]
    84ce:	1d1a      	adds	r2, r3, #4
    84d0:	603a      	str	r2, [r7, #0]
    84d2:	687a      	ldr	r2, [r7, #4]
    84d4:	1d11      	adds	r1, r2, #4
    84d6:	6079      	str	r1, [r7, #4]
    84d8:	6812      	ldr	r2, [r2, #0]
    84da:	601a      	str	r2, [r3, #0]
        /* Initialize the relocate segment */
        pSrc = &_etext;
        pDest = &_srelocate;

        if (pSrc != pDest) {
                for (; pDest < &_erelocate;) {
    84dc:	683a      	ldr	r2, [r7, #0]
    84de:	4b28      	ldr	r3, [pc, #160]	; (8580 <Reset_Handler+0xcc>)
    84e0:	429a      	cmp	r2, r3
    84e2:	d3f3      	bcc.n	84cc <Reset_Handler+0x18>
                        *pDest++ = *pSrc++;
                }
        }

        /* Clear the zero segment */
        for (pDest = &_szero; pDest < &_ezero;) {
    84e4:	4b27      	ldr	r3, [pc, #156]	; (8584 <Reset_Handler+0xd0>)
    84e6:	603b      	str	r3, [r7, #0]
    84e8:	e004      	b.n	84f4 <Reset_Handler+0x40>
                *pDest++ = 0;
    84ea:	683b      	ldr	r3, [r7, #0]
    84ec:	1d1a      	adds	r2, r3, #4
    84ee:	603a      	str	r2, [r7, #0]
    84f0:	2200      	movs	r2, #0
    84f2:	601a      	str	r2, [r3, #0]
                        *pDest++ = *pSrc++;
                }
        }

        /* Clear the zero segment */
        for (pDest = &_szero; pDest < &_ezero;) {
    84f4:	683a      	ldr	r2, [r7, #0]
    84f6:	4b24      	ldr	r3, [pc, #144]	; (8588 <Reset_Handler+0xd4>)
    84f8:	429a      	cmp	r2, r3
    84fa:	d3f6      	bcc.n	84ea <Reset_Handler+0x36>
                *pDest++ = 0;
        }

        /* Set the vector table base address */
        pSrc = (uint32_t *) & _sfixed;
    84fc:	4b23      	ldr	r3, [pc, #140]	; (858c <Reset_Handler+0xd8>)
    84fe:	607b      	str	r3, [r7, #4]
        SCB->VTOR = ((uint32_t) pSrc & SCB_VTOR_TBLOFF_Msk);
    8500:	4b23      	ldr	r3, [pc, #140]	; (8590 <Reset_Handler+0xdc>)
    8502:	687a      	ldr	r2, [r7, #4]
    8504:	21ff      	movs	r1, #255	; 0xff
    8506:	438a      	bics	r2, r1
    8508:	609a      	str	r2, [r3, #8]

        /* Change default QOS values to have the best performance and correct USB behaviour */
        SBMATRIX->SFR[SBMATRIX_SLAVE_HMCRAMC0].reg = 2;
    850a:	4a22      	ldr	r2, [pc, #136]	; (8594 <Reset_Handler+0xe0>)
    850c:	2390      	movs	r3, #144	; 0x90
    850e:	005b      	lsls	r3, r3, #1
    8510:	2102      	movs	r1, #2
    8512:	50d1      	str	r1, [r2, r3]
#if defined(ID_USB)
        USB->DEVICE.QOSCTRL.bit.CQOS = 2;
    8514:	4b20      	ldr	r3, [pc, #128]	; (8598 <Reset_Handler+0xe4>)
    8516:	78da      	ldrb	r2, [r3, #3]
    8518:	2103      	movs	r1, #3
    851a:	438a      	bics	r2, r1
    851c:	1c11      	adds	r1, r2, #0
    851e:	2202      	movs	r2, #2
    8520:	430a      	orrs	r2, r1
    8522:	70da      	strb	r2, [r3, #3]
        USB->DEVICE.QOSCTRL.bit.DQOS = 2;
    8524:	4b1c      	ldr	r3, [pc, #112]	; (8598 <Reset_Handler+0xe4>)
    8526:	78da      	ldrb	r2, [r3, #3]
    8528:	210c      	movs	r1, #12
    852a:	438a      	bics	r2, r1
    852c:	1c11      	adds	r1, r2, #0
    852e:	2208      	movs	r2, #8
    8530:	430a      	orrs	r2, r1
    8532:	70da      	strb	r2, [r3, #3]
#endif
        DMAC->QOSCTRL.bit.DQOS = 2;
    8534:	4b19      	ldr	r3, [pc, #100]	; (859c <Reset_Handler+0xe8>)
    8536:	7b9a      	ldrb	r2, [r3, #14]
    8538:	2130      	movs	r1, #48	; 0x30
    853a:	438a      	bics	r2, r1
    853c:	1c11      	adds	r1, r2, #0
    853e:	2220      	movs	r2, #32
    8540:	430a      	orrs	r2, r1
    8542:	739a      	strb	r2, [r3, #14]
        DMAC->QOSCTRL.bit.FQOS = 2;
    8544:	4b15      	ldr	r3, [pc, #84]	; (859c <Reset_Handler+0xe8>)
    8546:	7b9a      	ldrb	r2, [r3, #14]
    8548:	210c      	movs	r1, #12
    854a:	438a      	bics	r2, r1
    854c:	1c11      	adds	r1, r2, #0
    854e:	2208      	movs	r2, #8
    8550:	430a      	orrs	r2, r1
    8552:	739a      	strb	r2, [r3, #14]
        DMAC->QOSCTRL.bit.WRBQOS = 2;
    8554:	4b11      	ldr	r3, [pc, #68]	; (859c <Reset_Handler+0xe8>)
    8556:	7b9a      	ldrb	r2, [r3, #14]
    8558:	2103      	movs	r1, #3
    855a:	438a      	bics	r2, r1
    855c:	1c11      	adds	r1, r2, #0
    855e:	2202      	movs	r2, #2
    8560:	430a      	orrs	r2, r1
    8562:	739a      	strb	r2, [r3, #14]

        /* Overwriting the default value of the NVMCTRL.CTRLB.MANW bit (errata reference 13134) */
        NVMCTRL->CTRLB.bit.MANW = 1;
    8564:	4b0e      	ldr	r3, [pc, #56]	; (85a0 <Reset_Handler+0xec>)
    8566:	685a      	ldr	r2, [r3, #4]
    8568:	2180      	movs	r1, #128	; 0x80
    856a:	430a      	orrs	r2, r1
    856c:	605a      	str	r2, [r3, #4]

        /* Initialize the C library */
        __libc_init_array();
    856e:	4b0d      	ldr	r3, [pc, #52]	; (85a4 <Reset_Handler+0xf0>)
    8570:	4798      	blx	r3

        /* Branch to main function */
        main();
    8572:	4b0d      	ldr	r3, [pc, #52]	; (85a8 <Reset_Handler+0xf4>)
    8574:	4798      	blx	r3

        /* Infinite loop */
        while (1);
    8576:	e7fe      	b.n	8576 <Reset_Handler+0xc2>
    8578:	00008d28 	.word	0x00008d28
    857c:	20000000 	.word	0x20000000
    8580:	200000dc 	.word	0x200000dc
    8584:	200000dc 	.word	0x200000dc
    8588:	2000057c 	.word	0x2000057c
    858c:	00000000 	.word	0x00000000
    8590:	e000ed00 	.word	0xe000ed00
    8594:	41007000 	.word	0x41007000
    8598:	41005000 	.word	0x41005000
    859c:	41004800 	.word	0x41004800
    85a0:	41004000 	.word	0x41004000
    85a4:	00008b99 	.word	0x00008b99
    85a8:	0000873d 	.word	0x0000873d

000085ac <Dummy_Handler>:

/**
 * \brief Default interrupt handler for unused IRQs.
 */
void Dummy_Handler(void)
{
    85ac:	b580      	push	{r7, lr}
    85ae:	af00      	add	r7, sp, #0
        while (1) {
        }
    85b0:	e7fe      	b.n	85b0 <Dummy_Handler+0x4>
    85b2:	46c0      	nop			; (mov r8, r8)

000085b4 <system_set_sleepmode>:
 * \retval STATUS_ERR_INVALID_ARG  The requested sleep mode was invalid or not
 *                                 available
 */
static inline enum status_code system_set_sleepmode(
	const enum system_sleepmode sleep_mode)
{
    85b4:	b580      	push	{r7, lr}
    85b6:	b082      	sub	sp, #8
    85b8:	af00      	add	r7, sp, #0
    85ba:	1c02      	adds	r2, r0, #0
    85bc:	1dfb      	adds	r3, r7, #7
    85be:	701a      	strb	r2, [r3, #0]
#if (SAMD20 || SAMD21)
	/* Errata: Make sure that the Flash does not power all the way down
	 * when in sleep mode. */
	NVMCTRL->CTRLB.bit.SLEEPPRM = NVMCTRL_CTRLB_SLEEPPRM_DISABLED_Val;
    85c0:	4b13      	ldr	r3, [pc, #76]	; (8610 <system_set_sleepmode+0x5c>)
    85c2:	685a      	ldr	r2, [r3, #4]
    85c4:	21c0      	movs	r1, #192	; 0xc0
    85c6:	0089      	lsls	r1, r1, #2
    85c8:	430a      	orrs	r2, r1
    85ca:	605a      	str	r2, [r3, #4]
#endif

	switch (sleep_mode) {
    85cc:	1dfb      	adds	r3, r7, #7
    85ce:	781b      	ldrb	r3, [r3, #0]
    85d0:	2b00      	cmp	r3, #0
    85d2:	db16      	blt.n	8602 <system_set_sleepmode+0x4e>
    85d4:	2b02      	cmp	r3, #2
    85d6:	dd02      	ble.n	85de <system_set_sleepmode+0x2a>
    85d8:	2b03      	cmp	r3, #3
    85da:	d00b      	beq.n	85f4 <system_set_sleepmode+0x40>
    85dc:	e011      	b.n	8602 <system_set_sleepmode+0x4e>
		case SYSTEM_SLEEPMODE_IDLE_0:
		case SYSTEM_SLEEPMODE_IDLE_1:
		case SYSTEM_SLEEPMODE_IDLE_2:
			SCB->SCR &= ~SCB_SCR_SLEEPDEEP_Msk;
    85de:	4b0d      	ldr	r3, [pc, #52]	; (8614 <system_set_sleepmode+0x60>)
    85e0:	4a0c      	ldr	r2, [pc, #48]	; (8614 <system_set_sleepmode+0x60>)
    85e2:	6912      	ldr	r2, [r2, #16]
    85e4:	2104      	movs	r1, #4
    85e6:	438a      	bics	r2, r1
    85e8:	611a      	str	r2, [r3, #16]
			PM->SLEEP.reg = sleep_mode;
    85ea:	4a0b      	ldr	r2, [pc, #44]	; (8618 <system_set_sleepmode+0x64>)
    85ec:	1dfb      	adds	r3, r7, #7
    85ee:	781b      	ldrb	r3, [r3, #0]
    85f0:	7053      	strb	r3, [r2, #1]
			break;
    85f2:	e008      	b.n	8606 <system_set_sleepmode+0x52>

		case SYSTEM_SLEEPMODE_STANDBY:
			SCB->SCR |=  SCB_SCR_SLEEPDEEP_Msk;
    85f4:	4b07      	ldr	r3, [pc, #28]	; (8614 <system_set_sleepmode+0x60>)
    85f6:	4a07      	ldr	r2, [pc, #28]	; (8614 <system_set_sleepmode+0x60>)
    85f8:	6912      	ldr	r2, [r2, #16]
    85fa:	2104      	movs	r1, #4
    85fc:	430a      	orrs	r2, r1
    85fe:	611a      	str	r2, [r3, #16]
			break;
    8600:	e001      	b.n	8606 <system_set_sleepmode+0x52>

		default:
			return STATUS_ERR_INVALID_ARG;
    8602:	2317      	movs	r3, #23
    8604:	e000      	b.n	8608 <system_set_sleepmode+0x54>
	}

	return STATUS_OK;
    8606:	2300      	movs	r3, #0
}
    8608:	1c18      	adds	r0, r3, #0
    860a:	46bd      	mov	sp, r7
    860c:	b002      	add	sp, #8
    860e:	bd80      	pop	{r7, pc}
    8610:	41004000 	.word	0x41004000
    8614:	e000ed00 	.word	0xe000ed00
    8618:	40000400 	.word	0x40000400

0000861c <system_sleep>:
 * all ongoing memory accesses have completed, then a WFI (Wait For Interrupt)
 * instruction to place the device into the sleep mode specified by
 * \ref system_set_sleepmode until woken by an interrupt.
 */
static inline void system_sleep(void)
{
    861c:	b580      	push	{r7, lr}
    861e:	af00      	add	r7, sp, #0
    This function acts as a special kind of Data Memory Barrier.
    It completes when all explicit memory accesses before this instruction complete.
 */
__attribute__( ( always_inline ) ) __STATIC_INLINE void __DSB(void)
{
  __ASM volatile ("dsb");
    8620:	f3bf 8f4f 	dsb	sy
    Wait For Interrupt is a hint instruction that suspends execution
    until one of a number of events occurs.
 */
__attribute__( ( always_inline ) ) __STATIC_INLINE void __WFI(void)
{
  __ASM volatile ("wfi");
    8624:	bf30      	wfi
	__DSB();
	__WFI();
}
    8626:	46bd      	mov	sp, r7
    8628:	bd80      	pop	{r7, pc}
    862a:	46c0      	nop			; (mov r8, r8)

0000862c <sleepmgr_sleep>:
extern uint8_t sleepmgr_locks[];
#endif /* CONFIG_SLEEPMGR_ENABLE */
/** @} */

static inline void sleepmgr_sleep(const enum sleepmgr_mode sleep_mode)
{
    862c:	b580      	push	{r7, lr}
    862e:	b082      	sub	sp, #8
    8630:	af00      	add	r7, sp, #0
    8632:	1c02      	adds	r2, r0, #0
    8634:	1dfb      	adds	r3, r7, #7
    8636:	701a      	strb	r2, [r3, #0]
  This function disables IRQ interrupts by setting the I-bit in the CPSR.
  Can only be executed in Privileged modes.
 */
__attribute__( ( always_inline ) ) __STATIC_INLINE void __disable_irq(void)
{
  __ASM volatile ("cpsid i" : : : "memory");
    8638:	b672      	cpsid	i
    This function ensures the apparent order of the explicit memory operations before
    and after the instruction, without ensuring their completion.
 */
__attribute__( ( always_inline ) ) __STATIC_INLINE void __DMB(void)
{
  __ASM volatile ("dmb");
    863a:	f3bf 8f5f 	dmb	sy
	Assert(sleep_mode != SLEEPMGR_ACTIVE);
#ifdef CONFIG_SLEEPMGR_ENABLE
	cpu_irq_disable();
    863e:	4b0a      	ldr	r3, [pc, #40]	; (8668 <sleepmgr_sleep+0x3c>)
    8640:	2200      	movs	r2, #0
    8642:	701a      	strb	r2, [r3, #0]

	/* Enter the sleep mode. */
	system_set_sleepmode((enum system_sleepmode)(sleep_mode - 1));
    8644:	1dfb      	adds	r3, r7, #7
    8646:	781b      	ldrb	r3, [r3, #0]
    8648:	3b01      	subs	r3, #1
    864a:	b2db      	uxtb	r3, r3
    864c:	1c18      	adds	r0, r3, #0
    864e:	4b07      	ldr	r3, [pc, #28]	; (866c <sleepmgr_sleep+0x40>)
    8650:	4798      	blx	r3
	cpu_irq_enable();
    8652:	4b05      	ldr	r3, [pc, #20]	; (8668 <sleepmgr_sleep+0x3c>)
    8654:	2201      	movs	r2, #1
    8656:	701a      	strb	r2, [r3, #0]
    8658:	f3bf 8f5f 	dmb	sy
  This function enables IRQ interrupts by clearing the I-bit in the CPSR.
  Can only be executed in Privileged modes.
 */
__attribute__( ( always_inline ) ) __STATIC_INLINE void __enable_irq(void)
{
  __ASM volatile ("cpsie i" : : : "memory");
    865c:	b662      	cpsie	i
	system_sleep();
    865e:	4b04      	ldr	r3, [pc, #16]	; (8670 <sleepmgr_sleep+0x44>)
    8660:	4798      	blx	r3
#else
	UNUSED(sleep_mode);
	cpu_irq_enable();
#endif /* CONFIG_SLEEPMGR_ENABLE */
}
    8662:	46bd      	mov	sp, r7
    8664:	b002      	add	sp, #8
    8666:	bd80      	pop	{r7, pc}
    8668:	200000d8 	.word	0x200000d8
    866c:	000085b5 	.word	0x000085b5
    8670:	0000861d 	.word	0x0000861d

00008674 <sleepmgr_init>:
 * Sets all lock counts to 0, except the very last one, which is set to 1. This
 * is done to simplify the algorithm for finding the deepest allowable sleep
 * mode in \ref sleepmgr_enter_sleep.
 */
static inline void sleepmgr_init(void)
{
    8674:	b580      	push	{r7, lr}
    8676:	b082      	sub	sp, #8
    8678:	af00      	add	r7, sp, #0
#ifdef CONFIG_SLEEPMGR_ENABLE
	uint8_t i;

	for (i = 0; i < SLEEPMGR_NR_OF_MODES - 1; i++) {
    867a:	1dfb      	adds	r3, r7, #7
    867c:	2200      	movs	r2, #0
    867e:	701a      	strb	r2, [r3, #0]
    8680:	e009      	b.n	8696 <sleepmgr_init+0x22>
		sleepmgr_locks[i] = 0;
    8682:	1dfb      	adds	r3, r7, #7
    8684:	781b      	ldrb	r3, [r3, #0]
    8686:	4a09      	ldr	r2, [pc, #36]	; (86ac <sleepmgr_init+0x38>)
    8688:	2100      	movs	r1, #0
    868a:	54d1      	strb	r1, [r2, r3]
static inline void sleepmgr_init(void)
{
#ifdef CONFIG_SLEEPMGR_ENABLE
	uint8_t i;

	for (i = 0; i < SLEEPMGR_NR_OF_MODES - 1; i++) {
    868c:	1dfb      	adds	r3, r7, #7
    868e:	781a      	ldrb	r2, [r3, #0]
    8690:	1dfb      	adds	r3, r7, #7
    8692:	3201      	adds	r2, #1
    8694:	701a      	strb	r2, [r3, #0]
    8696:	1dfb      	adds	r3, r7, #7
    8698:	781b      	ldrb	r3, [r3, #0]
    869a:	2b03      	cmp	r3, #3
    869c:	d9f1      	bls.n	8682 <sleepmgr_init+0xe>
		sleepmgr_locks[i] = 0;
	}
	sleepmgr_locks[SLEEPMGR_NR_OF_MODES - 1] = 1;
    869e:	4b03      	ldr	r3, [pc, #12]	; (86ac <sleepmgr_init+0x38>)
    86a0:	2201      	movs	r2, #1
    86a2:	711a      	strb	r2, [r3, #4]
#endif /* CONFIG_SLEEPMGR_ENABLE */
}
    86a4:	46bd      	mov	sp, r7
    86a6:	b002      	add	sp, #8
    86a8:	bd80      	pop	{r7, pc}
    86aa:	46c0      	nop			; (mov r8, r8)
    86ac:	2000026c 	.word	0x2000026c

000086b0 <sleepmgr_get_sleep_mode>:
 * Searches through the sleep mode lock counts, starting at the shallowest sleep
 * mode, until the first non-zero lock count is found. The deepest allowable
 * sleep mode is then returned.
 */
static inline enum sleepmgr_mode sleepmgr_get_sleep_mode(void)
{
    86b0:	b580      	push	{r7, lr}
    86b2:	b082      	sub	sp, #8
    86b4:	af00      	add	r7, sp, #0
	enum sleepmgr_mode sleep_mode = SLEEPMGR_ACTIVE;
    86b6:	1dfb      	adds	r3, r7, #7
    86b8:	2200      	movs	r2, #0
    86ba:	701a      	strb	r2, [r3, #0]

#ifdef CONFIG_SLEEPMGR_ENABLE
	uint8_t *lock_ptr = sleepmgr_locks;
    86bc:	4b0a      	ldr	r3, [pc, #40]	; (86e8 <sleepmgr_get_sleep_mode+0x38>)
    86be:	603b      	str	r3, [r7, #0]

	// Find first non-zero lock count, starting with the shallowest modes.
	while (!(*lock_ptr)) {
    86c0:	e007      	b.n	86d2 <sleepmgr_get_sleep_mode+0x22>
		lock_ptr++;
    86c2:	683b      	ldr	r3, [r7, #0]
    86c4:	3301      	adds	r3, #1
    86c6:	603b      	str	r3, [r7, #0]
		sleep_mode = (enum sleepmgr_mode)(sleep_mode + 1);
    86c8:	1dfb      	adds	r3, r7, #7
    86ca:	1dfa      	adds	r2, r7, #7
    86cc:	7812      	ldrb	r2, [r2, #0]
    86ce:	3201      	adds	r2, #1
    86d0:	701a      	strb	r2, [r3, #0]

#ifdef CONFIG_SLEEPMGR_ENABLE
	uint8_t *lock_ptr = sleepmgr_locks;

	// Find first non-zero lock count, starting with the shallowest modes.
	while (!(*lock_ptr)) {
    86d2:	683b      	ldr	r3, [r7, #0]
    86d4:	781b      	ldrb	r3, [r3, #0]
    86d6:	2b00      	cmp	r3, #0
    86d8:	d0f3      	beq.n	86c2 <sleepmgr_get_sleep_mode+0x12>
	// performed on the deepest sleep mode.
	Assert((uintptr_t)(lock_ptr - sleepmgr_locks) < SLEEPMGR_NR_OF_MODES);

#endif /* CONFIG_SLEEPMGR_ENABLE */

	return sleep_mode;
    86da:	1dfb      	adds	r3, r7, #7
    86dc:	781b      	ldrb	r3, [r3, #0]
}
    86de:	1c18      	adds	r0, r3, #0
    86e0:	46bd      	mov	sp, r7
    86e2:	b002      	add	sp, #8
    86e4:	bd80      	pop	{r7, pc}
    86e6:	46c0      	nop			; (mov r8, r8)
    86e8:	2000026c 	.word	0x2000026c

000086ec <sleepmgr_enter_sleep>:
 * them enabled upon return. This also applies if sleep is skipped due to ACTIVE
 * mode being locked.
 */

static inline void sleepmgr_enter_sleep(void)
{
    86ec:	b590      	push	{r4, r7, lr}
    86ee:	b083      	sub	sp, #12
    86f0:	af00      	add	r7, sp, #0
  This function disables IRQ interrupts by setting the I-bit in the CPSR.
  Can only be executed in Privileged modes.
 */
__attribute__( ( always_inline ) ) __STATIC_INLINE void __disable_irq(void)
{
  __ASM volatile ("cpsid i" : : : "memory");
    86f2:	b672      	cpsid	i
    86f4:	f3bf 8f5f 	dmb	sy
#ifdef CONFIG_SLEEPMGR_ENABLE
	enum sleepmgr_mode sleep_mode;

	cpu_irq_disable();
    86f8:	4b0d      	ldr	r3, [pc, #52]	; (8730 <sleepmgr_enter_sleep+0x44>)
    86fa:	2200      	movs	r2, #0
    86fc:	701a      	strb	r2, [r3, #0]

	// Find the deepest allowable sleep mode
	sleep_mode = sleepmgr_get_sleep_mode();
    86fe:	1dfc      	adds	r4, r7, #7
    8700:	4b0c      	ldr	r3, [pc, #48]	; (8734 <sleepmgr_enter_sleep+0x48>)
    8702:	4798      	blx	r3
    8704:	1c03      	adds	r3, r0, #0
    8706:	7023      	strb	r3, [r4, #0]
	// Return right away if first mode (ACTIVE) is locked.
	if (sleep_mode==SLEEPMGR_ACTIVE) {
    8708:	1dfb      	adds	r3, r7, #7
    870a:	781b      	ldrb	r3, [r3, #0]
    870c:	2b00      	cmp	r3, #0
    870e:	d106      	bne.n	871e <sleepmgr_enter_sleep+0x32>
		cpu_irq_enable();
    8710:	4b07      	ldr	r3, [pc, #28]	; (8730 <sleepmgr_enter_sleep+0x44>)
    8712:	2201      	movs	r2, #1
    8714:	701a      	strb	r2, [r3, #0]
    8716:	f3bf 8f5f 	dmb	sy
  This function enables IRQ interrupts by clearing the I-bit in the CPSR.
  Can only be executed in Privileged modes.
 */
__attribute__( ( always_inline ) ) __STATIC_INLINE void __enable_irq(void)
{
  __ASM volatile ("cpsie i" : : : "memory");
    871a:	b662      	cpsie	i
		return;
    871c:	e004      	b.n	8728 <sleepmgr_enter_sleep+0x3c>
	}
	// Enter the deepest allowable sleep mode with interrupts enabled
	sleepmgr_sleep(sleep_mode);
    871e:	1dfb      	adds	r3, r7, #7
    8720:	781b      	ldrb	r3, [r3, #0]
    8722:	1c18      	adds	r0, r3, #0
    8724:	4b04      	ldr	r3, [pc, #16]	; (8738 <sleepmgr_enter_sleep+0x4c>)
    8726:	4798      	blx	r3
#else
	cpu_irq_enable();
#endif /* CONFIG_SLEEPMGR_ENABLE */
}
    8728:	46bd      	mov	sp, r7
    872a:	b003      	add	sp, #12
    872c:	bd90      	pop	{r4, r7, pc}
    872e:	46c0      	nop			; (mov r8, r8)
    8730:	200000d8 	.word	0x200000d8
    8734:	000086b1 	.word	0x000086b1
    8738:	0000862d 	.word	0x0000862d

0000873c <main>:
static volatile bool main_b_mouse_enable = false;

/*! \brief Main function. Execution starts here.
 */
int main(void)
{
    873c:	b580      	push	{r7, lr}
    873e:	af00      	add	r7, sp, #0
	irq_initialize_vectors();
	cpu_irq_enable();
    8740:	4b09      	ldr	r3, [pc, #36]	; (8768 <main+0x2c>)
    8742:	2201      	movs	r2, #1
    8744:	701a      	strb	r2, [r3, #0]
    8746:	f3bf 8f5f 	dmb	sy
    874a:	b662      	cpsie	i
	system_init();
    874c:	4b07      	ldr	r3, [pc, #28]	; (876c <main+0x30>)
    874e:	4798      	blx	r3

	// Initialize the sleep manager
	sleepmgr_init();
    8750:	4b07      	ldr	r3, [pc, #28]	; (8770 <main+0x34>)
    8752:	4798      	blx	r3
	ui_init();
    8754:	4b07      	ldr	r3, [pc, #28]	; (8774 <main+0x38>)
    8756:	4798      	blx	r3
	ui_powerdown();
    8758:	4b07      	ldr	r3, [pc, #28]	; (8778 <main+0x3c>)
    875a:	4798      	blx	r3

	// Start USB stack to authorize VBus monitoring
	udc_start();
    875c:	4b07      	ldr	r3, [pc, #28]	; (877c <main+0x40>)
    875e:	4798      	blx	r3
				static uint16_t virtual_sof = 0;
				ui_process(virtual_sof++);
			}
		}
#else /* #ifdef USB_DEVICE_LOW_SPEED */
		sleepmgr_enter_sleep();
    8760:	4b07      	ldr	r3, [pc, #28]	; (8780 <main+0x44>)
    8762:	4798      	blx	r3
#endif
	}
    8764:	e7fc      	b.n	8760 <main+0x24>
    8766:	46c0      	nop			; (mov r8, r8)
    8768:	200000d8 	.word	0x200000d8
    876c:	00004f45 	.word	0x00004f45
    8770:	00008675 	.word	0x00008675
    8774:	00002439 	.word	0x00002439
    8778:	00002455 	.word	0x00002455
    877c:	00002f81 	.word	0x00002f81
    8780:	000086ed 	.word	0x000086ed

00008784 <main_suspend_action>:
}

void main_suspend_action(void)
{
    8784:	b580      	push	{r7, lr}
    8786:	af00      	add	r7, sp, #0
	ui_powerdown();
    8788:	4b01      	ldr	r3, [pc, #4]	; (8790 <main_suspend_action+0xc>)
    878a:	4798      	blx	r3
}
    878c:	46bd      	mov	sp, r7
    878e:	bd80      	pop	{r7, pc}
    8790:	00002455 	.word	0x00002455

00008794 <main_resume_action>:

void main_resume_action(void)
{
    8794:	b580      	push	{r7, lr}
    8796:	af00      	add	r7, sp, #0
	ui_wakeup();
    8798:	4b01      	ldr	r3, [pc, #4]	; (87a0 <main_resume_action+0xc>)
    879a:	4798      	blx	r3
}
    879c:	46bd      	mov	sp, r7
    879e:	bd80      	pop	{r7, pc}
    87a0:	00002491 	.word	0x00002491

000087a4 <main_sof_action>:

void main_sof_action(void)
{
    87a4:	b580      	push	{r7, lr}
    87a6:	af00      	add	r7, sp, #0
	if (!main_b_mouse_enable)
    87a8:	4b08      	ldr	r3, [pc, #32]	; (87cc <main_sof_action+0x28>)
    87aa:	781b      	ldrb	r3, [r3, #0]
    87ac:	b2db      	uxtb	r3, r3
    87ae:	2201      	movs	r2, #1
    87b0:	4053      	eors	r3, r2
    87b2:	b2db      	uxtb	r3, r3
    87b4:	2b00      	cmp	r3, #0
    87b6:	d000      	beq.n	87ba <main_sof_action+0x16>
		return;
    87b8:	e005      	b.n	87c6 <main_sof_action+0x22>
	ui_process(udd_get_frame_number());
    87ba:	4b05      	ldr	r3, [pc, #20]	; (87d0 <main_sof_action+0x2c>)
    87bc:	4798      	blx	r3
    87be:	1c03      	adds	r3, r0, #0
    87c0:	1c18      	adds	r0, r3, #0
    87c2:	4b04      	ldr	r3, [pc, #16]	; (87d4 <main_sof_action+0x30>)
    87c4:	4798      	blx	r3
}
    87c6:	46bd      	mov	sp, r7
    87c8:	bd80      	pop	{r7, pc}
    87ca:	46c0      	nop			; (mov r8, r8)
    87cc:	200001b0 	.word	0x200001b0
    87d0:	0000575d 	.word	0x0000575d
    87d4:	000024a5 	.word	0x000024a5

000087d8 <main_remotewakeup_enable>:

void main_remotewakeup_enable(void)
{
    87d8:	b580      	push	{r7, lr}
    87da:	af00      	add	r7, sp, #0
	ui_wakeup_enable();
    87dc:	4b01      	ldr	r3, [pc, #4]	; (87e4 <main_remotewakeup_enable+0xc>)
    87de:	4798      	blx	r3
}
    87e0:	46bd      	mov	sp, r7
    87e2:	bd80      	pop	{r7, pc}
    87e4:	00002469 	.word	0x00002469

000087e8 <main_remotewakeup_disable>:

void main_remotewakeup_disable(void)
{
    87e8:	b580      	push	{r7, lr}
    87ea:	af00      	add	r7, sp, #0
	ui_wakeup_disable();
    87ec:	4b01      	ldr	r3, [pc, #4]	; (87f4 <main_remotewakeup_disable+0xc>)
    87ee:	4798      	blx	r3
}
    87f0:	46bd      	mov	sp, r7
    87f2:	bd80      	pop	{r7, pc}
    87f4:	0000247d 	.word	0x0000247d

000087f8 <main_suspend_lpm_action>:

#ifdef USB_DEVICE_LPM_SUPPORT
void main_suspend_lpm_action(void)
{
    87f8:	b580      	push	{r7, lr}
    87fa:	af00      	add	r7, sp, #0
	ui_powerdown();
    87fc:	4b01      	ldr	r3, [pc, #4]	; (8804 <main_suspend_lpm_action+0xc>)
    87fe:	4798      	blx	r3
}
    8800:	46bd      	mov	sp, r7
    8802:	bd80      	pop	{r7, pc}
    8804:	00002455 	.word	0x00002455

00008808 <main_remotewakeup_lpm_disable>:

void main_remotewakeup_lpm_disable(void)
{
    8808:	b580      	push	{r7, lr}
    880a:	af00      	add	r7, sp, #0
	ui_wakeup_disable();
    880c:	4b01      	ldr	r3, [pc, #4]	; (8814 <main_remotewakeup_lpm_disable+0xc>)
    880e:	4798      	blx	r3
}
    8810:	46bd      	mov	sp, r7
    8812:	bd80      	pop	{r7, pc}
    8814:	0000247d 	.word	0x0000247d

00008818 <main_remotewakeup_lpm_enable>:

void main_remotewakeup_lpm_enable(void)
{
    8818:	b580      	push	{r7, lr}
    881a:	af00      	add	r7, sp, #0
	ui_wakeup_enable();
    881c:	4b01      	ldr	r3, [pc, #4]	; (8824 <main_remotewakeup_lpm_enable+0xc>)
    881e:	4798      	blx	r3
}
    8820:	46bd      	mov	sp, r7
    8822:	bd80      	pop	{r7, pc}
    8824:	00002469 	.word	0x00002469

00008828 <main_mouse_enable>:
#endif

bool main_mouse_enable(void)
{
    8828:	b580      	push	{r7, lr}
    882a:	af00      	add	r7, sp, #0
	main_b_mouse_enable = true;
    882c:	4b03      	ldr	r3, [pc, #12]	; (883c <main_mouse_enable+0x14>)
    882e:	2201      	movs	r2, #1
    8830:	701a      	strb	r2, [r3, #0]
	return true;
    8832:	2301      	movs	r3, #1
}
    8834:	1c18      	adds	r0, r3, #0
    8836:	46bd      	mov	sp, r7
    8838:	bd80      	pop	{r7, pc}
    883a:	46c0      	nop			; (mov r8, r8)
    883c:	200001b0 	.word	0x200001b0

00008840 <main_mouse_disable>:

void main_mouse_disable(void)
{
    8840:	b580      	push	{r7, lr}
    8842:	af00      	add	r7, sp, #0
	main_b_mouse_enable = false;
    8844:	4b02      	ldr	r3, [pc, #8]	; (8850 <main_mouse_disable+0x10>)
    8846:	2200      	movs	r2, #0
    8848:	701a      	strb	r2, [r3, #0]
}
    884a:	46bd      	mov	sp, r7
    884c:	bd80      	pop	{r7, pc}
    884e:	46c0      	nop			; (mov r8, r8)
    8850:	200001b0 	.word	0x200001b0

00008854 <__aeabi_uidiv>:
    8854:	2200      	movs	r2, #0
    8856:	0843      	lsrs	r3, r0, #1
    8858:	428b      	cmp	r3, r1
    885a:	d374      	bcc.n	8946 <__aeabi_uidiv+0xf2>
    885c:	0903      	lsrs	r3, r0, #4
    885e:	428b      	cmp	r3, r1
    8860:	d35f      	bcc.n	8922 <__aeabi_uidiv+0xce>
    8862:	0a03      	lsrs	r3, r0, #8
    8864:	428b      	cmp	r3, r1
    8866:	d344      	bcc.n	88f2 <__aeabi_uidiv+0x9e>
    8868:	0b03      	lsrs	r3, r0, #12
    886a:	428b      	cmp	r3, r1
    886c:	d328      	bcc.n	88c0 <__aeabi_uidiv+0x6c>
    886e:	0c03      	lsrs	r3, r0, #16
    8870:	428b      	cmp	r3, r1
    8872:	d30d      	bcc.n	8890 <__aeabi_uidiv+0x3c>
    8874:	22ff      	movs	r2, #255	; 0xff
    8876:	0209      	lsls	r1, r1, #8
    8878:	ba12      	rev	r2, r2
    887a:	0c03      	lsrs	r3, r0, #16
    887c:	428b      	cmp	r3, r1
    887e:	d302      	bcc.n	8886 <__aeabi_uidiv+0x32>
    8880:	1212      	asrs	r2, r2, #8
    8882:	0209      	lsls	r1, r1, #8
    8884:	d065      	beq.n	8952 <__aeabi_uidiv+0xfe>
    8886:	0b03      	lsrs	r3, r0, #12
    8888:	428b      	cmp	r3, r1
    888a:	d319      	bcc.n	88c0 <__aeabi_uidiv+0x6c>
    888c:	e000      	b.n	8890 <__aeabi_uidiv+0x3c>
    888e:	0a09      	lsrs	r1, r1, #8
    8890:	0bc3      	lsrs	r3, r0, #15
    8892:	428b      	cmp	r3, r1
    8894:	d301      	bcc.n	889a <__aeabi_uidiv+0x46>
    8896:	03cb      	lsls	r3, r1, #15
    8898:	1ac0      	subs	r0, r0, r3
    889a:	4152      	adcs	r2, r2
    889c:	0b83      	lsrs	r3, r0, #14
    889e:	428b      	cmp	r3, r1
    88a0:	d301      	bcc.n	88a6 <__aeabi_uidiv+0x52>
    88a2:	038b      	lsls	r3, r1, #14
    88a4:	1ac0      	subs	r0, r0, r3
    88a6:	4152      	adcs	r2, r2
    88a8:	0b43      	lsrs	r3, r0, #13
    88aa:	428b      	cmp	r3, r1
    88ac:	d301      	bcc.n	88b2 <__aeabi_uidiv+0x5e>
    88ae:	034b      	lsls	r3, r1, #13
    88b0:	1ac0      	subs	r0, r0, r3
    88b2:	4152      	adcs	r2, r2
    88b4:	0b03      	lsrs	r3, r0, #12
    88b6:	428b      	cmp	r3, r1
    88b8:	d301      	bcc.n	88be <__aeabi_uidiv+0x6a>
    88ba:	030b      	lsls	r3, r1, #12
    88bc:	1ac0      	subs	r0, r0, r3
    88be:	4152      	adcs	r2, r2
    88c0:	0ac3      	lsrs	r3, r0, #11
    88c2:	428b      	cmp	r3, r1
    88c4:	d301      	bcc.n	88ca <__aeabi_uidiv+0x76>
    88c6:	02cb      	lsls	r3, r1, #11
    88c8:	1ac0      	subs	r0, r0, r3
    88ca:	4152      	adcs	r2, r2
    88cc:	0a83      	lsrs	r3, r0, #10
    88ce:	428b      	cmp	r3, r1
    88d0:	d301      	bcc.n	88d6 <__aeabi_uidiv+0x82>
    88d2:	028b      	lsls	r3, r1, #10
    88d4:	1ac0      	subs	r0, r0, r3
    88d6:	4152      	adcs	r2, r2
    88d8:	0a43      	lsrs	r3, r0, #9
    88da:	428b      	cmp	r3, r1
    88dc:	d301      	bcc.n	88e2 <__aeabi_uidiv+0x8e>
    88de:	024b      	lsls	r3, r1, #9
    88e0:	1ac0      	subs	r0, r0, r3
    88e2:	4152      	adcs	r2, r2
    88e4:	0a03      	lsrs	r3, r0, #8
    88e6:	428b      	cmp	r3, r1
    88e8:	d301      	bcc.n	88ee <__aeabi_uidiv+0x9a>
    88ea:	020b      	lsls	r3, r1, #8
    88ec:	1ac0      	subs	r0, r0, r3
    88ee:	4152      	adcs	r2, r2
    88f0:	d2cd      	bcs.n	888e <__aeabi_uidiv+0x3a>
    88f2:	09c3      	lsrs	r3, r0, #7
    88f4:	428b      	cmp	r3, r1
    88f6:	d301      	bcc.n	88fc <__aeabi_uidiv+0xa8>
    88f8:	01cb      	lsls	r3, r1, #7
    88fa:	1ac0      	subs	r0, r0, r3
    88fc:	4152      	adcs	r2, r2
    88fe:	0983      	lsrs	r3, r0, #6
    8900:	428b      	cmp	r3, r1
    8902:	d301      	bcc.n	8908 <__aeabi_uidiv+0xb4>
    8904:	018b      	lsls	r3, r1, #6
    8906:	1ac0      	subs	r0, r0, r3
    8908:	4152      	adcs	r2, r2
    890a:	0943      	lsrs	r3, r0, #5
    890c:	428b      	cmp	r3, r1
    890e:	d301      	bcc.n	8914 <__aeabi_uidiv+0xc0>
    8910:	014b      	lsls	r3, r1, #5
    8912:	1ac0      	subs	r0, r0, r3
    8914:	4152      	adcs	r2, r2
    8916:	0903      	lsrs	r3, r0, #4
    8918:	428b      	cmp	r3, r1
    891a:	d301      	bcc.n	8920 <__aeabi_uidiv+0xcc>
    891c:	010b      	lsls	r3, r1, #4
    891e:	1ac0      	subs	r0, r0, r3
    8920:	4152      	adcs	r2, r2
    8922:	08c3      	lsrs	r3, r0, #3
    8924:	428b      	cmp	r3, r1
    8926:	d301      	bcc.n	892c <__aeabi_uidiv+0xd8>
    8928:	00cb      	lsls	r3, r1, #3
    892a:	1ac0      	subs	r0, r0, r3
    892c:	4152      	adcs	r2, r2
    892e:	0883      	lsrs	r3, r0, #2
    8930:	428b      	cmp	r3, r1
    8932:	d301      	bcc.n	8938 <__aeabi_uidiv+0xe4>
    8934:	008b      	lsls	r3, r1, #2
    8936:	1ac0      	subs	r0, r0, r3
    8938:	4152      	adcs	r2, r2
    893a:	0843      	lsrs	r3, r0, #1
    893c:	428b      	cmp	r3, r1
    893e:	d301      	bcc.n	8944 <__aeabi_uidiv+0xf0>
    8940:	004b      	lsls	r3, r1, #1
    8942:	1ac0      	subs	r0, r0, r3
    8944:	4152      	adcs	r2, r2
    8946:	1a41      	subs	r1, r0, r1
    8948:	d200      	bcs.n	894c <__aeabi_uidiv+0xf8>
    894a:	4601      	mov	r1, r0
    894c:	4152      	adcs	r2, r2
    894e:	4610      	mov	r0, r2
    8950:	4770      	bx	lr
    8952:	e7ff      	b.n	8954 <__aeabi_uidiv+0x100>
    8954:	b501      	push	{r0, lr}
    8956:	2000      	movs	r0, #0
    8958:	f000 f8fc 	bl	8b54 <__aeabi_idiv0>
    895c:	bd02      	pop	{r1, pc}
    895e:	46c0      	nop			; (mov r8, r8)

00008960 <__aeabi_uidivmod>:
    8960:	2900      	cmp	r1, #0
    8962:	d0f7      	beq.n	8954 <__aeabi_uidiv+0x100>
    8964:	b503      	push	{r0, r1, lr}
    8966:	f7ff ff75 	bl	8854 <__aeabi_uidiv>
    896a:	bc0e      	pop	{r1, r2, r3}
    896c:	4342      	muls	r2, r0
    896e:	1a89      	subs	r1, r1, r2
    8970:	4718      	bx	r3
    8972:	46c0      	nop			; (mov r8, r8)

00008974 <__aeabi_idiv>:
    8974:	4603      	mov	r3, r0
    8976:	430b      	orrs	r3, r1
    8978:	d47f      	bmi.n	8a7a <__aeabi_idiv+0x106>
    897a:	2200      	movs	r2, #0
    897c:	0843      	lsrs	r3, r0, #1
    897e:	428b      	cmp	r3, r1
    8980:	d374      	bcc.n	8a6c <__aeabi_idiv+0xf8>
    8982:	0903      	lsrs	r3, r0, #4
    8984:	428b      	cmp	r3, r1
    8986:	d35f      	bcc.n	8a48 <__aeabi_idiv+0xd4>
    8988:	0a03      	lsrs	r3, r0, #8
    898a:	428b      	cmp	r3, r1
    898c:	d344      	bcc.n	8a18 <__aeabi_idiv+0xa4>
    898e:	0b03      	lsrs	r3, r0, #12
    8990:	428b      	cmp	r3, r1
    8992:	d328      	bcc.n	89e6 <__aeabi_idiv+0x72>
    8994:	0c03      	lsrs	r3, r0, #16
    8996:	428b      	cmp	r3, r1
    8998:	d30d      	bcc.n	89b6 <__aeabi_idiv+0x42>
    899a:	22ff      	movs	r2, #255	; 0xff
    899c:	0209      	lsls	r1, r1, #8
    899e:	ba12      	rev	r2, r2
    89a0:	0c03      	lsrs	r3, r0, #16
    89a2:	428b      	cmp	r3, r1
    89a4:	d302      	bcc.n	89ac <__aeabi_idiv+0x38>
    89a6:	1212      	asrs	r2, r2, #8
    89a8:	0209      	lsls	r1, r1, #8
    89aa:	d065      	beq.n	8a78 <__aeabi_idiv+0x104>
    89ac:	0b03      	lsrs	r3, r0, #12
    89ae:	428b      	cmp	r3, r1
    89b0:	d319      	bcc.n	89e6 <__aeabi_idiv+0x72>
    89b2:	e000      	b.n	89b6 <__aeabi_idiv+0x42>
    89b4:	0a09      	lsrs	r1, r1, #8
    89b6:	0bc3      	lsrs	r3, r0, #15
    89b8:	428b      	cmp	r3, r1
    89ba:	d301      	bcc.n	89c0 <__aeabi_idiv+0x4c>
    89bc:	03cb      	lsls	r3, r1, #15
    89be:	1ac0      	subs	r0, r0, r3
    89c0:	4152      	adcs	r2, r2
    89c2:	0b83      	lsrs	r3, r0, #14
    89c4:	428b      	cmp	r3, r1
    89c6:	d301      	bcc.n	89cc <__aeabi_idiv+0x58>
    89c8:	038b      	lsls	r3, r1, #14
    89ca:	1ac0      	subs	r0, r0, r3
    89cc:	4152      	adcs	r2, r2
    89ce:	0b43      	lsrs	r3, r0, #13
    89d0:	428b      	cmp	r3, r1
    89d2:	d301      	bcc.n	89d8 <__aeabi_idiv+0x64>
    89d4:	034b      	lsls	r3, r1, #13
    89d6:	1ac0      	subs	r0, r0, r3
    89d8:	4152      	adcs	r2, r2
    89da:	0b03      	lsrs	r3, r0, #12
    89dc:	428b      	cmp	r3, r1
    89de:	d301      	bcc.n	89e4 <__aeabi_idiv+0x70>
    89e0:	030b      	lsls	r3, r1, #12
    89e2:	1ac0      	subs	r0, r0, r3
    89e4:	4152      	adcs	r2, r2
    89e6:	0ac3      	lsrs	r3, r0, #11
    89e8:	428b      	cmp	r3, r1
    89ea:	d301      	bcc.n	89f0 <__aeabi_idiv+0x7c>
    89ec:	02cb      	lsls	r3, r1, #11
    89ee:	1ac0      	subs	r0, r0, r3
    89f0:	4152      	adcs	r2, r2
    89f2:	0a83      	lsrs	r3, r0, #10
    89f4:	428b      	cmp	r3, r1
    89f6:	d301      	bcc.n	89fc <__aeabi_idiv+0x88>
    89f8:	028b      	lsls	r3, r1, #10
    89fa:	1ac0      	subs	r0, r0, r3
    89fc:	4152      	adcs	r2, r2
    89fe:	0a43      	lsrs	r3, r0, #9
    8a00:	428b      	cmp	r3, r1
    8a02:	d301      	bcc.n	8a08 <__aeabi_idiv+0x94>
    8a04:	024b      	lsls	r3, r1, #9
    8a06:	1ac0      	subs	r0, r0, r3
    8a08:	4152      	adcs	r2, r2
    8a0a:	0a03      	lsrs	r3, r0, #8
    8a0c:	428b      	cmp	r3, r1
    8a0e:	d301      	bcc.n	8a14 <__aeabi_idiv+0xa0>
    8a10:	020b      	lsls	r3, r1, #8
    8a12:	1ac0      	subs	r0, r0, r3
    8a14:	4152      	adcs	r2, r2
    8a16:	d2cd      	bcs.n	89b4 <__aeabi_idiv+0x40>
    8a18:	09c3      	lsrs	r3, r0, #7
    8a1a:	428b      	cmp	r3, r1
    8a1c:	d301      	bcc.n	8a22 <__aeabi_idiv+0xae>
    8a1e:	01cb      	lsls	r3, r1, #7
    8a20:	1ac0      	subs	r0, r0, r3
    8a22:	4152      	adcs	r2, r2
    8a24:	0983      	lsrs	r3, r0, #6
    8a26:	428b      	cmp	r3, r1
    8a28:	d301      	bcc.n	8a2e <__aeabi_idiv+0xba>
    8a2a:	018b      	lsls	r3, r1, #6
    8a2c:	1ac0      	subs	r0, r0, r3
    8a2e:	4152      	adcs	r2, r2
    8a30:	0943      	lsrs	r3, r0, #5
    8a32:	428b      	cmp	r3, r1
    8a34:	d301      	bcc.n	8a3a <__aeabi_idiv+0xc6>
    8a36:	014b      	lsls	r3, r1, #5
    8a38:	1ac0      	subs	r0, r0, r3
    8a3a:	4152      	adcs	r2, r2
    8a3c:	0903      	lsrs	r3, r0, #4
    8a3e:	428b      	cmp	r3, r1
    8a40:	d301      	bcc.n	8a46 <__aeabi_idiv+0xd2>
    8a42:	010b      	lsls	r3, r1, #4
    8a44:	1ac0      	subs	r0, r0, r3
    8a46:	4152      	adcs	r2, r2
    8a48:	08c3      	lsrs	r3, r0, #3
    8a4a:	428b      	cmp	r3, r1
    8a4c:	d301      	bcc.n	8a52 <__aeabi_idiv+0xde>
    8a4e:	00cb      	lsls	r3, r1, #3
    8a50:	1ac0      	subs	r0, r0, r3
    8a52:	4152      	adcs	r2, r2
    8a54:	0883      	lsrs	r3, r0, #2
    8a56:	428b      	cmp	r3, r1
    8a58:	d301      	bcc.n	8a5e <__aeabi_idiv+0xea>
    8a5a:	008b      	lsls	r3, r1, #2
    8a5c:	1ac0      	subs	r0, r0, r3
    8a5e:	4152      	adcs	r2, r2
    8a60:	0843      	lsrs	r3, r0, #1
    8a62:	428b      	cmp	r3, r1
    8a64:	d301      	bcc.n	8a6a <__aeabi_idiv+0xf6>
    8a66:	004b      	lsls	r3, r1, #1
    8a68:	1ac0      	subs	r0, r0, r3
    8a6a:	4152      	adcs	r2, r2
    8a6c:	1a41      	subs	r1, r0, r1
    8a6e:	d200      	bcs.n	8a72 <__aeabi_idiv+0xfe>
    8a70:	4601      	mov	r1, r0
    8a72:	4152      	adcs	r2, r2
    8a74:	4610      	mov	r0, r2
    8a76:	4770      	bx	lr
    8a78:	e05d      	b.n	8b36 <__aeabi_idiv+0x1c2>
    8a7a:	0fca      	lsrs	r2, r1, #31
    8a7c:	d000      	beq.n	8a80 <__aeabi_idiv+0x10c>
    8a7e:	4249      	negs	r1, r1
    8a80:	1003      	asrs	r3, r0, #32
    8a82:	d300      	bcc.n	8a86 <__aeabi_idiv+0x112>
    8a84:	4240      	negs	r0, r0
    8a86:	4053      	eors	r3, r2
    8a88:	2200      	movs	r2, #0
    8a8a:	469c      	mov	ip, r3
    8a8c:	0903      	lsrs	r3, r0, #4
    8a8e:	428b      	cmp	r3, r1
    8a90:	d32d      	bcc.n	8aee <__aeabi_idiv+0x17a>
    8a92:	0a03      	lsrs	r3, r0, #8
    8a94:	428b      	cmp	r3, r1
    8a96:	d312      	bcc.n	8abe <__aeabi_idiv+0x14a>
    8a98:	22fc      	movs	r2, #252	; 0xfc
    8a9a:	0189      	lsls	r1, r1, #6
    8a9c:	ba12      	rev	r2, r2
    8a9e:	0a03      	lsrs	r3, r0, #8
    8aa0:	428b      	cmp	r3, r1
    8aa2:	d30c      	bcc.n	8abe <__aeabi_idiv+0x14a>
    8aa4:	0189      	lsls	r1, r1, #6
    8aa6:	1192      	asrs	r2, r2, #6
    8aa8:	428b      	cmp	r3, r1
    8aaa:	d308      	bcc.n	8abe <__aeabi_idiv+0x14a>
    8aac:	0189      	lsls	r1, r1, #6
    8aae:	1192      	asrs	r2, r2, #6
    8ab0:	428b      	cmp	r3, r1
    8ab2:	d304      	bcc.n	8abe <__aeabi_idiv+0x14a>
    8ab4:	0189      	lsls	r1, r1, #6
    8ab6:	d03a      	beq.n	8b2e <__aeabi_idiv+0x1ba>
    8ab8:	1192      	asrs	r2, r2, #6
    8aba:	e000      	b.n	8abe <__aeabi_idiv+0x14a>
    8abc:	0989      	lsrs	r1, r1, #6
    8abe:	09c3      	lsrs	r3, r0, #7
    8ac0:	428b      	cmp	r3, r1
    8ac2:	d301      	bcc.n	8ac8 <__aeabi_idiv+0x154>
    8ac4:	01cb      	lsls	r3, r1, #7
    8ac6:	1ac0      	subs	r0, r0, r3
    8ac8:	4152      	adcs	r2, r2
    8aca:	0983      	lsrs	r3, r0, #6
    8acc:	428b      	cmp	r3, r1
    8ace:	d301      	bcc.n	8ad4 <__aeabi_idiv+0x160>
    8ad0:	018b      	lsls	r3, r1, #6
    8ad2:	1ac0      	subs	r0, r0, r3
    8ad4:	4152      	adcs	r2, r2
    8ad6:	0943      	lsrs	r3, r0, #5
    8ad8:	428b      	cmp	r3, r1
    8ada:	d301      	bcc.n	8ae0 <__aeabi_idiv+0x16c>
    8adc:	014b      	lsls	r3, r1, #5
    8ade:	1ac0      	subs	r0, r0, r3
    8ae0:	4152      	adcs	r2, r2
    8ae2:	0903      	lsrs	r3, r0, #4
    8ae4:	428b      	cmp	r3, r1
    8ae6:	d301      	bcc.n	8aec <__aeabi_idiv+0x178>
    8ae8:	010b      	lsls	r3, r1, #4
    8aea:	1ac0      	subs	r0, r0, r3
    8aec:	4152      	adcs	r2, r2
    8aee:	08c3      	lsrs	r3, r0, #3
    8af0:	428b      	cmp	r3, r1
    8af2:	d301      	bcc.n	8af8 <__aeabi_idiv+0x184>
    8af4:	00cb      	lsls	r3, r1, #3
    8af6:	1ac0      	subs	r0, r0, r3
    8af8:	4152      	adcs	r2, r2
    8afa:	0883      	lsrs	r3, r0, #2
    8afc:	428b      	cmp	r3, r1
    8afe:	d301      	bcc.n	8b04 <__aeabi_idiv+0x190>
    8b00:	008b      	lsls	r3, r1, #2
    8b02:	1ac0      	subs	r0, r0, r3
    8b04:	4152      	adcs	r2, r2
    8b06:	d2d9      	bcs.n	8abc <__aeabi_idiv+0x148>
    8b08:	0843      	lsrs	r3, r0, #1
    8b0a:	428b      	cmp	r3, r1
    8b0c:	d301      	bcc.n	8b12 <__aeabi_idiv+0x19e>
    8b0e:	004b      	lsls	r3, r1, #1
    8b10:	1ac0      	subs	r0, r0, r3
    8b12:	4152      	adcs	r2, r2
    8b14:	1a41      	subs	r1, r0, r1
    8b16:	d200      	bcs.n	8b1a <__aeabi_idiv+0x1a6>
    8b18:	4601      	mov	r1, r0
    8b1a:	4663      	mov	r3, ip
    8b1c:	4152      	adcs	r2, r2
    8b1e:	105b      	asrs	r3, r3, #1
    8b20:	4610      	mov	r0, r2
    8b22:	d301      	bcc.n	8b28 <__aeabi_idiv+0x1b4>
    8b24:	4240      	negs	r0, r0
    8b26:	2b00      	cmp	r3, #0
    8b28:	d500      	bpl.n	8b2c <__aeabi_idiv+0x1b8>
    8b2a:	4249      	negs	r1, r1
    8b2c:	4770      	bx	lr
    8b2e:	4663      	mov	r3, ip
    8b30:	105b      	asrs	r3, r3, #1
    8b32:	d300      	bcc.n	8b36 <__aeabi_idiv+0x1c2>
    8b34:	4240      	negs	r0, r0
    8b36:	b501      	push	{r0, lr}
    8b38:	2000      	movs	r0, #0
    8b3a:	f000 f80b 	bl	8b54 <__aeabi_idiv0>
    8b3e:	bd02      	pop	{r1, pc}

00008b40 <__aeabi_idivmod>:
    8b40:	2900      	cmp	r1, #0
    8b42:	d0f8      	beq.n	8b36 <__aeabi_idiv+0x1c2>
    8b44:	b503      	push	{r0, r1, lr}
    8b46:	f7ff ff15 	bl	8974 <__aeabi_idiv>
    8b4a:	bc0e      	pop	{r1, r2, r3}
    8b4c:	4342      	muls	r2, r0
    8b4e:	1a89      	subs	r1, r1, r2
    8b50:	4718      	bx	r3
    8b52:	46c0      	nop			; (mov r8, r8)

00008b54 <__aeabi_idiv0>:
    8b54:	4770      	bx	lr
    8b56:	46c0      	nop			; (mov r8, r8)

00008b58 <__ctzsi2>:
    8b58:	4241      	negs	r1, r0
    8b5a:	4008      	ands	r0, r1
    8b5c:	211c      	movs	r1, #28
    8b5e:	2301      	movs	r3, #1
    8b60:	041b      	lsls	r3, r3, #16
    8b62:	4298      	cmp	r0, r3
    8b64:	d301      	bcc.n	8b6a <__ctzsi2+0x12>
    8b66:	0c00      	lsrs	r0, r0, #16
    8b68:	3910      	subs	r1, #16
    8b6a:	0a1b      	lsrs	r3, r3, #8
    8b6c:	4298      	cmp	r0, r3
    8b6e:	d301      	bcc.n	8b74 <__ctzsi2+0x1c>
    8b70:	0a00      	lsrs	r0, r0, #8
    8b72:	3908      	subs	r1, #8
    8b74:	091b      	lsrs	r3, r3, #4
    8b76:	4298      	cmp	r0, r3
    8b78:	d301      	bcc.n	8b7e <__ctzsi2+0x26>
    8b7a:	0900      	lsrs	r0, r0, #4
    8b7c:	3904      	subs	r1, #4
    8b7e:	a202      	add	r2, pc, #8	; (adr r2, 8b88 <__ctzsi2+0x30>)
    8b80:	5c10      	ldrb	r0, [r2, r0]
    8b82:	1a40      	subs	r0, r0, r1
    8b84:	4770      	bx	lr
    8b86:	46c0      	nop			; (mov r8, r8)
    8b88:	1d1d1c1b 	.word	0x1d1d1c1b
    8b8c:	1e1e1e1e 	.word	0x1e1e1e1e
    8b90:	1f1f1f1f 	.word	0x1f1f1f1f
    8b94:	1f1f1f1f 	.word	0x1f1f1f1f

00008b98 <__libc_init_array>:
    8b98:	4b0e      	ldr	r3, [pc, #56]	; (8bd4 <__libc_init_array+0x3c>)
    8b9a:	b570      	push	{r4, r5, r6, lr}
    8b9c:	2500      	movs	r5, #0
    8b9e:	1c1e      	adds	r6, r3, #0
    8ba0:	4c0d      	ldr	r4, [pc, #52]	; (8bd8 <__libc_init_array+0x40>)
    8ba2:	1ae4      	subs	r4, r4, r3
    8ba4:	10a4      	asrs	r4, r4, #2
    8ba6:	42a5      	cmp	r5, r4
    8ba8:	d004      	beq.n	8bb4 <__libc_init_array+0x1c>
    8baa:	00ab      	lsls	r3, r5, #2
    8bac:	58f3      	ldr	r3, [r6, r3]
    8bae:	4798      	blx	r3
    8bb0:	3501      	adds	r5, #1
    8bb2:	e7f8      	b.n	8ba6 <__libc_init_array+0xe>
    8bb4:	f000 f8a8 	bl	8d08 <_init>
    8bb8:	4b08      	ldr	r3, [pc, #32]	; (8bdc <__libc_init_array+0x44>)
    8bba:	2500      	movs	r5, #0
    8bbc:	1c1e      	adds	r6, r3, #0
    8bbe:	4c08      	ldr	r4, [pc, #32]	; (8be0 <__libc_init_array+0x48>)
    8bc0:	1ae4      	subs	r4, r4, r3
    8bc2:	10a4      	asrs	r4, r4, #2
    8bc4:	42a5      	cmp	r5, r4
    8bc6:	d004      	beq.n	8bd2 <__libc_init_array+0x3a>
    8bc8:	00ab      	lsls	r3, r5, #2
    8bca:	58f3      	ldr	r3, [r6, r3]
    8bcc:	4798      	blx	r3
    8bce:	3501      	adds	r5, #1
    8bd0:	e7f8      	b.n	8bc4 <__libc_init_array+0x2c>
    8bd2:	bd70      	pop	{r4, r5, r6, pc}
    8bd4:	00008d14 	.word	0x00008d14
    8bd8:	00008d14 	.word	0x00008d14
    8bdc:	00008d14 	.word	0x00008d14
    8be0:	00008d18 	.word	0x00008d18

00008be4 <memcpy>:
    8be4:	2300      	movs	r3, #0
    8be6:	b510      	push	{r4, lr}
    8be8:	4293      	cmp	r3, r2
    8bea:	d003      	beq.n	8bf4 <memcpy+0x10>
    8bec:	5ccc      	ldrb	r4, [r1, r3]
    8bee:	54c4      	strb	r4, [r0, r3]
    8bf0:	3301      	adds	r3, #1
    8bf2:	e7f9      	b.n	8be8 <memcpy+0x4>
    8bf4:	bd10      	pop	{r4, pc}

00008bf6 <memset>:
    8bf6:	1c03      	adds	r3, r0, #0
    8bf8:	1882      	adds	r2, r0, r2
    8bfa:	4293      	cmp	r3, r2
    8bfc:	d002      	beq.n	8c04 <memset+0xe>
    8bfe:	7019      	strb	r1, [r3, #0]
    8c00:	3301      	adds	r3, #1
    8c02:	e7fa      	b.n	8bfa <memset+0x4>
    8c04:	4770      	bx	lr
    8c06:	0000      	movs	r0, r0
    8c08:	42000800 	.word	0x42000800
    8c0c:	42000c00 	.word	0x42000c00
    8c10:	42001000 	.word	0x42001000
    8c14:	42001400 	.word	0x42001400
    8c18:	42001800 	.word	0x42001800
    8c1c:	42001c00 	.word	0x42001c00
    8c20:	00001da2 	.word	0x00001da2
    8c24:	00001d7a 	.word	0x00001d7a
    8c28:	00001d52 	.word	0x00001d52
    8c2c:	00001d18 	.word	0x00001d18
    8c30:	00001cde 	.word	0x00001cde
    8c34:	53504f54 	.word	0x53504f54
    8c38:	45524345 	.word	0x45524345
    8c3c:	53415054 	.word	0x53415054
    8c40:	44525753 	.word	0x44525753
    8c44:	00000000 	.word	0x00000000
    8c48:	000036fa 	.word	0x000036fa
    8c4c:	000036e2 	.word	0x000036e2
    8c50:	000036fa 	.word	0x000036fa
    8c54:	000036ea 	.word	0x000036ea
    8c58:	000036fa 	.word	0x000036fa
    8c5c:	000036da 	.word	0x000036da
    8c60:	000036fa 	.word	0x000036fa
    8c64:	000036fa 	.word	0x000036fa
    8c68:	000036fa 	.word	0x000036fa
    8c6c:	000036f2 	.word	0x000036f2
    8c70:	0000436a 	.word	0x0000436a
    8c74:	000043f4 	.word	0x000043f4
    8c78:	000043f4 	.word	0x000043f4
    8c7c:	0000438c 	.word	0x0000438c
    8c80:	00004386 	.word	0x00004386
    8c84:	00004392 	.word	0x00004392
    8c88:	00004370 	.word	0x00004370
    8c8c:	00004398 	.word	0x00004398
    8c90:	000043da 	.word	0x000043da
    8c94:	0000459c 	.word	0x0000459c
    8c98:	000045ec 	.word	0x000045ec
    8c9c:	000045ec 	.word	0x000045ec
    8ca0:	000045e8 	.word	0x000045e8
    8ca4:	0000458e 	.word	0x0000458e
    8ca8:	000045ae 	.word	0x000045ae
    8cac:	0000457e 	.word	0x0000457e
    8cb0:	000045c0 	.word	0x000045c0
    8cb4:	000045d2 	.word	0x000045d2
    8cb8:	0000463a 	.word	0x0000463a
    8cbc:	00004668 	.word	0x00004668
    8cc0:	00004668 	.word	0x00004668
    8cc4:	00004664 	.word	0x00004664
    8cc8:	00004634 	.word	0x00004634
    8ccc:	00004640 	.word	0x00004640
    8cd0:	0000462e 	.word	0x0000462e
    8cd4:	00004646 	.word	0x00004646
    8cd8:	0000464c 	.word	0x0000464c
    8cdc:	01020300 	.word	0x01020300

00008ce0 <_usb_device_irq_bits>:
    8ce0:	00080004 00800070 01000001 00000200     ....p...........

00008cf0 <_usb_endpoint_irq_bits>:
    8cf0:	60100c03 000072c8 000072de 0000743e     ...`.r...r..>t..
    8d00:	0000750a 000075d6                       .u...u..

00008d08 <_init>:
    8d08:	b5f8      	push	{r3, r4, r5, r6, r7, lr}
    8d0a:	46c0      	nop			; (mov r8, r8)
    8d0c:	bcf8      	pop	{r3, r4, r5, r6, r7}
    8d0e:	bc08      	pop	{r3}
    8d10:	469e      	mov	lr, r3
    8d12:	4770      	bx	lr

00008d14 <__init_array_start>:
    8d14:	000000dd 	.word	0x000000dd

00008d18 <_fini>:
    8d18:	b5f8      	push	{r3, r4, r5, r6, r7, lr}
    8d1a:	46c0      	nop			; (mov r8, r8)
    8d1c:	bcf8      	pop	{r3, r4, r5, r6, r7}
    8d1e:	bc08      	pop	{r3}
    8d20:	469e      	mov	lr, r3
    8d22:	4770      	bx	lr

00008d24 <__fini_array_start>:
    8d24:	000000b5 	.word	0x000000b5
